ARM GAS  C:\Users\Artem\AppData\Local\Temp\cc8fbasp.s 			page 1


   1              		.cpu cortex-m3
   2              		.arch armv7-m
   3              		.fpu softvfp
   4              		.eabi_attribute 20, 1
   5              		.eabi_attribute 21, 1
   6              		.eabi_attribute 23, 3
   7              		.eabi_attribute 24, 1
   8              		.eabi_attribute 25, 1
   9              		.eabi_attribute 26, 1
  10              		.eabi_attribute 30, 1
  11              		.eabi_attribute 34, 1
  12              		.eabi_attribute 18, 4
  13              		.file	"main.c"
  14              		.text
  15              	.Ltext0:
  16              		.cfi_sections	.debug_frame
  17              		.section	.text.MX_GPIO_Init,"ax",%progbits
  18              		.align	1
  19              		.syntax unified
  20              		.thumb
  21              		.thumb_func
  23              	MX_GPIO_Init:
  24              	.LFB491:
  25              		.file 1 "Core/Src/main.c"
   1:Core/Src/main.c **** /* USER CODE BEGIN Header */
   2:Core/Src/main.c **** /**
   3:Core/Src/main.c ****   ******************************************************************************
   4:Core/Src/main.c ****   * @file           : main.c
   5:Core/Src/main.c ****   * @brief          : Main program body
   6:Core/Src/main.c ****   ******************************************************************************
   7:Core/Src/main.c ****   * @attention
   8:Core/Src/main.c ****   *
   9:Core/Src/main.c ****   * Copyright (c) 2022 STMicroelectronics.
  10:Core/Src/main.c ****   * All rights reserved.
  11:Core/Src/main.c ****   *
  12:Core/Src/main.c ****   * This software is licensed under terms that can be found in the LICENSE file
  13:Core/Src/main.c ****   * in the root directory of this software component.
  14:Core/Src/main.c ****   * If no LICENSE file comes with this software, it is provided AS-IS.
  15:Core/Src/main.c ****   *
  16:Core/Src/main.c ****   ******************************************************************************
  17:Core/Src/main.c ****   */
  18:Core/Src/main.c **** /* USER CODE END Header */
  19:Core/Src/main.c **** /* Includes ------------------------------------------------------------------*/
  20:Core/Src/main.c **** #include "main.h"
  21:Core/Src/main.c **** #include "usb_device.h"
  22:Core/Src/main.c **** 
  23:Core/Src/main.c **** /* Private includes ----------------------------------------------------------*/
  24:Core/Src/main.c **** /* USER CODE BEGIN Includes */
  25:Core/Src/main.c **** 
  26:Core/Src/main.c **** /* USER CODE END Includes */
  27:Core/Src/main.c **** 
  28:Core/Src/main.c **** /* Private typedef -----------------------------------------------------------*/
  29:Core/Src/main.c **** /* USER CODE BEGIN PTD */
  30:Core/Src/main.c **** 
  31:Core/Src/main.c **** /* USER CODE END PTD */
  32:Core/Src/main.c **** 
  33:Core/Src/main.c **** /* Private define ------------------------------------------------------------*/
ARM GAS  C:\Users\Artem\AppData\Local\Temp\cc8fbasp.s 			page 2


  34:Core/Src/main.c **** /* USER CODE BEGIN PD */
  35:Core/Src/main.c **** /* USER CODE END PD */
  36:Core/Src/main.c **** 
  37:Core/Src/main.c **** /* Private macro -------------------------------------------------------------*/
  38:Core/Src/main.c **** /* USER CODE BEGIN PM */
  39:Core/Src/main.c **** 
  40:Core/Src/main.c **** /* USER CODE END PM */
  41:Core/Src/main.c **** 
  42:Core/Src/main.c **** /* Private variables ---------------------------------------------------------*/
  43:Core/Src/main.c **** 
  44:Core/Src/main.c **** /* USER CODE BEGIN PV */
  45:Core/Src/main.c **** 
  46:Core/Src/main.c **** /* USER CODE END PV */
  47:Core/Src/main.c **** 
  48:Core/Src/main.c **** /* Private function prototypes -----------------------------------------------*/
  49:Core/Src/main.c **** void SystemClock_Config(void);
  50:Core/Src/main.c **** static void MX_GPIO_Init(void);
  51:Core/Src/main.c **** /* USER CODE BEGIN PFP */
  52:Core/Src/main.c **** 
  53:Core/Src/main.c **** /* USER CODE END PFP */
  54:Core/Src/main.c **** 
  55:Core/Src/main.c **** /* Private user code ---------------------------------------------------------*/
  56:Core/Src/main.c **** /* USER CODE BEGIN 0 */
  57:Core/Src/main.c **** 
  58:Core/Src/main.c **** /* USER CODE END 0 */
  59:Core/Src/main.c **** 
  60:Core/Src/main.c **** /**
  61:Core/Src/main.c ****   * @brief  The application entry point.
  62:Core/Src/main.c ****   * @retval int
  63:Core/Src/main.c ****   */
  64:Core/Src/main.c **** int main(void)
  65:Core/Src/main.c **** {
  66:Core/Src/main.c ****   /* USER CODE BEGIN 1 */
  67:Core/Src/main.c **** 
  68:Core/Src/main.c ****   /* USER CODE END 1 */
  69:Core/Src/main.c **** 
  70:Core/Src/main.c ****   /* MCU Configuration--------------------------------------------------------*/
  71:Core/Src/main.c **** 
  72:Core/Src/main.c ****   /* Reset of all peripherals, Initializes the Flash interface and the Systick. */
  73:Core/Src/main.c ****   HAL_Init();
  74:Core/Src/main.c **** 
  75:Core/Src/main.c ****   /* USER CODE BEGIN Init */
  76:Core/Src/main.c **** 
  77:Core/Src/main.c ****   /* USER CODE END Init */
  78:Core/Src/main.c **** 
  79:Core/Src/main.c ****   /* Configure the system clock */
  80:Core/Src/main.c ****   SystemClock_Config();
  81:Core/Src/main.c **** 
  82:Core/Src/main.c ****   /* USER CODE BEGIN SysInit */
  83:Core/Src/main.c **** 
  84:Core/Src/main.c ****   /* USER CODE END SysInit */
  85:Core/Src/main.c **** 
  86:Core/Src/main.c ****   /* Initialize all configured peripherals */
  87:Core/Src/main.c ****   MX_GPIO_Init();
  88:Core/Src/main.c ****   MX_USB_DEVICE_Init();
  89:Core/Src/main.c ****   /* USER CODE BEGIN 2 */
  90:Core/Src/main.c **** 
ARM GAS  C:\Users\Artem\AppData\Local\Temp\cc8fbasp.s 			page 3


  91:Core/Src/main.c ****   /* USER CODE END 2 */
  92:Core/Src/main.c **** 
  93:Core/Src/main.c ****   /* Infinite loop */
  94:Core/Src/main.c ****   /* USER CODE BEGIN WHILE */
  95:Core/Src/main.c ****   while (1)
  96:Core/Src/main.c ****   {
  97:Core/Src/main.c ****     /* USER CODE END WHILE */
  98:Core/Src/main.c **** 
  99:Core/Src/main.c ****     /* USER CODE BEGIN 3 */
 100:Core/Src/main.c ****   }
 101:Core/Src/main.c ****   /* USER CODE END 3 */
 102:Core/Src/main.c **** }
 103:Core/Src/main.c **** 
 104:Core/Src/main.c **** /**
 105:Core/Src/main.c ****   * @brief System Clock Configuration
 106:Core/Src/main.c ****   * @retval None
 107:Core/Src/main.c ****   */
 108:Core/Src/main.c **** void SystemClock_Config(void)
 109:Core/Src/main.c **** {
 110:Core/Src/main.c ****   LL_FLASH_SetLatency(LL_FLASH_LATENCY_3);
 111:Core/Src/main.c ****   while(LL_FLASH_GetLatency()!= LL_FLASH_LATENCY_3)
 112:Core/Src/main.c ****   {
 113:Core/Src/main.c ****   }
 114:Core/Src/main.c ****   LL_RCC_HSE_Enable();
 115:Core/Src/main.c **** 
 116:Core/Src/main.c ****    /* Wait till HSE is ready */
 117:Core/Src/main.c ****   while(LL_RCC_HSE_IsReady() != 1)
 118:Core/Src/main.c ****   {
 119:Core/Src/main.c **** 
 120:Core/Src/main.c ****   }
 121:Core/Src/main.c ****   LL_RCC_PLL_ConfigDomain_SYS(LL_RCC_PLLSOURCE_HSE, LL_RCC_PLLM_DIV_20, 192, LL_RCC_PLLP_DIV_2);
 122:Core/Src/main.c ****   LL_RCC_PLL_ConfigDomain_48M(LL_RCC_PLLSOURCE_HSE, LL_RCC_PLLM_DIV_20, 192, LL_RCC_PLLQ_DIV_5);
 123:Core/Src/main.c ****   LL_RCC_PLL_Enable();
 124:Core/Src/main.c **** 
 125:Core/Src/main.c ****    /* Wait till PLL is ready */
 126:Core/Src/main.c ****   while(LL_RCC_PLL_IsReady() != 1)
 127:Core/Src/main.c ****   {
 128:Core/Src/main.c **** 
 129:Core/Src/main.c ****   }
 130:Core/Src/main.c ****   LL_RCC_SetAHBPrescaler(LL_RCC_SYSCLK_DIV_1);
 131:Core/Src/main.c ****   LL_RCC_SetAPB1Prescaler(LL_RCC_APB1_DIV_4);
 132:Core/Src/main.c ****   LL_RCC_SetAPB2Prescaler(LL_RCC_APB2_DIV_2);
 133:Core/Src/main.c ****   LL_RCC_SetSysClkSource(LL_RCC_SYS_CLKSOURCE_PLL);
 134:Core/Src/main.c **** 
 135:Core/Src/main.c ****    /* Wait till System clock is ready */
 136:Core/Src/main.c ****   while(LL_RCC_GetSysClkSource() != LL_RCC_SYS_CLKSOURCE_STATUS_PLL)
 137:Core/Src/main.c ****   {
 138:Core/Src/main.c **** 
 139:Core/Src/main.c ****   }
 140:Core/Src/main.c ****   LL_SetSystemCoreClock(120000000);
 141:Core/Src/main.c **** 
 142:Core/Src/main.c ****    /* Update the time base */
 143:Core/Src/main.c ****   if (HAL_InitTick (TICK_INT_PRIORITY) != HAL_OK)
 144:Core/Src/main.c ****   {
 145:Core/Src/main.c ****     Error_Handler();
 146:Core/Src/main.c ****   }
 147:Core/Src/main.c **** }
ARM GAS  C:\Users\Artem\AppData\Local\Temp\cc8fbasp.s 			page 4


 148:Core/Src/main.c **** 
 149:Core/Src/main.c **** /**
 150:Core/Src/main.c ****   * @brief GPIO Initialization Function
 151:Core/Src/main.c ****   * @param None
 152:Core/Src/main.c ****   * @retval None
 153:Core/Src/main.c ****   */
 154:Core/Src/main.c **** static void MX_GPIO_Init(void)
 155:Core/Src/main.c **** {
  26              		.loc 1 155 1 view -0
  27              		.cfi_startproc
  28              		@ args = 0, pretend = 0, frame = 8
  29              		@ frame_needed = 0, uses_anonymous_args = 0
  30              		@ link register save eliminated.
  31 0000 82B0     		sub	sp, sp, #8
  32              	.LCFI0:
  33              		.cfi_def_cfa_offset 8
 156:Core/Src/main.c **** 
 157:Core/Src/main.c ****   /* GPIO Ports Clock Enable */
 158:Core/Src/main.c ****   LL_AHB1_GRP1_EnableClock(LL_AHB1_GRP1_PERIPH_GPIOH);
  34              		.loc 1 158 3 view .LVU1
  35              	.LVL0:
  36              	.LBB34:
  37              	.LBI34:
  38              		.file 2 "Drivers/STM32F2xx_HAL_Driver/Inc/stm32f2xx_ll_bus.h"
   1:Drivers/STM32F2xx_HAL_Driver/Inc/stm32f2xx_ll_bus.h **** /**
   2:Drivers/STM32F2xx_HAL_Driver/Inc/stm32f2xx_ll_bus.h ****   ******************************************************************************
   3:Drivers/STM32F2xx_HAL_Driver/Inc/stm32f2xx_ll_bus.h ****   * @file    stm32f2xx_ll_bus.h
   4:Drivers/STM32F2xx_HAL_Driver/Inc/stm32f2xx_ll_bus.h ****   * @author  MCD Application Team
   5:Drivers/STM32F2xx_HAL_Driver/Inc/stm32f2xx_ll_bus.h ****   * @brief   Header file of BUS LL module.
   6:Drivers/STM32F2xx_HAL_Driver/Inc/stm32f2xx_ll_bus.h **** 
   7:Drivers/STM32F2xx_HAL_Driver/Inc/stm32f2xx_ll_bus.h ****   @verbatim
   8:Drivers/STM32F2xx_HAL_Driver/Inc/stm32f2xx_ll_bus.h ****                       ##### RCC Limitations #####
   9:Drivers/STM32F2xx_HAL_Driver/Inc/stm32f2xx_ll_bus.h ****   ==============================================================================
  10:Drivers/STM32F2xx_HAL_Driver/Inc/stm32f2xx_ll_bus.h ****     [..]  
  11:Drivers/STM32F2xx_HAL_Driver/Inc/stm32f2xx_ll_bus.h ****       A delay between an RCC peripheral clock enable and the effective peripheral 
  12:Drivers/STM32F2xx_HAL_Driver/Inc/stm32f2xx_ll_bus.h ****       enabling should be taken into account in order to manage the peripheral read/write 
  13:Drivers/STM32F2xx_HAL_Driver/Inc/stm32f2xx_ll_bus.h ****       from/to registers.
  14:Drivers/STM32F2xx_HAL_Driver/Inc/stm32f2xx_ll_bus.h ****       (+) This delay depends on the peripheral mapping.
  15:Drivers/STM32F2xx_HAL_Driver/Inc/stm32f2xx_ll_bus.h ****         (++) AHB & APB peripherals, 1 dummy read is necessary
  16:Drivers/STM32F2xx_HAL_Driver/Inc/stm32f2xx_ll_bus.h **** 
  17:Drivers/STM32F2xx_HAL_Driver/Inc/stm32f2xx_ll_bus.h ****     [..]  
  18:Drivers/STM32F2xx_HAL_Driver/Inc/stm32f2xx_ll_bus.h ****       Workarounds:
  19:Drivers/STM32F2xx_HAL_Driver/Inc/stm32f2xx_ll_bus.h ****       (#) For AHB & APB peripherals, a dummy read to the peripheral register has been
  20:Drivers/STM32F2xx_HAL_Driver/Inc/stm32f2xx_ll_bus.h ****           inserted in each LL_{BUS}_GRP{x}_EnableClock() function.
  21:Drivers/STM32F2xx_HAL_Driver/Inc/stm32f2xx_ll_bus.h **** 
  22:Drivers/STM32F2xx_HAL_Driver/Inc/stm32f2xx_ll_bus.h ****   @endverbatim
  23:Drivers/STM32F2xx_HAL_Driver/Inc/stm32f2xx_ll_bus.h ****   ******************************************************************************
  24:Drivers/STM32F2xx_HAL_Driver/Inc/stm32f2xx_ll_bus.h ****   * @attention
  25:Drivers/STM32F2xx_HAL_Driver/Inc/stm32f2xx_ll_bus.h ****   *
  26:Drivers/STM32F2xx_HAL_Driver/Inc/stm32f2xx_ll_bus.h ****   * <h2><center>&copy; Copyright (c) 2017 STMicroelectronics.
  27:Drivers/STM32F2xx_HAL_Driver/Inc/stm32f2xx_ll_bus.h ****   * All rights reserved.</center></h2>
  28:Drivers/STM32F2xx_HAL_Driver/Inc/stm32f2xx_ll_bus.h ****   *
  29:Drivers/STM32F2xx_HAL_Driver/Inc/stm32f2xx_ll_bus.h ****   * This software component is licensed by ST under BSD 3-Clause license,
  30:Drivers/STM32F2xx_HAL_Driver/Inc/stm32f2xx_ll_bus.h ****   * the "License"; You may not use this file except in compliance with the
  31:Drivers/STM32F2xx_HAL_Driver/Inc/stm32f2xx_ll_bus.h ****   * License. You may obtain a copy of the License at:
  32:Drivers/STM32F2xx_HAL_Driver/Inc/stm32f2xx_ll_bus.h ****   *                        opensource.org/licenses/BSD-3-Clause
  33:Drivers/STM32F2xx_HAL_Driver/Inc/stm32f2xx_ll_bus.h ****   *
ARM GAS  C:\Users\Artem\AppData\Local\Temp\cc8fbasp.s 			page 5


  34:Drivers/STM32F2xx_HAL_Driver/Inc/stm32f2xx_ll_bus.h ****   ******************************************************************************
  35:Drivers/STM32F2xx_HAL_Driver/Inc/stm32f2xx_ll_bus.h ****   */
  36:Drivers/STM32F2xx_HAL_Driver/Inc/stm32f2xx_ll_bus.h **** 
  37:Drivers/STM32F2xx_HAL_Driver/Inc/stm32f2xx_ll_bus.h **** /* Define to prevent recursive inclusion -------------------------------------*/
  38:Drivers/STM32F2xx_HAL_Driver/Inc/stm32f2xx_ll_bus.h **** #ifndef __STM32F2xx_LL_BUS_H
  39:Drivers/STM32F2xx_HAL_Driver/Inc/stm32f2xx_ll_bus.h **** #define __STM32F2xx_LL_BUS_H
  40:Drivers/STM32F2xx_HAL_Driver/Inc/stm32f2xx_ll_bus.h **** 
  41:Drivers/STM32F2xx_HAL_Driver/Inc/stm32f2xx_ll_bus.h **** #ifdef __cplusplus
  42:Drivers/STM32F2xx_HAL_Driver/Inc/stm32f2xx_ll_bus.h **** extern "C" {
  43:Drivers/STM32F2xx_HAL_Driver/Inc/stm32f2xx_ll_bus.h **** #endif
  44:Drivers/STM32F2xx_HAL_Driver/Inc/stm32f2xx_ll_bus.h **** 
  45:Drivers/STM32F2xx_HAL_Driver/Inc/stm32f2xx_ll_bus.h **** /* Includes ------------------------------------------------------------------*/
  46:Drivers/STM32F2xx_HAL_Driver/Inc/stm32f2xx_ll_bus.h **** #include "stm32f2xx.h"
  47:Drivers/STM32F2xx_HAL_Driver/Inc/stm32f2xx_ll_bus.h **** 
  48:Drivers/STM32F2xx_HAL_Driver/Inc/stm32f2xx_ll_bus.h **** /** @addtogroup STM32F2xx_LL_Driver
  49:Drivers/STM32F2xx_HAL_Driver/Inc/stm32f2xx_ll_bus.h ****   * @{
  50:Drivers/STM32F2xx_HAL_Driver/Inc/stm32f2xx_ll_bus.h ****   */
  51:Drivers/STM32F2xx_HAL_Driver/Inc/stm32f2xx_ll_bus.h **** 
  52:Drivers/STM32F2xx_HAL_Driver/Inc/stm32f2xx_ll_bus.h **** #if defined(RCC)
  53:Drivers/STM32F2xx_HAL_Driver/Inc/stm32f2xx_ll_bus.h **** 
  54:Drivers/STM32F2xx_HAL_Driver/Inc/stm32f2xx_ll_bus.h **** /** @defgroup BUS_LL BUS
  55:Drivers/STM32F2xx_HAL_Driver/Inc/stm32f2xx_ll_bus.h ****   * @{
  56:Drivers/STM32F2xx_HAL_Driver/Inc/stm32f2xx_ll_bus.h ****   */
  57:Drivers/STM32F2xx_HAL_Driver/Inc/stm32f2xx_ll_bus.h **** 
  58:Drivers/STM32F2xx_HAL_Driver/Inc/stm32f2xx_ll_bus.h **** /* Private types -------------------------------------------------------------*/
  59:Drivers/STM32F2xx_HAL_Driver/Inc/stm32f2xx_ll_bus.h **** /* Private variables ---------------------------------------------------------*/
  60:Drivers/STM32F2xx_HAL_Driver/Inc/stm32f2xx_ll_bus.h **** /* Private constants ---------------------------------------------------------*/
  61:Drivers/STM32F2xx_HAL_Driver/Inc/stm32f2xx_ll_bus.h **** /* Private macros ------------------------------------------------------------*/
  62:Drivers/STM32F2xx_HAL_Driver/Inc/stm32f2xx_ll_bus.h **** /* Exported types ------------------------------------------------------------*/
  63:Drivers/STM32F2xx_HAL_Driver/Inc/stm32f2xx_ll_bus.h **** /* Exported constants --------------------------------------------------------*/
  64:Drivers/STM32F2xx_HAL_Driver/Inc/stm32f2xx_ll_bus.h **** /** @defgroup BUS_LL_Exported_Constants BUS Exported Constants
  65:Drivers/STM32F2xx_HAL_Driver/Inc/stm32f2xx_ll_bus.h ****   * @{
  66:Drivers/STM32F2xx_HAL_Driver/Inc/stm32f2xx_ll_bus.h ****   */
  67:Drivers/STM32F2xx_HAL_Driver/Inc/stm32f2xx_ll_bus.h **** 
  68:Drivers/STM32F2xx_HAL_Driver/Inc/stm32f2xx_ll_bus.h **** /** @defgroup BUS_LL_EC_AHB1_GRP1_PERIPH  AHB1 GRP1 PERIPH
  69:Drivers/STM32F2xx_HAL_Driver/Inc/stm32f2xx_ll_bus.h ****   * @{
  70:Drivers/STM32F2xx_HAL_Driver/Inc/stm32f2xx_ll_bus.h ****   */
  71:Drivers/STM32F2xx_HAL_Driver/Inc/stm32f2xx_ll_bus.h **** #define LL_AHB1_GRP1_PERIPH_ALL            0xFFFFFFFFU
  72:Drivers/STM32F2xx_HAL_Driver/Inc/stm32f2xx_ll_bus.h **** #define LL_AHB1_GRP1_PERIPH_GPIOA          RCC_AHB1ENR_GPIOAEN
  73:Drivers/STM32F2xx_HAL_Driver/Inc/stm32f2xx_ll_bus.h **** #define LL_AHB1_GRP1_PERIPH_GPIOB          RCC_AHB1ENR_GPIOBEN
  74:Drivers/STM32F2xx_HAL_Driver/Inc/stm32f2xx_ll_bus.h **** #define LL_AHB1_GRP1_PERIPH_GPIOC          RCC_AHB1ENR_GPIOCEN
  75:Drivers/STM32F2xx_HAL_Driver/Inc/stm32f2xx_ll_bus.h **** #define LL_AHB1_GRP1_PERIPH_GPIOD          RCC_AHB1ENR_GPIODEN
  76:Drivers/STM32F2xx_HAL_Driver/Inc/stm32f2xx_ll_bus.h **** #define LL_AHB1_GRP1_PERIPH_GPIOE          RCC_AHB1ENR_GPIOEEN
  77:Drivers/STM32F2xx_HAL_Driver/Inc/stm32f2xx_ll_bus.h **** #define LL_AHB1_GRP1_PERIPH_GPIOF          RCC_AHB1ENR_GPIOFEN
  78:Drivers/STM32F2xx_HAL_Driver/Inc/stm32f2xx_ll_bus.h **** #define LL_AHB1_GRP1_PERIPH_GPIOG          RCC_AHB1ENR_GPIOGEN
  79:Drivers/STM32F2xx_HAL_Driver/Inc/stm32f2xx_ll_bus.h **** #define LL_AHB1_GRP1_PERIPH_GPIOH          RCC_AHB1ENR_GPIOHEN
  80:Drivers/STM32F2xx_HAL_Driver/Inc/stm32f2xx_ll_bus.h **** #define LL_AHB1_GRP1_PERIPH_GPIOI          RCC_AHB1ENR_GPIOIEN
  81:Drivers/STM32F2xx_HAL_Driver/Inc/stm32f2xx_ll_bus.h **** #define LL_AHB1_GRP1_PERIPH_CRC            RCC_AHB1ENR_CRCEN
  82:Drivers/STM32F2xx_HAL_Driver/Inc/stm32f2xx_ll_bus.h **** #define LL_AHB1_GRP1_PERIPH_BKPSRAM        RCC_AHB1ENR_BKPSRAMEN
  83:Drivers/STM32F2xx_HAL_Driver/Inc/stm32f2xx_ll_bus.h **** #define LL_AHB1_GRP1_PERIPH_DMA1           RCC_AHB1ENR_DMA1EN
  84:Drivers/STM32F2xx_HAL_Driver/Inc/stm32f2xx_ll_bus.h **** #define LL_AHB1_GRP1_PERIPH_DMA2           RCC_AHB1ENR_DMA2EN
  85:Drivers/STM32F2xx_HAL_Driver/Inc/stm32f2xx_ll_bus.h **** #if defined(ETH)
  86:Drivers/STM32F2xx_HAL_Driver/Inc/stm32f2xx_ll_bus.h **** #define LL_AHB1_GRP1_PERIPH_ETHMAC         RCC_AHB1ENR_ETHMACEN
  87:Drivers/STM32F2xx_HAL_Driver/Inc/stm32f2xx_ll_bus.h **** #define LL_AHB1_GRP1_PERIPH_ETHMACTX       RCC_AHB1ENR_ETHMACTXEN
  88:Drivers/STM32F2xx_HAL_Driver/Inc/stm32f2xx_ll_bus.h **** #define LL_AHB1_GRP1_PERIPH_ETHMACRX       RCC_AHB1ENR_ETHMACRXEN
  89:Drivers/STM32F2xx_HAL_Driver/Inc/stm32f2xx_ll_bus.h **** #define LL_AHB1_GRP1_PERIPH_ETHMACPTP      RCC_AHB1ENR_ETHMACPTPEN
  90:Drivers/STM32F2xx_HAL_Driver/Inc/stm32f2xx_ll_bus.h **** #endif /* ETH */
ARM GAS  C:\Users\Artem\AppData\Local\Temp\cc8fbasp.s 			page 6


  91:Drivers/STM32F2xx_HAL_Driver/Inc/stm32f2xx_ll_bus.h **** #define LL_AHB1_GRP1_PERIPH_OTGHS          RCC_AHB1ENR_OTGHSEN
  92:Drivers/STM32F2xx_HAL_Driver/Inc/stm32f2xx_ll_bus.h **** #define LL_AHB1_GRP1_PERIPH_OTGHSULPI      RCC_AHB1ENR_OTGHSULPIEN
  93:Drivers/STM32F2xx_HAL_Driver/Inc/stm32f2xx_ll_bus.h **** #define LL_AHB1_GRP1_PERIPH_FLITF          RCC_AHB1LPENR_FLITFLPEN
  94:Drivers/STM32F2xx_HAL_Driver/Inc/stm32f2xx_ll_bus.h **** #define LL_AHB1_GRP1_PERIPH_SRAM1          RCC_AHB1LPENR_SRAM1LPEN
  95:Drivers/STM32F2xx_HAL_Driver/Inc/stm32f2xx_ll_bus.h **** #define LL_AHB1_GRP1_PERIPH_SRAM2          RCC_AHB1LPENR_SRAM2LPEN
  96:Drivers/STM32F2xx_HAL_Driver/Inc/stm32f2xx_ll_bus.h **** /**
  97:Drivers/STM32F2xx_HAL_Driver/Inc/stm32f2xx_ll_bus.h ****   * @}
  98:Drivers/STM32F2xx_HAL_Driver/Inc/stm32f2xx_ll_bus.h ****   */
  99:Drivers/STM32F2xx_HAL_Driver/Inc/stm32f2xx_ll_bus.h **** 
 100:Drivers/STM32F2xx_HAL_Driver/Inc/stm32f2xx_ll_bus.h **** /** @defgroup BUS_LL_EC_AHB2_GRP1_PERIPH  AHB2 GRP1 PERIPH
 101:Drivers/STM32F2xx_HAL_Driver/Inc/stm32f2xx_ll_bus.h ****   * @{
 102:Drivers/STM32F2xx_HAL_Driver/Inc/stm32f2xx_ll_bus.h ****   */
 103:Drivers/STM32F2xx_HAL_Driver/Inc/stm32f2xx_ll_bus.h **** #define LL_AHB2_GRP1_PERIPH_ALL            0xFFFFFFFFU
 104:Drivers/STM32F2xx_HAL_Driver/Inc/stm32f2xx_ll_bus.h **** #if defined(DCMI)
 105:Drivers/STM32F2xx_HAL_Driver/Inc/stm32f2xx_ll_bus.h **** #define LL_AHB2_GRP1_PERIPH_DCMI           RCC_AHB2ENR_DCMIEN
 106:Drivers/STM32F2xx_HAL_Driver/Inc/stm32f2xx_ll_bus.h **** #endif /* DCMI */
 107:Drivers/STM32F2xx_HAL_Driver/Inc/stm32f2xx_ll_bus.h **** #if defined(CRYP)
 108:Drivers/STM32F2xx_HAL_Driver/Inc/stm32f2xx_ll_bus.h **** #define LL_AHB2_GRP1_PERIPH_CRYP           RCC_AHB2ENR_CRYPEN
 109:Drivers/STM32F2xx_HAL_Driver/Inc/stm32f2xx_ll_bus.h **** #endif /* CRYP */
 110:Drivers/STM32F2xx_HAL_Driver/Inc/stm32f2xx_ll_bus.h **** #if defined(HASH)
 111:Drivers/STM32F2xx_HAL_Driver/Inc/stm32f2xx_ll_bus.h **** #define LL_AHB2_GRP1_PERIPH_HASH           RCC_AHB2ENR_HASHEN
 112:Drivers/STM32F2xx_HAL_Driver/Inc/stm32f2xx_ll_bus.h **** #endif /* HASH */
 113:Drivers/STM32F2xx_HAL_Driver/Inc/stm32f2xx_ll_bus.h **** #define LL_AHB2_GRP1_PERIPH_RNG            RCC_AHB2ENR_RNGEN
 114:Drivers/STM32F2xx_HAL_Driver/Inc/stm32f2xx_ll_bus.h **** #define LL_AHB2_GRP1_PERIPH_OTGFS          RCC_AHB2ENR_OTGFSEN
 115:Drivers/STM32F2xx_HAL_Driver/Inc/stm32f2xx_ll_bus.h **** /**
 116:Drivers/STM32F2xx_HAL_Driver/Inc/stm32f2xx_ll_bus.h ****   * @}
 117:Drivers/STM32F2xx_HAL_Driver/Inc/stm32f2xx_ll_bus.h ****   */
 118:Drivers/STM32F2xx_HAL_Driver/Inc/stm32f2xx_ll_bus.h **** 
 119:Drivers/STM32F2xx_HAL_Driver/Inc/stm32f2xx_ll_bus.h **** /** @defgroup BUS_LL_EC_AHB3_GRP1_PERIPH  AHB3 GRP1 PERIPH
 120:Drivers/STM32F2xx_HAL_Driver/Inc/stm32f2xx_ll_bus.h ****   * @{
 121:Drivers/STM32F2xx_HAL_Driver/Inc/stm32f2xx_ll_bus.h ****   */
 122:Drivers/STM32F2xx_HAL_Driver/Inc/stm32f2xx_ll_bus.h **** #define LL_AHB3_GRP1_PERIPH_ALL            0xFFFFFFFFU
 123:Drivers/STM32F2xx_HAL_Driver/Inc/stm32f2xx_ll_bus.h **** #define LL_AHB3_GRP1_PERIPH_FSMC           RCC_AHB3ENR_FSMCEN
 124:Drivers/STM32F2xx_HAL_Driver/Inc/stm32f2xx_ll_bus.h **** /**
 125:Drivers/STM32F2xx_HAL_Driver/Inc/stm32f2xx_ll_bus.h ****   * @}
 126:Drivers/STM32F2xx_HAL_Driver/Inc/stm32f2xx_ll_bus.h ****   */
 127:Drivers/STM32F2xx_HAL_Driver/Inc/stm32f2xx_ll_bus.h **** 
 128:Drivers/STM32F2xx_HAL_Driver/Inc/stm32f2xx_ll_bus.h **** /** @defgroup BUS_LL_EC_APB1_GRP1_PERIPH  APB1 GRP1 PERIPH
 129:Drivers/STM32F2xx_HAL_Driver/Inc/stm32f2xx_ll_bus.h ****   * @{
 130:Drivers/STM32F2xx_HAL_Driver/Inc/stm32f2xx_ll_bus.h ****   */
 131:Drivers/STM32F2xx_HAL_Driver/Inc/stm32f2xx_ll_bus.h **** #define LL_APB1_GRP1_PERIPH_ALL            0xFFFFFFFFU
 132:Drivers/STM32F2xx_HAL_Driver/Inc/stm32f2xx_ll_bus.h **** #define LL_APB1_GRP1_PERIPH_TIM2           RCC_APB1ENR_TIM2EN
 133:Drivers/STM32F2xx_HAL_Driver/Inc/stm32f2xx_ll_bus.h **** #define LL_APB1_GRP1_PERIPH_TIM3           RCC_APB1ENR_TIM3EN
 134:Drivers/STM32F2xx_HAL_Driver/Inc/stm32f2xx_ll_bus.h **** #define LL_APB1_GRP1_PERIPH_TIM4           RCC_APB1ENR_TIM4EN
 135:Drivers/STM32F2xx_HAL_Driver/Inc/stm32f2xx_ll_bus.h **** #define LL_APB1_GRP1_PERIPH_TIM5           RCC_APB1ENR_TIM5EN
 136:Drivers/STM32F2xx_HAL_Driver/Inc/stm32f2xx_ll_bus.h **** #define LL_APB1_GRP1_PERIPH_TIM6           RCC_APB1ENR_TIM6EN
 137:Drivers/STM32F2xx_HAL_Driver/Inc/stm32f2xx_ll_bus.h **** #define LL_APB1_GRP1_PERIPH_TIM7           RCC_APB1ENR_TIM7EN
 138:Drivers/STM32F2xx_HAL_Driver/Inc/stm32f2xx_ll_bus.h **** #define LL_APB1_GRP1_PERIPH_TIM12          RCC_APB1ENR_TIM12EN
 139:Drivers/STM32F2xx_HAL_Driver/Inc/stm32f2xx_ll_bus.h **** #define LL_APB1_GRP1_PERIPH_TIM13          RCC_APB1ENR_TIM13EN
 140:Drivers/STM32F2xx_HAL_Driver/Inc/stm32f2xx_ll_bus.h **** #define LL_APB1_GRP1_PERIPH_TIM14          RCC_APB1ENR_TIM14EN
 141:Drivers/STM32F2xx_HAL_Driver/Inc/stm32f2xx_ll_bus.h **** #define LL_APB1_GRP1_PERIPH_WWDG           RCC_APB1ENR_WWDGEN
 142:Drivers/STM32F2xx_HAL_Driver/Inc/stm32f2xx_ll_bus.h **** #define LL_APB1_GRP1_PERIPH_SPI2           RCC_APB1ENR_SPI2EN
 143:Drivers/STM32F2xx_HAL_Driver/Inc/stm32f2xx_ll_bus.h **** #define LL_APB1_GRP1_PERIPH_SPI3           RCC_APB1ENR_SPI3EN
 144:Drivers/STM32F2xx_HAL_Driver/Inc/stm32f2xx_ll_bus.h **** #define LL_APB1_GRP1_PERIPH_USART2         RCC_APB1ENR_USART2EN
 145:Drivers/STM32F2xx_HAL_Driver/Inc/stm32f2xx_ll_bus.h **** #define LL_APB1_GRP1_PERIPH_USART3         RCC_APB1ENR_USART3EN
 146:Drivers/STM32F2xx_HAL_Driver/Inc/stm32f2xx_ll_bus.h **** #define LL_APB1_GRP1_PERIPH_UART4          RCC_APB1ENR_UART4EN
 147:Drivers/STM32F2xx_HAL_Driver/Inc/stm32f2xx_ll_bus.h **** #define LL_APB1_GRP1_PERIPH_UART5          RCC_APB1ENR_UART5EN
ARM GAS  C:\Users\Artem\AppData\Local\Temp\cc8fbasp.s 			page 7


 148:Drivers/STM32F2xx_HAL_Driver/Inc/stm32f2xx_ll_bus.h **** #define LL_APB1_GRP1_PERIPH_I2C1           RCC_APB1ENR_I2C1EN
 149:Drivers/STM32F2xx_HAL_Driver/Inc/stm32f2xx_ll_bus.h **** #define LL_APB1_GRP1_PERIPH_I2C2           RCC_APB1ENR_I2C2EN
 150:Drivers/STM32F2xx_HAL_Driver/Inc/stm32f2xx_ll_bus.h **** #define LL_APB1_GRP1_PERIPH_I2C3           RCC_APB1ENR_I2C3EN
 151:Drivers/STM32F2xx_HAL_Driver/Inc/stm32f2xx_ll_bus.h **** #define LL_APB1_GRP1_PERIPH_CAN1           RCC_APB1ENR_CAN1EN
 152:Drivers/STM32F2xx_HAL_Driver/Inc/stm32f2xx_ll_bus.h **** #define LL_APB1_GRP1_PERIPH_CAN2           RCC_APB1ENR_CAN2EN
 153:Drivers/STM32F2xx_HAL_Driver/Inc/stm32f2xx_ll_bus.h **** #define LL_APB1_GRP1_PERIPH_PWR            RCC_APB1ENR_PWREN
 154:Drivers/STM32F2xx_HAL_Driver/Inc/stm32f2xx_ll_bus.h **** #define LL_APB1_GRP1_PERIPH_DAC1           RCC_APB1ENR_DACEN
 155:Drivers/STM32F2xx_HAL_Driver/Inc/stm32f2xx_ll_bus.h **** /**
 156:Drivers/STM32F2xx_HAL_Driver/Inc/stm32f2xx_ll_bus.h ****   * @}
 157:Drivers/STM32F2xx_HAL_Driver/Inc/stm32f2xx_ll_bus.h ****   */
 158:Drivers/STM32F2xx_HAL_Driver/Inc/stm32f2xx_ll_bus.h **** 
 159:Drivers/STM32F2xx_HAL_Driver/Inc/stm32f2xx_ll_bus.h **** /** @defgroup BUS_LL_EC_APB2_GRP1_PERIPH  APB2 GRP1 PERIPH
 160:Drivers/STM32F2xx_HAL_Driver/Inc/stm32f2xx_ll_bus.h ****   * @{
 161:Drivers/STM32F2xx_HAL_Driver/Inc/stm32f2xx_ll_bus.h ****   */
 162:Drivers/STM32F2xx_HAL_Driver/Inc/stm32f2xx_ll_bus.h **** #define LL_APB2_GRP1_PERIPH_ALL            0xFFFFFFFFU
 163:Drivers/STM32F2xx_HAL_Driver/Inc/stm32f2xx_ll_bus.h **** #define LL_APB2_GRP1_PERIPH_TIM1           RCC_APB2ENR_TIM1EN
 164:Drivers/STM32F2xx_HAL_Driver/Inc/stm32f2xx_ll_bus.h **** #define LL_APB2_GRP1_PERIPH_TIM8           RCC_APB2ENR_TIM8EN
 165:Drivers/STM32F2xx_HAL_Driver/Inc/stm32f2xx_ll_bus.h **** #define LL_APB2_GRP1_PERIPH_USART1         RCC_APB2ENR_USART1EN
 166:Drivers/STM32F2xx_HAL_Driver/Inc/stm32f2xx_ll_bus.h **** #define LL_APB2_GRP1_PERIPH_USART6         RCC_APB2ENR_USART6EN
 167:Drivers/STM32F2xx_HAL_Driver/Inc/stm32f2xx_ll_bus.h **** #define LL_APB2_GRP1_PERIPH_ADC1           RCC_APB2ENR_ADC1EN
 168:Drivers/STM32F2xx_HAL_Driver/Inc/stm32f2xx_ll_bus.h **** #define LL_APB2_GRP1_PERIPH_ADC2           RCC_APB2ENR_ADC2EN
 169:Drivers/STM32F2xx_HAL_Driver/Inc/stm32f2xx_ll_bus.h **** #define LL_APB2_GRP1_PERIPH_ADC3           RCC_APB2ENR_ADC3EN
 170:Drivers/STM32F2xx_HAL_Driver/Inc/stm32f2xx_ll_bus.h **** #define LL_APB2_GRP1_PERIPH_SDIO           RCC_APB2ENR_SDIOEN
 171:Drivers/STM32F2xx_HAL_Driver/Inc/stm32f2xx_ll_bus.h **** #define LL_APB2_GRP1_PERIPH_SPI1           RCC_APB2ENR_SPI1EN
 172:Drivers/STM32F2xx_HAL_Driver/Inc/stm32f2xx_ll_bus.h **** #define LL_APB2_GRP1_PERIPH_SYSCFG         RCC_APB2ENR_SYSCFGEN
 173:Drivers/STM32F2xx_HAL_Driver/Inc/stm32f2xx_ll_bus.h **** #define LL_APB2_GRP1_PERIPH_TIM9           RCC_APB2ENR_TIM9EN
 174:Drivers/STM32F2xx_HAL_Driver/Inc/stm32f2xx_ll_bus.h **** #define LL_APB2_GRP1_PERIPH_TIM10          RCC_APB2ENR_TIM10EN
 175:Drivers/STM32F2xx_HAL_Driver/Inc/stm32f2xx_ll_bus.h **** #define LL_APB2_GRP1_PERIPH_TIM11          RCC_APB2ENR_TIM11EN
 176:Drivers/STM32F2xx_HAL_Driver/Inc/stm32f2xx_ll_bus.h **** #define LL_APB2_GRP1_PERIPH_ADC            RCC_APB2RSTR_ADCRST
 177:Drivers/STM32F2xx_HAL_Driver/Inc/stm32f2xx_ll_bus.h **** /**
 178:Drivers/STM32F2xx_HAL_Driver/Inc/stm32f2xx_ll_bus.h ****   * @}
 179:Drivers/STM32F2xx_HAL_Driver/Inc/stm32f2xx_ll_bus.h ****   */
 180:Drivers/STM32F2xx_HAL_Driver/Inc/stm32f2xx_ll_bus.h **** 
 181:Drivers/STM32F2xx_HAL_Driver/Inc/stm32f2xx_ll_bus.h **** /**
 182:Drivers/STM32F2xx_HAL_Driver/Inc/stm32f2xx_ll_bus.h ****   * @}
 183:Drivers/STM32F2xx_HAL_Driver/Inc/stm32f2xx_ll_bus.h ****   */
 184:Drivers/STM32F2xx_HAL_Driver/Inc/stm32f2xx_ll_bus.h **** 
 185:Drivers/STM32F2xx_HAL_Driver/Inc/stm32f2xx_ll_bus.h **** /* Exported macro ------------------------------------------------------------*/
 186:Drivers/STM32F2xx_HAL_Driver/Inc/stm32f2xx_ll_bus.h **** /* Exported functions --------------------------------------------------------*/
 187:Drivers/STM32F2xx_HAL_Driver/Inc/stm32f2xx_ll_bus.h **** /** @defgroup BUS_LL_Exported_Functions BUS Exported Functions
 188:Drivers/STM32F2xx_HAL_Driver/Inc/stm32f2xx_ll_bus.h ****   * @{
 189:Drivers/STM32F2xx_HAL_Driver/Inc/stm32f2xx_ll_bus.h ****   */
 190:Drivers/STM32F2xx_HAL_Driver/Inc/stm32f2xx_ll_bus.h **** 
 191:Drivers/STM32F2xx_HAL_Driver/Inc/stm32f2xx_ll_bus.h **** /** @defgroup BUS_LL_EF_AHB1 AHB1
 192:Drivers/STM32F2xx_HAL_Driver/Inc/stm32f2xx_ll_bus.h ****   * @{
 193:Drivers/STM32F2xx_HAL_Driver/Inc/stm32f2xx_ll_bus.h ****   */
 194:Drivers/STM32F2xx_HAL_Driver/Inc/stm32f2xx_ll_bus.h **** 
 195:Drivers/STM32F2xx_HAL_Driver/Inc/stm32f2xx_ll_bus.h **** /**
 196:Drivers/STM32F2xx_HAL_Driver/Inc/stm32f2xx_ll_bus.h ****   * @brief  Enable AHB1 peripherals clock.
 197:Drivers/STM32F2xx_HAL_Driver/Inc/stm32f2xx_ll_bus.h ****   * @rmtoll AHB1ENR      GPIOAEN            LL_AHB1_GRP1_EnableClock\n
 198:Drivers/STM32F2xx_HAL_Driver/Inc/stm32f2xx_ll_bus.h ****   *         AHB1ENR      GPIOBEN            LL_AHB1_GRP1_EnableClock\n
 199:Drivers/STM32F2xx_HAL_Driver/Inc/stm32f2xx_ll_bus.h ****   *         AHB1ENR      GPIOCEN            LL_AHB1_GRP1_EnableClock\n
 200:Drivers/STM32F2xx_HAL_Driver/Inc/stm32f2xx_ll_bus.h ****   *         AHB1ENR      GPIODEN            LL_AHB1_GRP1_EnableClock\n
 201:Drivers/STM32F2xx_HAL_Driver/Inc/stm32f2xx_ll_bus.h ****   *         AHB1ENR      GPIOEEN            LL_AHB1_GRP1_EnableClock\n
 202:Drivers/STM32F2xx_HAL_Driver/Inc/stm32f2xx_ll_bus.h ****   *         AHB1ENR      GPIOFEN            LL_AHB1_GRP1_EnableClock\n
 203:Drivers/STM32F2xx_HAL_Driver/Inc/stm32f2xx_ll_bus.h ****   *         AHB1ENR      GPIOGEN            LL_AHB1_GRP1_EnableClock\n
 204:Drivers/STM32F2xx_HAL_Driver/Inc/stm32f2xx_ll_bus.h ****   *         AHB1ENR      GPIOHEN            LL_AHB1_GRP1_EnableClock\n
ARM GAS  C:\Users\Artem\AppData\Local\Temp\cc8fbasp.s 			page 8


 205:Drivers/STM32F2xx_HAL_Driver/Inc/stm32f2xx_ll_bus.h ****   *         AHB1ENR      GPIOIEN            LL_AHB1_GRP1_EnableClock\n
 206:Drivers/STM32F2xx_HAL_Driver/Inc/stm32f2xx_ll_bus.h ****   *         AHB1ENR      CRCEN              LL_AHB1_GRP1_EnableClock\n
 207:Drivers/STM32F2xx_HAL_Driver/Inc/stm32f2xx_ll_bus.h ****   *         AHB1ENR      BKPSRAMEN          LL_AHB1_GRP1_EnableClock\n
 208:Drivers/STM32F2xx_HAL_Driver/Inc/stm32f2xx_ll_bus.h ****   *         AHB1ENR      DMA1EN             LL_AHB1_GRP1_EnableClock\n
 209:Drivers/STM32F2xx_HAL_Driver/Inc/stm32f2xx_ll_bus.h ****   *         AHB1ENR      DMA2EN             LL_AHB1_GRP1_EnableClock\n
 210:Drivers/STM32F2xx_HAL_Driver/Inc/stm32f2xx_ll_bus.h ****   *         AHB1ENR      ETHMACEN           LL_AHB1_GRP1_EnableClock\n
 211:Drivers/STM32F2xx_HAL_Driver/Inc/stm32f2xx_ll_bus.h ****   *         AHB1ENR      ETHMACTXEN         LL_AHB1_GRP1_EnableClock\n
 212:Drivers/STM32F2xx_HAL_Driver/Inc/stm32f2xx_ll_bus.h ****   *         AHB1ENR      ETHMACRXEN         LL_AHB1_GRP1_EnableClock\n
 213:Drivers/STM32F2xx_HAL_Driver/Inc/stm32f2xx_ll_bus.h ****   *         AHB1ENR      ETHMACPTPEN        LL_AHB1_GRP1_EnableClock\n
 214:Drivers/STM32F2xx_HAL_Driver/Inc/stm32f2xx_ll_bus.h ****   *         AHB1ENR      OTGHSEN            LL_AHB1_GRP1_EnableClock\n
 215:Drivers/STM32F2xx_HAL_Driver/Inc/stm32f2xx_ll_bus.h ****   *         AHB1ENR      OTGHSULPIEN        LL_AHB1_GRP1_EnableClock
 216:Drivers/STM32F2xx_HAL_Driver/Inc/stm32f2xx_ll_bus.h ****   * @param  Periphs This parameter can be a combination of the following values:
 217:Drivers/STM32F2xx_HAL_Driver/Inc/stm32f2xx_ll_bus.h ****   *         @arg @ref LL_AHB1_GRP1_PERIPH_GPIOA
 218:Drivers/STM32F2xx_HAL_Driver/Inc/stm32f2xx_ll_bus.h ****   *         @arg @ref LL_AHB1_GRP1_PERIPH_GPIOB
 219:Drivers/STM32F2xx_HAL_Driver/Inc/stm32f2xx_ll_bus.h ****   *         @arg @ref LL_AHB1_GRP1_PERIPH_GPIOC
 220:Drivers/STM32F2xx_HAL_Driver/Inc/stm32f2xx_ll_bus.h ****   *         @arg @ref LL_AHB1_GRP1_PERIPH_GPIOD
 221:Drivers/STM32F2xx_HAL_Driver/Inc/stm32f2xx_ll_bus.h ****   *         @arg @ref LL_AHB1_GRP1_PERIPH_GPIOE
 222:Drivers/STM32F2xx_HAL_Driver/Inc/stm32f2xx_ll_bus.h ****   *         @arg @ref LL_AHB1_GRP1_PERIPH_GPIOF
 223:Drivers/STM32F2xx_HAL_Driver/Inc/stm32f2xx_ll_bus.h ****   *         @arg @ref LL_AHB1_GRP1_PERIPH_GPIOG
 224:Drivers/STM32F2xx_HAL_Driver/Inc/stm32f2xx_ll_bus.h ****   *         @arg @ref LL_AHB1_GRP1_PERIPH_GPIOH
 225:Drivers/STM32F2xx_HAL_Driver/Inc/stm32f2xx_ll_bus.h ****   *         @arg @ref LL_AHB1_GRP1_PERIPH_GPIOI
 226:Drivers/STM32F2xx_HAL_Driver/Inc/stm32f2xx_ll_bus.h ****   *         @arg @ref LL_AHB1_GRP1_PERIPH_CRC
 227:Drivers/STM32F2xx_HAL_Driver/Inc/stm32f2xx_ll_bus.h ****   *         @arg @ref LL_AHB1_GRP1_PERIPH_BKPSRAM
 228:Drivers/STM32F2xx_HAL_Driver/Inc/stm32f2xx_ll_bus.h ****   *         @arg @ref LL_AHB1_GRP1_PERIPH_DMA1
 229:Drivers/STM32F2xx_HAL_Driver/Inc/stm32f2xx_ll_bus.h ****   *         @arg @ref LL_AHB1_GRP1_PERIPH_DMA2
 230:Drivers/STM32F2xx_HAL_Driver/Inc/stm32f2xx_ll_bus.h ****   *         @arg @ref LL_AHB1_GRP1_PERIPH_ETHMAC (*)
 231:Drivers/STM32F2xx_HAL_Driver/Inc/stm32f2xx_ll_bus.h ****   *         @arg @ref LL_AHB1_GRP1_PERIPH_ETHMACTX (*)
 232:Drivers/STM32F2xx_HAL_Driver/Inc/stm32f2xx_ll_bus.h ****   *         @arg @ref LL_AHB1_GRP1_PERIPH_ETHMACRX (*)
 233:Drivers/STM32F2xx_HAL_Driver/Inc/stm32f2xx_ll_bus.h ****   *         @arg @ref LL_AHB1_GRP1_PERIPH_ETHMACPTP (*)
 234:Drivers/STM32F2xx_HAL_Driver/Inc/stm32f2xx_ll_bus.h ****   *         @arg @ref LL_AHB1_GRP1_PERIPH_OTGHS
 235:Drivers/STM32F2xx_HAL_Driver/Inc/stm32f2xx_ll_bus.h ****   *         @arg @ref LL_AHB1_GRP1_PERIPH_OTGHSULPI
 236:Drivers/STM32F2xx_HAL_Driver/Inc/stm32f2xx_ll_bus.h ****   *
 237:Drivers/STM32F2xx_HAL_Driver/Inc/stm32f2xx_ll_bus.h ****   *         (*) value not defined in all devices.
 238:Drivers/STM32F2xx_HAL_Driver/Inc/stm32f2xx_ll_bus.h ****   * @retval None
 239:Drivers/STM32F2xx_HAL_Driver/Inc/stm32f2xx_ll_bus.h **** */
 240:Drivers/STM32F2xx_HAL_Driver/Inc/stm32f2xx_ll_bus.h **** __STATIC_INLINE void LL_AHB1_GRP1_EnableClock(uint32_t Periphs)
  39              		.loc 2 240 22 view .LVU2
  40              	.LBB35:
 241:Drivers/STM32F2xx_HAL_Driver/Inc/stm32f2xx_ll_bus.h **** {
 242:Drivers/STM32F2xx_HAL_Driver/Inc/stm32f2xx_ll_bus.h ****   __IO uint32_t tmpreg;
  41              		.loc 2 242 3 view .LVU3
 243:Drivers/STM32F2xx_HAL_Driver/Inc/stm32f2xx_ll_bus.h ****   SET_BIT(RCC->AHB1ENR, Periphs);
  42              		.loc 2 243 3 view .LVU4
  43 0002 0A4B     		ldr	r3, .L3
  44 0004 1A6B     		ldr	r2, [r3, #48]
  45 0006 42F08002 		orr	r2, r2, #128
  46 000a 1A63     		str	r2, [r3, #48]
 244:Drivers/STM32F2xx_HAL_Driver/Inc/stm32f2xx_ll_bus.h ****   /* Delay after an RCC peripheral clock enabling */
 245:Drivers/STM32F2xx_HAL_Driver/Inc/stm32f2xx_ll_bus.h ****   tmpreg = READ_BIT(RCC->AHB1ENR, Periphs);
  47              		.loc 2 245 3 view .LVU5
  48              		.loc 2 245 12 is_stmt 0 view .LVU6
  49 000c 1A6B     		ldr	r2, [r3, #48]
  50 000e 02F08002 		and	r2, r2, #128
  51              		.loc 2 245 10 view .LVU7
  52 0012 0192     		str	r2, [sp, #4]
 246:Drivers/STM32F2xx_HAL_Driver/Inc/stm32f2xx_ll_bus.h ****   (void)tmpreg;
  53              		.loc 2 246 3 is_stmt 1 view .LVU8
ARM GAS  C:\Users\Artem\AppData\Local\Temp\cc8fbasp.s 			page 9


  54 0014 019A     		ldr	r2, [sp, #4]
  55              	.LVL1:
  56              		.loc 2 246 3 is_stmt 0 view .LVU9
  57              	.LBE35:
  58              	.LBE34:
 159:Core/Src/main.c ****   LL_AHB1_GRP1_EnableClock(LL_AHB1_GRP1_PERIPH_GPIOA);
  59              		.loc 1 159 3 is_stmt 1 view .LVU10
  60              	.LBB36:
  61              	.LBI36:
 240:Drivers/STM32F2xx_HAL_Driver/Inc/stm32f2xx_ll_bus.h **** {
  62              		.loc 2 240 22 view .LVU11
  63              	.LBB37:
 242:Drivers/STM32F2xx_HAL_Driver/Inc/stm32f2xx_ll_bus.h ****   SET_BIT(RCC->AHB1ENR, Periphs);
  64              		.loc 2 242 3 view .LVU12
 243:Drivers/STM32F2xx_HAL_Driver/Inc/stm32f2xx_ll_bus.h ****   /* Delay after an RCC peripheral clock enabling */
  65              		.loc 2 243 3 view .LVU13
  66 0016 1A6B     		ldr	r2, [r3, #48]
  67 0018 42F00102 		orr	r2, r2, #1
  68 001c 1A63     		str	r2, [r3, #48]
 245:Drivers/STM32F2xx_HAL_Driver/Inc/stm32f2xx_ll_bus.h ****   (void)tmpreg;
  69              		.loc 2 245 3 view .LVU14
 245:Drivers/STM32F2xx_HAL_Driver/Inc/stm32f2xx_ll_bus.h ****   (void)tmpreg;
  70              		.loc 2 245 12 is_stmt 0 view .LVU15
  71 001e 1B6B     		ldr	r3, [r3, #48]
  72 0020 03F00103 		and	r3, r3, #1
 245:Drivers/STM32F2xx_HAL_Driver/Inc/stm32f2xx_ll_bus.h ****   (void)tmpreg;
  73              		.loc 2 245 10 view .LVU16
  74 0024 0093     		str	r3, [sp]
  75              		.loc 2 246 3 is_stmt 1 view .LVU17
  76 0026 009B     		ldr	r3, [sp]
  77              	.LVL2:
  78              		.loc 2 246 3 is_stmt 0 view .LVU18
  79              	.LBE37:
  80              	.LBE36:
 160:Core/Src/main.c **** 
 161:Core/Src/main.c **** }
  81              		.loc 1 161 1 view .LVU19
  82 0028 02B0     		add	sp, sp, #8
  83              	.LCFI1:
  84              		.cfi_def_cfa_offset 0
  85              		@ sp needed
  86 002a 7047     		bx	lr
  87              	.L4:
  88              		.align	2
  89              	.L3:
  90 002c 00380240 		.word	1073887232
  91              		.cfi_endproc
  92              	.LFE491:
  94              		.section	.text.Error_Handler,"ax",%progbits
  95              		.align	1
  96              		.global	Error_Handler
  97              		.syntax unified
  98              		.thumb
  99              		.thumb_func
 101              	Error_Handler:
 102              	.LFB492:
 162:Core/Src/main.c **** 
ARM GAS  C:\Users\Artem\AppData\Local\Temp\cc8fbasp.s 			page 10


 163:Core/Src/main.c **** /* USER CODE BEGIN 4 */
 164:Core/Src/main.c **** 
 165:Core/Src/main.c **** /* USER CODE END 4 */
 166:Core/Src/main.c **** 
 167:Core/Src/main.c **** /**
 168:Core/Src/main.c ****   * @brief  This function is executed in case of error occurrence.
 169:Core/Src/main.c ****   * @retval None
 170:Core/Src/main.c ****   */
 171:Core/Src/main.c **** void Error_Handler(void)
 172:Core/Src/main.c **** {
 103              		.loc 1 172 1 is_stmt 1 view -0
 104              		.cfi_startproc
 105              		@ Volatile: function does not return.
 106              		@ args = 0, pretend = 0, frame = 0
 107              		@ frame_needed = 0, uses_anonymous_args = 0
 108              		@ link register save eliminated.
 173:Core/Src/main.c ****   /* USER CODE BEGIN Error_Handler_Debug */
 174:Core/Src/main.c ****   /* User can add his own implementation to report the HAL error return state */
 175:Core/Src/main.c ****   __disable_irq();
 109              		.loc 1 175 3 view .LVU21
 110              	.LBB38:
 111              	.LBI38:
 112              		.file 3 "Drivers/CMSIS/Include/cmsis_gcc.h"
   1:Drivers/CMSIS/Include/cmsis_gcc.h **** /**************************************************************************//**
   2:Drivers/CMSIS/Include/cmsis_gcc.h ****  * @file     cmsis_gcc.h
   3:Drivers/CMSIS/Include/cmsis_gcc.h ****  * @brief    CMSIS compiler GCC header file
   4:Drivers/CMSIS/Include/cmsis_gcc.h ****  * @version  V5.0.4
   5:Drivers/CMSIS/Include/cmsis_gcc.h ****  * @date     09. April 2018
   6:Drivers/CMSIS/Include/cmsis_gcc.h ****  ******************************************************************************/
   7:Drivers/CMSIS/Include/cmsis_gcc.h **** /*
   8:Drivers/CMSIS/Include/cmsis_gcc.h ****  * Copyright (c) 2009-2018 Arm Limited. All rights reserved.
   9:Drivers/CMSIS/Include/cmsis_gcc.h ****  *
  10:Drivers/CMSIS/Include/cmsis_gcc.h ****  * SPDX-License-Identifier: Apache-2.0
  11:Drivers/CMSIS/Include/cmsis_gcc.h ****  *
  12:Drivers/CMSIS/Include/cmsis_gcc.h ****  * Licensed under the Apache License, Version 2.0 (the License); you may
  13:Drivers/CMSIS/Include/cmsis_gcc.h ****  * not use this file except in compliance with the License.
  14:Drivers/CMSIS/Include/cmsis_gcc.h ****  * You may obtain a copy of the License at
  15:Drivers/CMSIS/Include/cmsis_gcc.h ****  *
  16:Drivers/CMSIS/Include/cmsis_gcc.h ****  * www.apache.org/licenses/LICENSE-2.0
  17:Drivers/CMSIS/Include/cmsis_gcc.h ****  *
  18:Drivers/CMSIS/Include/cmsis_gcc.h ****  * Unless required by applicable law or agreed to in writing, software
  19:Drivers/CMSIS/Include/cmsis_gcc.h ****  * distributed under the License is distributed on an AS IS BASIS, WITHOUT
  20:Drivers/CMSIS/Include/cmsis_gcc.h ****  * WARRANTIES OR CONDITIONS OF ANY KIND, either express or implied.
  21:Drivers/CMSIS/Include/cmsis_gcc.h ****  * See the License for the specific language governing permissions and
  22:Drivers/CMSIS/Include/cmsis_gcc.h ****  * limitations under the License.
  23:Drivers/CMSIS/Include/cmsis_gcc.h ****  */
  24:Drivers/CMSIS/Include/cmsis_gcc.h **** 
  25:Drivers/CMSIS/Include/cmsis_gcc.h **** #ifndef __CMSIS_GCC_H
  26:Drivers/CMSIS/Include/cmsis_gcc.h **** #define __CMSIS_GCC_H
  27:Drivers/CMSIS/Include/cmsis_gcc.h **** 
  28:Drivers/CMSIS/Include/cmsis_gcc.h **** /* ignore some GCC warnings */
  29:Drivers/CMSIS/Include/cmsis_gcc.h **** #pragma GCC diagnostic push
  30:Drivers/CMSIS/Include/cmsis_gcc.h **** #pragma GCC diagnostic ignored "-Wsign-conversion"
  31:Drivers/CMSIS/Include/cmsis_gcc.h **** #pragma GCC diagnostic ignored "-Wconversion"
  32:Drivers/CMSIS/Include/cmsis_gcc.h **** #pragma GCC diagnostic ignored "-Wunused-parameter"
  33:Drivers/CMSIS/Include/cmsis_gcc.h **** 
  34:Drivers/CMSIS/Include/cmsis_gcc.h **** /* Fallback for __has_builtin */
ARM GAS  C:\Users\Artem\AppData\Local\Temp\cc8fbasp.s 			page 11


  35:Drivers/CMSIS/Include/cmsis_gcc.h **** #ifndef __has_builtin
  36:Drivers/CMSIS/Include/cmsis_gcc.h ****   #define __has_builtin(x) (0)
  37:Drivers/CMSIS/Include/cmsis_gcc.h **** #endif
  38:Drivers/CMSIS/Include/cmsis_gcc.h **** 
  39:Drivers/CMSIS/Include/cmsis_gcc.h **** /* CMSIS compiler specific defines */
  40:Drivers/CMSIS/Include/cmsis_gcc.h **** #ifndef   __ASM
  41:Drivers/CMSIS/Include/cmsis_gcc.h ****   #define __ASM                                  __asm
  42:Drivers/CMSIS/Include/cmsis_gcc.h **** #endif
  43:Drivers/CMSIS/Include/cmsis_gcc.h **** #ifndef   __INLINE
  44:Drivers/CMSIS/Include/cmsis_gcc.h ****   #define __INLINE                               inline
  45:Drivers/CMSIS/Include/cmsis_gcc.h **** #endif
  46:Drivers/CMSIS/Include/cmsis_gcc.h **** #ifndef   __STATIC_INLINE
  47:Drivers/CMSIS/Include/cmsis_gcc.h ****   #define __STATIC_INLINE                        static inline
  48:Drivers/CMSIS/Include/cmsis_gcc.h **** #endif
  49:Drivers/CMSIS/Include/cmsis_gcc.h **** #ifndef   __STATIC_FORCEINLINE                 
  50:Drivers/CMSIS/Include/cmsis_gcc.h ****   #define __STATIC_FORCEINLINE                   __attribute__((always_inline)) static inline
  51:Drivers/CMSIS/Include/cmsis_gcc.h **** #endif                                           
  52:Drivers/CMSIS/Include/cmsis_gcc.h **** #ifndef   __NO_RETURN
  53:Drivers/CMSIS/Include/cmsis_gcc.h ****   #define __NO_RETURN                            __attribute__((__noreturn__))
  54:Drivers/CMSIS/Include/cmsis_gcc.h **** #endif
  55:Drivers/CMSIS/Include/cmsis_gcc.h **** #ifndef   __USED
  56:Drivers/CMSIS/Include/cmsis_gcc.h ****   #define __USED                                 __attribute__((used))
  57:Drivers/CMSIS/Include/cmsis_gcc.h **** #endif
  58:Drivers/CMSIS/Include/cmsis_gcc.h **** #ifndef   __WEAK
  59:Drivers/CMSIS/Include/cmsis_gcc.h ****   #define __WEAK                                 __attribute__((weak))
  60:Drivers/CMSIS/Include/cmsis_gcc.h **** #endif
  61:Drivers/CMSIS/Include/cmsis_gcc.h **** #ifndef   __PACKED
  62:Drivers/CMSIS/Include/cmsis_gcc.h ****   #define __PACKED                               __attribute__((packed, aligned(1)))
  63:Drivers/CMSIS/Include/cmsis_gcc.h **** #endif
  64:Drivers/CMSIS/Include/cmsis_gcc.h **** #ifndef   __PACKED_STRUCT
  65:Drivers/CMSIS/Include/cmsis_gcc.h ****   #define __PACKED_STRUCT                        struct __attribute__((packed, aligned(1)))
  66:Drivers/CMSIS/Include/cmsis_gcc.h **** #endif
  67:Drivers/CMSIS/Include/cmsis_gcc.h **** #ifndef   __PACKED_UNION
  68:Drivers/CMSIS/Include/cmsis_gcc.h ****   #define __PACKED_UNION                         union __attribute__((packed, aligned(1)))
  69:Drivers/CMSIS/Include/cmsis_gcc.h **** #endif
  70:Drivers/CMSIS/Include/cmsis_gcc.h **** #ifndef   __UNALIGNED_UINT32        /* deprecated */
  71:Drivers/CMSIS/Include/cmsis_gcc.h ****   #pragma GCC diagnostic push
  72:Drivers/CMSIS/Include/cmsis_gcc.h ****   #pragma GCC diagnostic ignored "-Wpacked"
  73:Drivers/CMSIS/Include/cmsis_gcc.h ****   #pragma GCC diagnostic ignored "-Wattributes"
  74:Drivers/CMSIS/Include/cmsis_gcc.h ****   struct __attribute__((packed)) T_UINT32 { uint32_t v; };
  75:Drivers/CMSIS/Include/cmsis_gcc.h ****   #pragma GCC diagnostic pop
  76:Drivers/CMSIS/Include/cmsis_gcc.h ****   #define __UNALIGNED_UINT32(x)                  (((struct T_UINT32 *)(x))->v)
  77:Drivers/CMSIS/Include/cmsis_gcc.h **** #endif
  78:Drivers/CMSIS/Include/cmsis_gcc.h **** #ifndef   __UNALIGNED_UINT16_WRITE
  79:Drivers/CMSIS/Include/cmsis_gcc.h ****   #pragma GCC diagnostic push
  80:Drivers/CMSIS/Include/cmsis_gcc.h ****   #pragma GCC diagnostic ignored "-Wpacked"
  81:Drivers/CMSIS/Include/cmsis_gcc.h ****   #pragma GCC diagnostic ignored "-Wattributes"
  82:Drivers/CMSIS/Include/cmsis_gcc.h ****   __PACKED_STRUCT T_UINT16_WRITE { uint16_t v; };
  83:Drivers/CMSIS/Include/cmsis_gcc.h ****   #pragma GCC diagnostic pop
  84:Drivers/CMSIS/Include/cmsis_gcc.h ****   #define __UNALIGNED_UINT16_WRITE(addr, val)    (void)((((struct T_UINT16_WRITE *)(void *)(addr))-
  85:Drivers/CMSIS/Include/cmsis_gcc.h **** #endif
  86:Drivers/CMSIS/Include/cmsis_gcc.h **** #ifndef   __UNALIGNED_UINT16_READ
  87:Drivers/CMSIS/Include/cmsis_gcc.h ****   #pragma GCC diagnostic push
  88:Drivers/CMSIS/Include/cmsis_gcc.h ****   #pragma GCC diagnostic ignored "-Wpacked"
  89:Drivers/CMSIS/Include/cmsis_gcc.h ****   #pragma GCC diagnostic ignored "-Wattributes"
  90:Drivers/CMSIS/Include/cmsis_gcc.h ****   __PACKED_STRUCT T_UINT16_READ { uint16_t v; };
  91:Drivers/CMSIS/Include/cmsis_gcc.h ****   #pragma GCC diagnostic pop
ARM GAS  C:\Users\Artem\AppData\Local\Temp\cc8fbasp.s 			page 12


  92:Drivers/CMSIS/Include/cmsis_gcc.h ****   #define __UNALIGNED_UINT16_READ(addr)          (((const struct T_UINT16_READ *)(const void *)(add
  93:Drivers/CMSIS/Include/cmsis_gcc.h **** #endif
  94:Drivers/CMSIS/Include/cmsis_gcc.h **** #ifndef   __UNALIGNED_UINT32_WRITE
  95:Drivers/CMSIS/Include/cmsis_gcc.h ****   #pragma GCC diagnostic push
  96:Drivers/CMSIS/Include/cmsis_gcc.h ****   #pragma GCC diagnostic ignored "-Wpacked"
  97:Drivers/CMSIS/Include/cmsis_gcc.h ****   #pragma GCC diagnostic ignored "-Wattributes"
  98:Drivers/CMSIS/Include/cmsis_gcc.h ****   __PACKED_STRUCT T_UINT32_WRITE { uint32_t v; };
  99:Drivers/CMSIS/Include/cmsis_gcc.h ****   #pragma GCC diagnostic pop
 100:Drivers/CMSIS/Include/cmsis_gcc.h ****   #define __UNALIGNED_UINT32_WRITE(addr, val)    (void)((((struct T_UINT32_WRITE *)(void *)(addr))-
 101:Drivers/CMSIS/Include/cmsis_gcc.h **** #endif
 102:Drivers/CMSIS/Include/cmsis_gcc.h **** #ifndef   __UNALIGNED_UINT32_READ
 103:Drivers/CMSIS/Include/cmsis_gcc.h ****   #pragma GCC diagnostic push
 104:Drivers/CMSIS/Include/cmsis_gcc.h ****   #pragma GCC diagnostic ignored "-Wpacked"
 105:Drivers/CMSIS/Include/cmsis_gcc.h ****   #pragma GCC diagnostic ignored "-Wattributes"
 106:Drivers/CMSIS/Include/cmsis_gcc.h ****   __PACKED_STRUCT T_UINT32_READ { uint32_t v; };
 107:Drivers/CMSIS/Include/cmsis_gcc.h ****   #pragma GCC diagnostic pop
 108:Drivers/CMSIS/Include/cmsis_gcc.h ****   #define __UNALIGNED_UINT32_READ(addr)          (((const struct T_UINT32_READ *)(const void *)(add
 109:Drivers/CMSIS/Include/cmsis_gcc.h **** #endif
 110:Drivers/CMSIS/Include/cmsis_gcc.h **** #ifndef   __ALIGNED
 111:Drivers/CMSIS/Include/cmsis_gcc.h ****   #define __ALIGNED(x)                           __attribute__((aligned(x)))
 112:Drivers/CMSIS/Include/cmsis_gcc.h **** #endif
 113:Drivers/CMSIS/Include/cmsis_gcc.h **** #ifndef   __RESTRICT
 114:Drivers/CMSIS/Include/cmsis_gcc.h ****   #define __RESTRICT                             __restrict
 115:Drivers/CMSIS/Include/cmsis_gcc.h **** #endif
 116:Drivers/CMSIS/Include/cmsis_gcc.h **** 
 117:Drivers/CMSIS/Include/cmsis_gcc.h **** 
 118:Drivers/CMSIS/Include/cmsis_gcc.h **** /* ###########################  Core Function Access  ########################### */
 119:Drivers/CMSIS/Include/cmsis_gcc.h **** /** \ingroup  CMSIS_Core_FunctionInterface
 120:Drivers/CMSIS/Include/cmsis_gcc.h ****     \defgroup CMSIS_Core_RegAccFunctions CMSIS Core Register Access Functions
 121:Drivers/CMSIS/Include/cmsis_gcc.h ****   @{
 122:Drivers/CMSIS/Include/cmsis_gcc.h ****  */
 123:Drivers/CMSIS/Include/cmsis_gcc.h **** 
 124:Drivers/CMSIS/Include/cmsis_gcc.h **** /**
 125:Drivers/CMSIS/Include/cmsis_gcc.h ****   \brief   Enable IRQ Interrupts
 126:Drivers/CMSIS/Include/cmsis_gcc.h ****   \details Enables IRQ interrupts by clearing the I-bit in the CPSR.
 127:Drivers/CMSIS/Include/cmsis_gcc.h ****            Can only be executed in Privileged modes.
 128:Drivers/CMSIS/Include/cmsis_gcc.h ****  */
 129:Drivers/CMSIS/Include/cmsis_gcc.h **** __STATIC_FORCEINLINE void __enable_irq(void)
 130:Drivers/CMSIS/Include/cmsis_gcc.h **** {
 131:Drivers/CMSIS/Include/cmsis_gcc.h ****   __ASM volatile ("cpsie i" : : : "memory");
 132:Drivers/CMSIS/Include/cmsis_gcc.h **** }
 133:Drivers/CMSIS/Include/cmsis_gcc.h **** 
 134:Drivers/CMSIS/Include/cmsis_gcc.h **** 
 135:Drivers/CMSIS/Include/cmsis_gcc.h **** /**
 136:Drivers/CMSIS/Include/cmsis_gcc.h ****   \brief   Disable IRQ Interrupts
 137:Drivers/CMSIS/Include/cmsis_gcc.h ****   \details Disables IRQ interrupts by setting the I-bit in the CPSR.
 138:Drivers/CMSIS/Include/cmsis_gcc.h ****            Can only be executed in Privileged modes.
 139:Drivers/CMSIS/Include/cmsis_gcc.h ****  */
 140:Drivers/CMSIS/Include/cmsis_gcc.h **** __STATIC_FORCEINLINE void __disable_irq(void)
 113              		.loc 3 140 27 view .LVU22
 114              	.LBB39:
 141:Drivers/CMSIS/Include/cmsis_gcc.h **** {
 142:Drivers/CMSIS/Include/cmsis_gcc.h ****   __ASM volatile ("cpsid i" : : : "memory");
 115              		.loc 3 142 3 view .LVU23
 116              		.syntax unified
 117              	@ 142 "Drivers/CMSIS/Include/cmsis_gcc.h" 1
 118 0000 72B6     		cpsid i
ARM GAS  C:\Users\Artem\AppData\Local\Temp\cc8fbasp.s 			page 13


 119              	@ 0 "" 2
 120              		.thumb
 121              		.syntax unified
 122              	.L6:
 123              	.LBE39:
 124              	.LBE38:
 176:Core/Src/main.c ****   while (1)
 125              		.loc 1 176 3 discriminator 1 view .LVU24
 177:Core/Src/main.c ****   {
 178:Core/Src/main.c ****   }
 126              		.loc 1 178 3 discriminator 1 view .LVU25
 176:Core/Src/main.c ****   while (1)
 127              		.loc 1 176 9 discriminator 1 view .LVU26
 128 0002 FEE7     		b	.L6
 129              		.cfi_endproc
 130              	.LFE492:
 132              		.section	.text.SystemClock_Config,"ax",%progbits
 133              		.align	1
 134              		.global	SystemClock_Config
 135              		.syntax unified
 136              		.thumb
 137              		.thumb_func
 139              	SystemClock_Config:
 140              	.LFB490:
 109:Core/Src/main.c ****   LL_FLASH_SetLatency(LL_FLASH_LATENCY_3);
 141              		.loc 1 109 1 view -0
 142              		.cfi_startproc
 143              		@ args = 0, pretend = 0, frame = 0
 144              		@ frame_needed = 0, uses_anonymous_args = 0
 145 0000 08B5     		push	{r3, lr}
 146              	.LCFI2:
 147              		.cfi_def_cfa_offset 8
 148              		.cfi_offset 3, -8
 149              		.cfi_offset 14, -4
 110:Core/Src/main.c ****   while(LL_FLASH_GetLatency()!= LL_FLASH_LATENCY_3)
 150              		.loc 1 110 3 view .LVU28
 151              	.LVL3:
 152              	.LBB40:
 153              	.LBI40:
 154              		.file 4 "Drivers/STM32F2xx_HAL_Driver/Inc/stm32f2xx_ll_system.h"
   1:Drivers/STM32F2xx_HAL_Driver/Inc/stm32f2xx_ll_system.h **** /**
   2:Drivers/STM32F2xx_HAL_Driver/Inc/stm32f2xx_ll_system.h ****   ******************************************************************************
   3:Drivers/STM32F2xx_HAL_Driver/Inc/stm32f2xx_ll_system.h ****   * @file    stm32f2xx_ll_system.h
   4:Drivers/STM32F2xx_HAL_Driver/Inc/stm32f2xx_ll_system.h ****   * @author  MCD Application Team
   5:Drivers/STM32F2xx_HAL_Driver/Inc/stm32f2xx_ll_system.h ****   * @brief   Header file of SYSTEM LL module.
   6:Drivers/STM32F2xx_HAL_Driver/Inc/stm32f2xx_ll_system.h ****   @verbatim
   7:Drivers/STM32F2xx_HAL_Driver/Inc/stm32f2xx_ll_system.h ****   ==============================================================================
   8:Drivers/STM32F2xx_HAL_Driver/Inc/stm32f2xx_ll_system.h ****                      ##### How to use this driver #####
   9:Drivers/STM32F2xx_HAL_Driver/Inc/stm32f2xx_ll_system.h ****   ==============================================================================
  10:Drivers/STM32F2xx_HAL_Driver/Inc/stm32f2xx_ll_system.h ****     [..]
  11:Drivers/STM32F2xx_HAL_Driver/Inc/stm32f2xx_ll_system.h ****     The LL SYSTEM driver contains a set of generic APIs that can be
  12:Drivers/STM32F2xx_HAL_Driver/Inc/stm32f2xx_ll_system.h ****     used by user:
  13:Drivers/STM32F2xx_HAL_Driver/Inc/stm32f2xx_ll_system.h ****       (+) Some of the FLASH features need to be handled in the SYSTEM file.
  14:Drivers/STM32F2xx_HAL_Driver/Inc/stm32f2xx_ll_system.h ****       (+) Access to DBGCMU registers
  15:Drivers/STM32F2xx_HAL_Driver/Inc/stm32f2xx_ll_system.h ****       (+) Access to SYSCFG registers
  16:Drivers/STM32F2xx_HAL_Driver/Inc/stm32f2xx_ll_system.h **** 
  17:Drivers/STM32F2xx_HAL_Driver/Inc/stm32f2xx_ll_system.h ****   @endverbatim
ARM GAS  C:\Users\Artem\AppData\Local\Temp\cc8fbasp.s 			page 14


  18:Drivers/STM32F2xx_HAL_Driver/Inc/stm32f2xx_ll_system.h ****   ******************************************************************************
  19:Drivers/STM32F2xx_HAL_Driver/Inc/stm32f2xx_ll_system.h ****   * @attention
  20:Drivers/STM32F2xx_HAL_Driver/Inc/stm32f2xx_ll_system.h ****   *
  21:Drivers/STM32F2xx_HAL_Driver/Inc/stm32f2xx_ll_system.h ****   * <h2><center>&copy; Copyright (c) 2016 STMicroelectronics.
  22:Drivers/STM32F2xx_HAL_Driver/Inc/stm32f2xx_ll_system.h ****   * All rights reserved.</center></h2>
  23:Drivers/STM32F2xx_HAL_Driver/Inc/stm32f2xx_ll_system.h ****   *
  24:Drivers/STM32F2xx_HAL_Driver/Inc/stm32f2xx_ll_system.h ****   * This software component is licensed by ST under BSD 3-Clause license,
  25:Drivers/STM32F2xx_HAL_Driver/Inc/stm32f2xx_ll_system.h ****   * the "License"; You may not use this file except in compliance with the
  26:Drivers/STM32F2xx_HAL_Driver/Inc/stm32f2xx_ll_system.h ****   * License. You may obtain a copy of the License at:
  27:Drivers/STM32F2xx_HAL_Driver/Inc/stm32f2xx_ll_system.h ****   *                        opensource.org/licenses/BSD-3-Clause
  28:Drivers/STM32F2xx_HAL_Driver/Inc/stm32f2xx_ll_system.h ****   *
  29:Drivers/STM32F2xx_HAL_Driver/Inc/stm32f2xx_ll_system.h ****   ******************************************************************************
  30:Drivers/STM32F2xx_HAL_Driver/Inc/stm32f2xx_ll_system.h ****   */
  31:Drivers/STM32F2xx_HAL_Driver/Inc/stm32f2xx_ll_system.h **** 
  32:Drivers/STM32F2xx_HAL_Driver/Inc/stm32f2xx_ll_system.h **** /* Define to prevent recursive inclusion -------------------------------------*/
  33:Drivers/STM32F2xx_HAL_Driver/Inc/stm32f2xx_ll_system.h **** #ifndef __STM32F2xx_LL_SYSTEM_H
  34:Drivers/STM32F2xx_HAL_Driver/Inc/stm32f2xx_ll_system.h **** #define __STM32F2xx_LL_SYSTEM_H
  35:Drivers/STM32F2xx_HAL_Driver/Inc/stm32f2xx_ll_system.h **** 
  36:Drivers/STM32F2xx_HAL_Driver/Inc/stm32f2xx_ll_system.h **** #ifdef __cplusplus
  37:Drivers/STM32F2xx_HAL_Driver/Inc/stm32f2xx_ll_system.h **** extern "C" {
  38:Drivers/STM32F2xx_HAL_Driver/Inc/stm32f2xx_ll_system.h **** #endif
  39:Drivers/STM32F2xx_HAL_Driver/Inc/stm32f2xx_ll_system.h **** 
  40:Drivers/STM32F2xx_HAL_Driver/Inc/stm32f2xx_ll_system.h **** /* Includes ------------------------------------------------------------------*/
  41:Drivers/STM32F2xx_HAL_Driver/Inc/stm32f2xx_ll_system.h **** #include "stm32f2xx.h"
  42:Drivers/STM32F2xx_HAL_Driver/Inc/stm32f2xx_ll_system.h **** 
  43:Drivers/STM32F2xx_HAL_Driver/Inc/stm32f2xx_ll_system.h **** /** @addtogroup STM32F2xx_LL_Driver
  44:Drivers/STM32F2xx_HAL_Driver/Inc/stm32f2xx_ll_system.h ****   * @{
  45:Drivers/STM32F2xx_HAL_Driver/Inc/stm32f2xx_ll_system.h ****   */
  46:Drivers/STM32F2xx_HAL_Driver/Inc/stm32f2xx_ll_system.h **** 
  47:Drivers/STM32F2xx_HAL_Driver/Inc/stm32f2xx_ll_system.h **** #if defined (FLASH) || defined (SYSCFG) || defined (DBGMCU)
  48:Drivers/STM32F2xx_HAL_Driver/Inc/stm32f2xx_ll_system.h **** 
  49:Drivers/STM32F2xx_HAL_Driver/Inc/stm32f2xx_ll_system.h **** /** @defgroup SYSTEM_LL SYSTEM
  50:Drivers/STM32F2xx_HAL_Driver/Inc/stm32f2xx_ll_system.h ****   * @{
  51:Drivers/STM32F2xx_HAL_Driver/Inc/stm32f2xx_ll_system.h ****   */
  52:Drivers/STM32F2xx_HAL_Driver/Inc/stm32f2xx_ll_system.h **** 
  53:Drivers/STM32F2xx_HAL_Driver/Inc/stm32f2xx_ll_system.h **** /* Private types -------------------------------------------------------------*/
  54:Drivers/STM32F2xx_HAL_Driver/Inc/stm32f2xx_ll_system.h **** /* Private variables ---------------------------------------------------------*/
  55:Drivers/STM32F2xx_HAL_Driver/Inc/stm32f2xx_ll_system.h **** 
  56:Drivers/STM32F2xx_HAL_Driver/Inc/stm32f2xx_ll_system.h **** /* Private constants ---------------------------------------------------------*/
  57:Drivers/STM32F2xx_HAL_Driver/Inc/stm32f2xx_ll_system.h **** /** @defgroup SYSTEM_LL_Private_Constants SYSTEM Private Constants
  58:Drivers/STM32F2xx_HAL_Driver/Inc/stm32f2xx_ll_system.h ****   * @{
  59:Drivers/STM32F2xx_HAL_Driver/Inc/stm32f2xx_ll_system.h ****   */
  60:Drivers/STM32F2xx_HAL_Driver/Inc/stm32f2xx_ll_system.h **** 
  61:Drivers/STM32F2xx_HAL_Driver/Inc/stm32f2xx_ll_system.h **** /**
  62:Drivers/STM32F2xx_HAL_Driver/Inc/stm32f2xx_ll_system.h ****   * @}
  63:Drivers/STM32F2xx_HAL_Driver/Inc/stm32f2xx_ll_system.h ****   */
  64:Drivers/STM32F2xx_HAL_Driver/Inc/stm32f2xx_ll_system.h **** 
  65:Drivers/STM32F2xx_HAL_Driver/Inc/stm32f2xx_ll_system.h **** /* Private macros ------------------------------------------------------------*/
  66:Drivers/STM32F2xx_HAL_Driver/Inc/stm32f2xx_ll_system.h **** /* Exported types ------------------------------------------------------------*/
  67:Drivers/STM32F2xx_HAL_Driver/Inc/stm32f2xx_ll_system.h **** /* Exported constants --------------------------------------------------------*/
  68:Drivers/STM32F2xx_HAL_Driver/Inc/stm32f2xx_ll_system.h **** /** @defgroup SYSTEM_LL_Exported_Constants SYSTEM Exported Constants
  69:Drivers/STM32F2xx_HAL_Driver/Inc/stm32f2xx_ll_system.h ****   * @{
  70:Drivers/STM32F2xx_HAL_Driver/Inc/stm32f2xx_ll_system.h ****   */
  71:Drivers/STM32F2xx_HAL_Driver/Inc/stm32f2xx_ll_system.h **** 
  72:Drivers/STM32F2xx_HAL_Driver/Inc/stm32f2xx_ll_system.h **** /** @defgroup SYSTEM_LL_EC_REMAP SYSCFG REMAP
  73:Drivers/STM32F2xx_HAL_Driver/Inc/stm32f2xx_ll_system.h ****   * @{
  74:Drivers/STM32F2xx_HAL_Driver/Inc/stm32f2xx_ll_system.h ****   */
ARM GAS  C:\Users\Artem\AppData\Local\Temp\cc8fbasp.s 			page 15


  75:Drivers/STM32F2xx_HAL_Driver/Inc/stm32f2xx_ll_system.h **** #define LL_SYSCFG_REMAP_FLASH              (uint32_t)0x00000000                                  /*
  76:Drivers/STM32F2xx_HAL_Driver/Inc/stm32f2xx_ll_system.h **** #define LL_SYSCFG_REMAP_SYSTEMFLASH        SYSCFG_MEMRMP_MEM_MODE_0                              /*
  77:Drivers/STM32F2xx_HAL_Driver/Inc/stm32f2xx_ll_system.h **** #define LL_SYSCFG_REMAP_FSMC               SYSCFG_MEMRMP_MEM_MODE_1                              /*
  78:Drivers/STM32F2xx_HAL_Driver/Inc/stm32f2xx_ll_system.h **** #define LL_SYSCFG_REMAP_SRAM               (SYSCFG_MEMRMP_MEM_MODE_1 | SYSCFG_MEMRMP_MEM_MODE_0) /*
  79:Drivers/STM32F2xx_HAL_Driver/Inc/stm32f2xx_ll_system.h **** /**
  80:Drivers/STM32F2xx_HAL_Driver/Inc/stm32f2xx_ll_system.h ****   * @}
  81:Drivers/STM32F2xx_HAL_Driver/Inc/stm32f2xx_ll_system.h ****   */
  82:Drivers/STM32F2xx_HAL_Driver/Inc/stm32f2xx_ll_system.h **** 
  83:Drivers/STM32F2xx_HAL_Driver/Inc/stm32f2xx_ll_system.h **** #if defined(SYSCFG_PMC_MII_RMII_SEL)
  84:Drivers/STM32F2xx_HAL_Driver/Inc/stm32f2xx_ll_system.h **** /** @defgroup SYSTEM_LL_EC_PMC SYSCFG PMC
  85:Drivers/STM32F2xx_HAL_Driver/Inc/stm32f2xx_ll_system.h ****   * @{
  86:Drivers/STM32F2xx_HAL_Driver/Inc/stm32f2xx_ll_system.h ****   */
  87:Drivers/STM32F2xx_HAL_Driver/Inc/stm32f2xx_ll_system.h **** #define LL_SYSCFG_PMC_ETHMII               (uint32_t)0x00000000                                /*!<
  88:Drivers/STM32F2xx_HAL_Driver/Inc/stm32f2xx_ll_system.h **** #define LL_SYSCFG_PMC_ETHRMII              (uint32_t)SYSCFG_PMC_MII_RMII_SEL                   /*!<
  89:Drivers/STM32F2xx_HAL_Driver/Inc/stm32f2xx_ll_system.h **** 
  90:Drivers/STM32F2xx_HAL_Driver/Inc/stm32f2xx_ll_system.h **** /**
  91:Drivers/STM32F2xx_HAL_Driver/Inc/stm32f2xx_ll_system.h ****   * @}
  92:Drivers/STM32F2xx_HAL_Driver/Inc/stm32f2xx_ll_system.h ****   */
  93:Drivers/STM32F2xx_HAL_Driver/Inc/stm32f2xx_ll_system.h **** #endif /* SYSCFG_PMC_MII_RMII_SEL */
  94:Drivers/STM32F2xx_HAL_Driver/Inc/stm32f2xx_ll_system.h **** 
  95:Drivers/STM32F2xx_HAL_Driver/Inc/stm32f2xx_ll_system.h **** 
  96:Drivers/STM32F2xx_HAL_Driver/Inc/stm32f2xx_ll_system.h **** 
  97:Drivers/STM32F2xx_HAL_Driver/Inc/stm32f2xx_ll_system.h **** /** @defgroup SYSTEM_LL_EC_I2C_FASTMODEPLUS SYSCFG I2C FASTMODEPLUS
  98:Drivers/STM32F2xx_HAL_Driver/Inc/stm32f2xx_ll_system.h ****   * @{
  99:Drivers/STM32F2xx_HAL_Driver/Inc/stm32f2xx_ll_system.h ****   */
 100:Drivers/STM32F2xx_HAL_Driver/Inc/stm32f2xx_ll_system.h **** /**
 101:Drivers/STM32F2xx_HAL_Driver/Inc/stm32f2xx_ll_system.h ****   * @}
 102:Drivers/STM32F2xx_HAL_Driver/Inc/stm32f2xx_ll_system.h ****   */
 103:Drivers/STM32F2xx_HAL_Driver/Inc/stm32f2xx_ll_system.h **** 
 104:Drivers/STM32F2xx_HAL_Driver/Inc/stm32f2xx_ll_system.h **** /** @defgroup SYSTEM_LL_EC_EXTI_PORT SYSCFG EXTI PORT
 105:Drivers/STM32F2xx_HAL_Driver/Inc/stm32f2xx_ll_system.h ****   * @{
 106:Drivers/STM32F2xx_HAL_Driver/Inc/stm32f2xx_ll_system.h ****   */
 107:Drivers/STM32F2xx_HAL_Driver/Inc/stm32f2xx_ll_system.h **** #define LL_SYSCFG_EXTI_PORTA               (uint32_t)0               /*!< EXTI PORT A              
 108:Drivers/STM32F2xx_HAL_Driver/Inc/stm32f2xx_ll_system.h **** #define LL_SYSCFG_EXTI_PORTB               (uint32_t)1               /*!< EXTI PORT B              
 109:Drivers/STM32F2xx_HAL_Driver/Inc/stm32f2xx_ll_system.h **** #define LL_SYSCFG_EXTI_PORTC               (uint32_t)2               /*!< EXTI PORT C              
 110:Drivers/STM32F2xx_HAL_Driver/Inc/stm32f2xx_ll_system.h **** #define LL_SYSCFG_EXTI_PORTD               (uint32_t)3               /*!< EXTI PORT D              
 111:Drivers/STM32F2xx_HAL_Driver/Inc/stm32f2xx_ll_system.h **** #define LL_SYSCFG_EXTI_PORTE               (uint32_t)4               /*!< EXTI PORT E              
 112:Drivers/STM32F2xx_HAL_Driver/Inc/stm32f2xx_ll_system.h **** #if defined(GPIOF)
 113:Drivers/STM32F2xx_HAL_Driver/Inc/stm32f2xx_ll_system.h **** #define LL_SYSCFG_EXTI_PORTF               (uint32_t)5               /*!< EXTI PORT F              
 114:Drivers/STM32F2xx_HAL_Driver/Inc/stm32f2xx_ll_system.h **** #endif /* GPIOF */
 115:Drivers/STM32F2xx_HAL_Driver/Inc/stm32f2xx_ll_system.h **** #if defined(GPIOG)
 116:Drivers/STM32F2xx_HAL_Driver/Inc/stm32f2xx_ll_system.h **** #define LL_SYSCFG_EXTI_PORTG               (uint32_t)6               /*!< EXTI PORT G              
 117:Drivers/STM32F2xx_HAL_Driver/Inc/stm32f2xx_ll_system.h **** #endif /* GPIOG */
 118:Drivers/STM32F2xx_HAL_Driver/Inc/stm32f2xx_ll_system.h **** #define LL_SYSCFG_EXTI_PORTH               (uint32_t)7               /*!< EXTI PORT H              
 119:Drivers/STM32F2xx_HAL_Driver/Inc/stm32f2xx_ll_system.h **** #if defined(GPIOI)
 120:Drivers/STM32F2xx_HAL_Driver/Inc/stm32f2xx_ll_system.h **** #define LL_SYSCFG_EXTI_PORTI               (uint32_t)8               /*!< EXTI PORT I              
 121:Drivers/STM32F2xx_HAL_Driver/Inc/stm32f2xx_ll_system.h **** #endif /* GPIOI */
 122:Drivers/STM32F2xx_HAL_Driver/Inc/stm32f2xx_ll_system.h **** #if defined(GPIOJ)
 123:Drivers/STM32F2xx_HAL_Driver/Inc/stm32f2xx_ll_system.h **** #define LL_SYSCFG_EXTI_PORTJ               (uint32_t)9               /*!< EXTI PORT J              
 124:Drivers/STM32F2xx_HAL_Driver/Inc/stm32f2xx_ll_system.h **** #endif /* GPIOJ */
 125:Drivers/STM32F2xx_HAL_Driver/Inc/stm32f2xx_ll_system.h **** #if defined(GPIOK)
 126:Drivers/STM32F2xx_HAL_Driver/Inc/stm32f2xx_ll_system.h **** #define LL_SYSCFG_EXTI_PORTK               (uint32_t)10              /*!< EXTI PORT k              
 127:Drivers/STM32F2xx_HAL_Driver/Inc/stm32f2xx_ll_system.h **** #endif /* GPIOK */
 128:Drivers/STM32F2xx_HAL_Driver/Inc/stm32f2xx_ll_system.h **** /**
 129:Drivers/STM32F2xx_HAL_Driver/Inc/stm32f2xx_ll_system.h ****   * @}
 130:Drivers/STM32F2xx_HAL_Driver/Inc/stm32f2xx_ll_system.h ****   */
 131:Drivers/STM32F2xx_HAL_Driver/Inc/stm32f2xx_ll_system.h **** 
ARM GAS  C:\Users\Artem\AppData\Local\Temp\cc8fbasp.s 			page 16


 132:Drivers/STM32F2xx_HAL_Driver/Inc/stm32f2xx_ll_system.h **** /** @defgroup SYSTEM_LL_EC_EXTI_LINE SYSCFG EXTI LINE
 133:Drivers/STM32F2xx_HAL_Driver/Inc/stm32f2xx_ll_system.h ****   * @{
 134:Drivers/STM32F2xx_HAL_Driver/Inc/stm32f2xx_ll_system.h ****   */
 135:Drivers/STM32F2xx_HAL_Driver/Inc/stm32f2xx_ll_system.h **** #define LL_SYSCFG_EXTI_LINE0               (uint32_t)(0x000FU << 16 | 0)  /*!< EXTI_POSITION_0  | E
 136:Drivers/STM32F2xx_HAL_Driver/Inc/stm32f2xx_ll_system.h **** #define LL_SYSCFG_EXTI_LINE1               (uint32_t)(0x00F0U << 16 | 0)  /*!< EXTI_POSITION_4  | E
 137:Drivers/STM32F2xx_HAL_Driver/Inc/stm32f2xx_ll_system.h **** #define LL_SYSCFG_EXTI_LINE2               (uint32_t)(0x0F00U << 16 | 0)  /*!< EXTI_POSITION_8  | E
 138:Drivers/STM32F2xx_HAL_Driver/Inc/stm32f2xx_ll_system.h **** #define LL_SYSCFG_EXTI_LINE3               (uint32_t)(0xF000U << 16 | 0)  /*!< EXTI_POSITION_12 | E
 139:Drivers/STM32F2xx_HAL_Driver/Inc/stm32f2xx_ll_system.h **** #define LL_SYSCFG_EXTI_LINE4               (uint32_t)(0x000FU << 16 | 1)  /*!< EXTI_POSITION_0  | E
 140:Drivers/STM32F2xx_HAL_Driver/Inc/stm32f2xx_ll_system.h **** #define LL_SYSCFG_EXTI_LINE5               (uint32_t)(0x00F0U << 16 | 1)  /*!< EXTI_POSITION_4  | E
 141:Drivers/STM32F2xx_HAL_Driver/Inc/stm32f2xx_ll_system.h **** #define LL_SYSCFG_EXTI_LINE6               (uint32_t)(0x0F00U << 16 | 1)  /*!< EXTI_POSITION_8  | E
 142:Drivers/STM32F2xx_HAL_Driver/Inc/stm32f2xx_ll_system.h **** #define LL_SYSCFG_EXTI_LINE7               (uint32_t)(0xF000U << 16 | 1)  /*!< EXTI_POSITION_12 | E
 143:Drivers/STM32F2xx_HAL_Driver/Inc/stm32f2xx_ll_system.h **** #define LL_SYSCFG_EXTI_LINE8               (uint32_t)(0x000FU << 16 | 2)  /*!< EXTI_POSITION_0  | E
 144:Drivers/STM32F2xx_HAL_Driver/Inc/stm32f2xx_ll_system.h **** #define LL_SYSCFG_EXTI_LINE9               (uint32_t)(0x00F0U << 16 | 2)  /*!< EXTI_POSITION_4  | E
 145:Drivers/STM32F2xx_HAL_Driver/Inc/stm32f2xx_ll_system.h **** #define LL_SYSCFG_EXTI_LINE10              (uint32_t)(0x0F00U << 16 | 2)  /*!< EXTI_POSITION_8  | E
 146:Drivers/STM32F2xx_HAL_Driver/Inc/stm32f2xx_ll_system.h **** #define LL_SYSCFG_EXTI_LINE11              (uint32_t)(0xF000U << 16 | 2)  /*!< EXTI_POSITION_12 | E
 147:Drivers/STM32F2xx_HAL_Driver/Inc/stm32f2xx_ll_system.h **** #define LL_SYSCFG_EXTI_LINE12              (uint32_t)(0x000FU << 16 | 3)  /*!< EXTI_POSITION_0  | E
 148:Drivers/STM32F2xx_HAL_Driver/Inc/stm32f2xx_ll_system.h **** #define LL_SYSCFG_EXTI_LINE13              (uint32_t)(0x00F0U << 16 | 3)  /*!< EXTI_POSITION_4  | E
 149:Drivers/STM32F2xx_HAL_Driver/Inc/stm32f2xx_ll_system.h **** #define LL_SYSCFG_EXTI_LINE14              (uint32_t)(0x0F00U << 16 | 3)  /*!< EXTI_POSITION_8  | E
 150:Drivers/STM32F2xx_HAL_Driver/Inc/stm32f2xx_ll_system.h **** #define LL_SYSCFG_EXTI_LINE15              (uint32_t)(0xF000U << 16 | 3)  /*!< EXTI_POSITION_12 | E
 151:Drivers/STM32F2xx_HAL_Driver/Inc/stm32f2xx_ll_system.h **** /**
 152:Drivers/STM32F2xx_HAL_Driver/Inc/stm32f2xx_ll_system.h ****   * @}
 153:Drivers/STM32F2xx_HAL_Driver/Inc/stm32f2xx_ll_system.h ****   */
 154:Drivers/STM32F2xx_HAL_Driver/Inc/stm32f2xx_ll_system.h **** 
 155:Drivers/STM32F2xx_HAL_Driver/Inc/stm32f2xx_ll_system.h **** /** @defgroup SYSTEM_LL_EC_TRACE DBGMCU TRACE Pin Assignment
 156:Drivers/STM32F2xx_HAL_Driver/Inc/stm32f2xx_ll_system.h ****   * @{
 157:Drivers/STM32F2xx_HAL_Driver/Inc/stm32f2xx_ll_system.h ****   */
 158:Drivers/STM32F2xx_HAL_Driver/Inc/stm32f2xx_ll_system.h **** #define LL_DBGMCU_TRACE_NONE               0x00000000U                                     /*!< TRA
 159:Drivers/STM32F2xx_HAL_Driver/Inc/stm32f2xx_ll_system.h **** #define LL_DBGMCU_TRACE_ASYNCH             DBGMCU_CR_TRACE_IOEN                            /*!< TRA
 160:Drivers/STM32F2xx_HAL_Driver/Inc/stm32f2xx_ll_system.h **** #define LL_DBGMCU_TRACE_SYNCH_SIZE1        (DBGMCU_CR_TRACE_IOEN | DBGMCU_CR_TRACE_MODE_0) /*!< TRA
 161:Drivers/STM32F2xx_HAL_Driver/Inc/stm32f2xx_ll_system.h **** #define LL_DBGMCU_TRACE_SYNCH_SIZE2        (DBGMCU_CR_TRACE_IOEN | DBGMCU_CR_TRACE_MODE_1) /*!< TRA
 162:Drivers/STM32F2xx_HAL_Driver/Inc/stm32f2xx_ll_system.h **** #define LL_DBGMCU_TRACE_SYNCH_SIZE4        (DBGMCU_CR_TRACE_IOEN | DBGMCU_CR_TRACE_MODE)   /*!< TRA
 163:Drivers/STM32F2xx_HAL_Driver/Inc/stm32f2xx_ll_system.h **** /**
 164:Drivers/STM32F2xx_HAL_Driver/Inc/stm32f2xx_ll_system.h ****   * @}
 165:Drivers/STM32F2xx_HAL_Driver/Inc/stm32f2xx_ll_system.h ****   */
 166:Drivers/STM32F2xx_HAL_Driver/Inc/stm32f2xx_ll_system.h **** 
 167:Drivers/STM32F2xx_HAL_Driver/Inc/stm32f2xx_ll_system.h **** /** @defgroup SYSTEM_LL_EC_APB1_GRP1_STOP_IP DBGMCU APB1 GRP1 STOP IP
 168:Drivers/STM32F2xx_HAL_Driver/Inc/stm32f2xx_ll_system.h ****   * @{
 169:Drivers/STM32F2xx_HAL_Driver/Inc/stm32f2xx_ll_system.h ****   */
 170:Drivers/STM32F2xx_HAL_Driver/Inc/stm32f2xx_ll_system.h **** #define LL_DBGMCU_APB1_GRP1_TIM2_STOP      DBGMCU_APB1_FZ_DBG_TIM2_STOP          /*!< TIM2 counter 
 171:Drivers/STM32F2xx_HAL_Driver/Inc/stm32f2xx_ll_system.h **** #define LL_DBGMCU_APB1_GRP1_TIM3_STOP      DBGMCU_APB1_FZ_DBG_TIM3_STOP          /*!< TIM3 counter 
 172:Drivers/STM32F2xx_HAL_Driver/Inc/stm32f2xx_ll_system.h **** #define LL_DBGMCU_APB1_GRP1_TIM4_STOP      DBGMCU_APB1_FZ_DBG_TIM4_STOP          /*!< TIM4 counter 
 173:Drivers/STM32F2xx_HAL_Driver/Inc/stm32f2xx_ll_system.h **** #define LL_DBGMCU_APB1_GRP1_TIM5_STOP      DBGMCU_APB1_FZ_DBG_TIM5_STOP          /*!< TIM5 counter 
 174:Drivers/STM32F2xx_HAL_Driver/Inc/stm32f2xx_ll_system.h **** #define LL_DBGMCU_APB1_GRP1_TIM6_STOP      DBGMCU_APB1_FZ_DBG_TIM6_STOP          /*!< TIM6 counter 
 175:Drivers/STM32F2xx_HAL_Driver/Inc/stm32f2xx_ll_system.h **** #define LL_DBGMCU_APB1_GRP1_TIM7_STOP      DBGMCU_APB1_FZ_DBG_TIM7_STOP          /*!< TIM7 counter 
 176:Drivers/STM32F2xx_HAL_Driver/Inc/stm32f2xx_ll_system.h **** #define LL_DBGMCU_APB1_GRP1_TIM12_STOP     DBGMCU_APB1_FZ_DBG_TIM12_STOP         /*!< TIM12 counter
 177:Drivers/STM32F2xx_HAL_Driver/Inc/stm32f2xx_ll_system.h **** #define LL_DBGMCU_APB1_GRP1_TIM13_STOP     DBGMCU_APB1_FZ_DBG_TIM13_STOP         /*!< TIM13 counter
 178:Drivers/STM32F2xx_HAL_Driver/Inc/stm32f2xx_ll_system.h **** #define LL_DBGMCU_APB1_GRP1_TIM14_STOP     DBGMCU_APB1_FZ_DBG_TIM14_STOP         /*!< TIM14 counter
 179:Drivers/STM32F2xx_HAL_Driver/Inc/stm32f2xx_ll_system.h **** #define LL_DBGMCU_APB1_GRP1_RTC_STOP       DBGMCU_APB1_FZ_DBG_RTC_STOP           /*!< RTC counter s
 180:Drivers/STM32F2xx_HAL_Driver/Inc/stm32f2xx_ll_system.h **** #define LL_DBGMCU_APB1_GRP1_WWDG_STOP      DBGMCU_APB1_FZ_DBG_WWDG_STOP          /*!< Debug Window 
 181:Drivers/STM32F2xx_HAL_Driver/Inc/stm32f2xx_ll_system.h **** #define LL_DBGMCU_APB1_GRP1_IWDG_STOP      DBGMCU_APB1_FZ_DBG_IWDG_STOP          /*!< Debug Indepen
 182:Drivers/STM32F2xx_HAL_Driver/Inc/stm32f2xx_ll_system.h **** #define LL_DBGMCU_APB1_GRP1_I2C1_STOP      DBGMCU_APB1_FZ_DBG_I2C1_SMBUS_TIMEOUT /*!< I2C1 SMBUS ti
 183:Drivers/STM32F2xx_HAL_Driver/Inc/stm32f2xx_ll_system.h **** #define LL_DBGMCU_APB1_GRP1_I2C2_STOP      DBGMCU_APB1_FZ_DBG_I2C2_SMBUS_TIMEOUT /*!< I2C2 SMBUS ti
 184:Drivers/STM32F2xx_HAL_Driver/Inc/stm32f2xx_ll_system.h **** #define LL_DBGMCU_APB1_GRP1_I2C3_STOP      DBGMCU_APB1_FZ_DBG_I2C3_SMBUS_TIMEOUT /*!< I2C3 SMBUS ti
 185:Drivers/STM32F2xx_HAL_Driver/Inc/stm32f2xx_ll_system.h **** #define LL_DBGMCU_APB1_GRP1_CAN1_STOP      DBGMCU_APB1_FZ_DBG_CAN1_STOP          /*!< CAN1 debug st
 186:Drivers/STM32F2xx_HAL_Driver/Inc/stm32f2xx_ll_system.h **** #define LL_DBGMCU_APB1_GRP1_CAN2_STOP      DBGMCU_APB1_FZ_DBG_CAN2_STOP          /*!< CAN2 debug st
 187:Drivers/STM32F2xx_HAL_Driver/Inc/stm32f2xx_ll_system.h **** /**
 188:Drivers/STM32F2xx_HAL_Driver/Inc/stm32f2xx_ll_system.h ****   * @}
ARM GAS  C:\Users\Artem\AppData\Local\Temp\cc8fbasp.s 			page 17


 189:Drivers/STM32F2xx_HAL_Driver/Inc/stm32f2xx_ll_system.h ****   */
 190:Drivers/STM32F2xx_HAL_Driver/Inc/stm32f2xx_ll_system.h **** 
 191:Drivers/STM32F2xx_HAL_Driver/Inc/stm32f2xx_ll_system.h **** /** @defgroup SYSTEM_LL_EC_APB2_GRP1_STOP_IP DBGMCU APB2 GRP1 STOP IP
 192:Drivers/STM32F2xx_HAL_Driver/Inc/stm32f2xx_ll_system.h ****   * @{
 193:Drivers/STM32F2xx_HAL_Driver/Inc/stm32f2xx_ll_system.h ****   */
 194:Drivers/STM32F2xx_HAL_Driver/Inc/stm32f2xx_ll_system.h **** #define LL_DBGMCU_APB2_GRP1_TIM1_STOP      DBGMCU_APB2_FZ_DBG_TIM1_STOP   /*!< TIM1 counter stopped
 195:Drivers/STM32F2xx_HAL_Driver/Inc/stm32f2xx_ll_system.h **** #define LL_DBGMCU_APB2_GRP1_TIM8_STOP      DBGMCU_APB2_FZ_DBG_TIM8_STOP   /*!< TIM8 counter stopped
 196:Drivers/STM32F2xx_HAL_Driver/Inc/stm32f2xx_ll_system.h **** #define LL_DBGMCU_APB2_GRP1_TIM9_STOP      DBGMCU_APB2_FZ_DBG_TIM9_STOP   /*!< TIM9 counter stopped
 197:Drivers/STM32F2xx_HAL_Driver/Inc/stm32f2xx_ll_system.h **** #define LL_DBGMCU_APB2_GRP1_TIM10_STOP     DBGMCU_APB2_FZ_DBG_TIM10_STOP   /*!< TIM10 counter stopp
 198:Drivers/STM32F2xx_HAL_Driver/Inc/stm32f2xx_ll_system.h **** #define LL_DBGMCU_APB2_GRP1_TIM11_STOP     DBGMCU_APB2_FZ_DBG_TIM11_STOP   /*!< TIM11 counter stopp
 199:Drivers/STM32F2xx_HAL_Driver/Inc/stm32f2xx_ll_system.h **** /**
 200:Drivers/STM32F2xx_HAL_Driver/Inc/stm32f2xx_ll_system.h ****   * @}
 201:Drivers/STM32F2xx_HAL_Driver/Inc/stm32f2xx_ll_system.h ****   */
 202:Drivers/STM32F2xx_HAL_Driver/Inc/stm32f2xx_ll_system.h **** 
 203:Drivers/STM32F2xx_HAL_Driver/Inc/stm32f2xx_ll_system.h **** /** @defgroup SYSTEM_LL_EC_LATENCY FLASH LATENCY
 204:Drivers/STM32F2xx_HAL_Driver/Inc/stm32f2xx_ll_system.h ****   * @{
 205:Drivers/STM32F2xx_HAL_Driver/Inc/stm32f2xx_ll_system.h ****   */
 206:Drivers/STM32F2xx_HAL_Driver/Inc/stm32f2xx_ll_system.h **** #define LL_FLASH_LATENCY_0                 FLASH_ACR_LATENCY_0WS   /*!< FLASH Zero wait state */
 207:Drivers/STM32F2xx_HAL_Driver/Inc/stm32f2xx_ll_system.h **** #define LL_FLASH_LATENCY_1                 FLASH_ACR_LATENCY_1WS   /*!< FLASH One wait state */
 208:Drivers/STM32F2xx_HAL_Driver/Inc/stm32f2xx_ll_system.h **** #define LL_FLASH_LATENCY_2                 FLASH_ACR_LATENCY_2WS   /*!< FLASH Two wait states */
 209:Drivers/STM32F2xx_HAL_Driver/Inc/stm32f2xx_ll_system.h **** #define LL_FLASH_LATENCY_3                 FLASH_ACR_LATENCY_3WS   /*!< FLASH Three wait states */
 210:Drivers/STM32F2xx_HAL_Driver/Inc/stm32f2xx_ll_system.h **** #define LL_FLASH_LATENCY_4                 FLASH_ACR_LATENCY_4WS   /*!< FLASH Four wait states */
 211:Drivers/STM32F2xx_HAL_Driver/Inc/stm32f2xx_ll_system.h **** #define LL_FLASH_LATENCY_5                 FLASH_ACR_LATENCY_5WS   /*!< FLASH five wait state */
 212:Drivers/STM32F2xx_HAL_Driver/Inc/stm32f2xx_ll_system.h **** #define LL_FLASH_LATENCY_6                 FLASH_ACR_LATENCY_6WS   /*!< FLASH six wait state */
 213:Drivers/STM32F2xx_HAL_Driver/Inc/stm32f2xx_ll_system.h **** #define LL_FLASH_LATENCY_7                 FLASH_ACR_LATENCY_7WS   /*!< FLASH seven wait states */
 214:Drivers/STM32F2xx_HAL_Driver/Inc/stm32f2xx_ll_system.h **** /**
 215:Drivers/STM32F2xx_HAL_Driver/Inc/stm32f2xx_ll_system.h ****   * @}
 216:Drivers/STM32F2xx_HAL_Driver/Inc/stm32f2xx_ll_system.h ****   */
 217:Drivers/STM32F2xx_HAL_Driver/Inc/stm32f2xx_ll_system.h **** 
 218:Drivers/STM32F2xx_HAL_Driver/Inc/stm32f2xx_ll_system.h **** /**
 219:Drivers/STM32F2xx_HAL_Driver/Inc/stm32f2xx_ll_system.h ****   * @}
 220:Drivers/STM32F2xx_HAL_Driver/Inc/stm32f2xx_ll_system.h ****   */
 221:Drivers/STM32F2xx_HAL_Driver/Inc/stm32f2xx_ll_system.h **** 
 222:Drivers/STM32F2xx_HAL_Driver/Inc/stm32f2xx_ll_system.h **** /* Exported macro ------------------------------------------------------------*/
 223:Drivers/STM32F2xx_HAL_Driver/Inc/stm32f2xx_ll_system.h **** 
 224:Drivers/STM32F2xx_HAL_Driver/Inc/stm32f2xx_ll_system.h **** /* Exported functions --------------------------------------------------------*/
 225:Drivers/STM32F2xx_HAL_Driver/Inc/stm32f2xx_ll_system.h **** /** @defgroup SYSTEM_LL_Exported_Functions SYSTEM Exported Functions
 226:Drivers/STM32F2xx_HAL_Driver/Inc/stm32f2xx_ll_system.h ****   * @{
 227:Drivers/STM32F2xx_HAL_Driver/Inc/stm32f2xx_ll_system.h ****   */
 228:Drivers/STM32F2xx_HAL_Driver/Inc/stm32f2xx_ll_system.h **** 
 229:Drivers/STM32F2xx_HAL_Driver/Inc/stm32f2xx_ll_system.h **** /** @defgroup SYSTEM_LL_EF_SYSCFG SYSCFG
 230:Drivers/STM32F2xx_HAL_Driver/Inc/stm32f2xx_ll_system.h ****   * @{
 231:Drivers/STM32F2xx_HAL_Driver/Inc/stm32f2xx_ll_system.h ****   */
 232:Drivers/STM32F2xx_HAL_Driver/Inc/stm32f2xx_ll_system.h **** /**
 233:Drivers/STM32F2xx_HAL_Driver/Inc/stm32f2xx_ll_system.h ****   * @brief  Set memory mapping at address 0x00000000
 234:Drivers/STM32F2xx_HAL_Driver/Inc/stm32f2xx_ll_system.h ****   * @rmtoll SYSCFG_MEMRMP MEM_MODE      LL_SYSCFG_SetRemapMemory
 235:Drivers/STM32F2xx_HAL_Driver/Inc/stm32f2xx_ll_system.h ****   * @param  Memory This parameter can be one of the following values:
 236:Drivers/STM32F2xx_HAL_Driver/Inc/stm32f2xx_ll_system.h ****   *         @arg @ref LL_SYSCFG_REMAP_FLASH
 237:Drivers/STM32F2xx_HAL_Driver/Inc/stm32f2xx_ll_system.h ****   *         @arg @ref LL_SYSCFG_REMAP_SYSTEMFLASH
 238:Drivers/STM32F2xx_HAL_Driver/Inc/stm32f2xx_ll_system.h ****   *         @arg @ref LL_SYSCFG_REMAP_FSMC
 239:Drivers/STM32F2xx_HAL_Driver/Inc/stm32f2xx_ll_system.h ****   *         @arg @ref LL_SYSCFG_REMAP_SRAM
 240:Drivers/STM32F2xx_HAL_Driver/Inc/stm32f2xx_ll_system.h ****   * @retval None
 241:Drivers/STM32F2xx_HAL_Driver/Inc/stm32f2xx_ll_system.h ****   */
 242:Drivers/STM32F2xx_HAL_Driver/Inc/stm32f2xx_ll_system.h **** __STATIC_INLINE void LL_SYSCFG_SetRemapMemory(uint32_t Memory)
 243:Drivers/STM32F2xx_HAL_Driver/Inc/stm32f2xx_ll_system.h **** {
 244:Drivers/STM32F2xx_HAL_Driver/Inc/stm32f2xx_ll_system.h ****   MODIFY_REG(SYSCFG->MEMRMP, SYSCFG_MEMRMP_MEM_MODE, Memory);
 245:Drivers/STM32F2xx_HAL_Driver/Inc/stm32f2xx_ll_system.h **** }
ARM GAS  C:\Users\Artem\AppData\Local\Temp\cc8fbasp.s 			page 18


 246:Drivers/STM32F2xx_HAL_Driver/Inc/stm32f2xx_ll_system.h **** 
 247:Drivers/STM32F2xx_HAL_Driver/Inc/stm32f2xx_ll_system.h **** /**
 248:Drivers/STM32F2xx_HAL_Driver/Inc/stm32f2xx_ll_system.h ****   * @brief  Get memory mapping at address 0x00000000
 249:Drivers/STM32F2xx_HAL_Driver/Inc/stm32f2xx_ll_system.h ****   * @rmtoll SYSCFG_MEMRMP MEM_MODE      LL_SYSCFG_GetRemapMemory
 250:Drivers/STM32F2xx_HAL_Driver/Inc/stm32f2xx_ll_system.h ****   * @retval Returned value can be one of the following values:
 251:Drivers/STM32F2xx_HAL_Driver/Inc/stm32f2xx_ll_system.h ****   *         @arg @ref LL_SYSCFG_REMAP_FLASH
 252:Drivers/STM32F2xx_HAL_Driver/Inc/stm32f2xx_ll_system.h ****   *         @arg @ref LL_SYSCFG_REMAP_SYSTEMFLASH
 253:Drivers/STM32F2xx_HAL_Driver/Inc/stm32f2xx_ll_system.h ****   *         @arg @ref LL_SYSCFG_REMAP_SRAM
 254:Drivers/STM32F2xx_HAL_Driver/Inc/stm32f2xx_ll_system.h ****   *         @arg @ref LL_SYSCFG_REMAP_FSMC
 255:Drivers/STM32F2xx_HAL_Driver/Inc/stm32f2xx_ll_system.h ****   */
 256:Drivers/STM32F2xx_HAL_Driver/Inc/stm32f2xx_ll_system.h **** __STATIC_INLINE uint32_t LL_SYSCFG_GetRemapMemory(void)
 257:Drivers/STM32F2xx_HAL_Driver/Inc/stm32f2xx_ll_system.h **** {
 258:Drivers/STM32F2xx_HAL_Driver/Inc/stm32f2xx_ll_system.h ****   return (uint32_t)(READ_BIT(SYSCFG->MEMRMP, SYSCFG_MEMRMP_MEM_MODE));
 259:Drivers/STM32F2xx_HAL_Driver/Inc/stm32f2xx_ll_system.h **** }
 260:Drivers/STM32F2xx_HAL_Driver/Inc/stm32f2xx_ll_system.h **** 
 261:Drivers/STM32F2xx_HAL_Driver/Inc/stm32f2xx_ll_system.h **** /**
 262:Drivers/STM32F2xx_HAL_Driver/Inc/stm32f2xx_ll_system.h ****   * @brief  Enables the Compensation cell Power Down
 263:Drivers/STM32F2xx_HAL_Driver/Inc/stm32f2xx_ll_system.h ****   * @rmtoll SYSCFG_CMPCR CMP_PD      LL_SYSCFG_EnableCompensationCell
 264:Drivers/STM32F2xx_HAL_Driver/Inc/stm32f2xx_ll_system.h ****   * @note   The I/O compensation cell can be used only when the device supply
 265:Drivers/STM32F2xx_HAL_Driver/Inc/stm32f2xx_ll_system.h ****   *         voltage ranges from 2.4 to 3.6 V
 266:Drivers/STM32F2xx_HAL_Driver/Inc/stm32f2xx_ll_system.h ****   * @retval None
 267:Drivers/STM32F2xx_HAL_Driver/Inc/stm32f2xx_ll_system.h ****   */
 268:Drivers/STM32F2xx_HAL_Driver/Inc/stm32f2xx_ll_system.h **** __STATIC_INLINE void LL_SYSCFG_EnableCompensationCell(void)
 269:Drivers/STM32F2xx_HAL_Driver/Inc/stm32f2xx_ll_system.h **** {
 270:Drivers/STM32F2xx_HAL_Driver/Inc/stm32f2xx_ll_system.h ****   SET_BIT(SYSCFG->CMPCR, SYSCFG_CMPCR_CMP_PD);
 271:Drivers/STM32F2xx_HAL_Driver/Inc/stm32f2xx_ll_system.h **** }
 272:Drivers/STM32F2xx_HAL_Driver/Inc/stm32f2xx_ll_system.h **** 
 273:Drivers/STM32F2xx_HAL_Driver/Inc/stm32f2xx_ll_system.h **** /**
 274:Drivers/STM32F2xx_HAL_Driver/Inc/stm32f2xx_ll_system.h ****   * @brief  Disables the Compensation cell Power Down
 275:Drivers/STM32F2xx_HAL_Driver/Inc/stm32f2xx_ll_system.h ****   * @rmtoll SYSCFG_CMPCR CMP_PD      LL_SYSCFG_DisableCompensationCell
 276:Drivers/STM32F2xx_HAL_Driver/Inc/stm32f2xx_ll_system.h ****   * @note   The I/O compensation cell can be used only when the device supply
 277:Drivers/STM32F2xx_HAL_Driver/Inc/stm32f2xx_ll_system.h ****   *         voltage ranges from 2.4 to 3.6 V
 278:Drivers/STM32F2xx_HAL_Driver/Inc/stm32f2xx_ll_system.h ****   * @retval None
 279:Drivers/STM32F2xx_HAL_Driver/Inc/stm32f2xx_ll_system.h ****   */
 280:Drivers/STM32F2xx_HAL_Driver/Inc/stm32f2xx_ll_system.h **** __STATIC_INLINE void LL_SYSCFG_DisableCompensationCell(void)
 281:Drivers/STM32F2xx_HAL_Driver/Inc/stm32f2xx_ll_system.h **** {
 282:Drivers/STM32F2xx_HAL_Driver/Inc/stm32f2xx_ll_system.h ****   CLEAR_BIT(SYSCFG->CMPCR, SYSCFG_CMPCR_CMP_PD);
 283:Drivers/STM32F2xx_HAL_Driver/Inc/stm32f2xx_ll_system.h **** }
 284:Drivers/STM32F2xx_HAL_Driver/Inc/stm32f2xx_ll_system.h **** 
 285:Drivers/STM32F2xx_HAL_Driver/Inc/stm32f2xx_ll_system.h **** /**
 286:Drivers/STM32F2xx_HAL_Driver/Inc/stm32f2xx_ll_system.h ****   * @brief  Get Compensation Cell ready Flag
 287:Drivers/STM32F2xx_HAL_Driver/Inc/stm32f2xx_ll_system.h ****   * @rmtoll SYSCFG_CMPCR READY  LL_SYSCFG_IsActiveFlag_CMPCR
 288:Drivers/STM32F2xx_HAL_Driver/Inc/stm32f2xx_ll_system.h ****   * @retval State of bit (1 or 0).
 289:Drivers/STM32F2xx_HAL_Driver/Inc/stm32f2xx_ll_system.h ****   */
 290:Drivers/STM32F2xx_HAL_Driver/Inc/stm32f2xx_ll_system.h **** __STATIC_INLINE uint32_t LL_SYSCFG_IsActiveFlag_CMPCR(void)
 291:Drivers/STM32F2xx_HAL_Driver/Inc/stm32f2xx_ll_system.h **** {
 292:Drivers/STM32F2xx_HAL_Driver/Inc/stm32f2xx_ll_system.h ****   return (READ_BIT(SYSCFG->CMPCR, SYSCFG_CMPCR_READY) == (SYSCFG_CMPCR_READY));
 293:Drivers/STM32F2xx_HAL_Driver/Inc/stm32f2xx_ll_system.h **** }
 294:Drivers/STM32F2xx_HAL_Driver/Inc/stm32f2xx_ll_system.h **** #if defined(SYSCFG_PMC_MII_RMII_SEL)
 295:Drivers/STM32F2xx_HAL_Driver/Inc/stm32f2xx_ll_system.h **** /**
 296:Drivers/STM32F2xx_HAL_Driver/Inc/stm32f2xx_ll_system.h ****   * @brief  Select Ethernet PHY interface 
 297:Drivers/STM32F2xx_HAL_Driver/Inc/stm32f2xx_ll_system.h ****   * @rmtoll SYSCFG_PMC MII_RMII_SEL       LL_SYSCFG_SetPHYInterface
 298:Drivers/STM32F2xx_HAL_Driver/Inc/stm32f2xx_ll_system.h ****   * @param  Interface This parameter can be one of the following values:
 299:Drivers/STM32F2xx_HAL_Driver/Inc/stm32f2xx_ll_system.h ****   *         @arg @ref LL_SYSCFG_PMC_ETHMII
 300:Drivers/STM32F2xx_HAL_Driver/Inc/stm32f2xx_ll_system.h ****   *         @arg @ref LL_SYSCFG_PMC_ETHRMII
 301:Drivers/STM32F2xx_HAL_Driver/Inc/stm32f2xx_ll_system.h ****   * @retval None
 302:Drivers/STM32F2xx_HAL_Driver/Inc/stm32f2xx_ll_system.h ****   */
ARM GAS  C:\Users\Artem\AppData\Local\Temp\cc8fbasp.s 			page 19


 303:Drivers/STM32F2xx_HAL_Driver/Inc/stm32f2xx_ll_system.h **** __STATIC_INLINE void LL_SYSCFG_SetPHYInterface(uint32_t Interface)
 304:Drivers/STM32F2xx_HAL_Driver/Inc/stm32f2xx_ll_system.h **** {
 305:Drivers/STM32F2xx_HAL_Driver/Inc/stm32f2xx_ll_system.h ****   MODIFY_REG(SYSCFG->PMC, SYSCFG_PMC_MII_RMII_SEL, Interface);
 306:Drivers/STM32F2xx_HAL_Driver/Inc/stm32f2xx_ll_system.h **** }
 307:Drivers/STM32F2xx_HAL_Driver/Inc/stm32f2xx_ll_system.h **** 
 308:Drivers/STM32F2xx_HAL_Driver/Inc/stm32f2xx_ll_system.h **** /**
 309:Drivers/STM32F2xx_HAL_Driver/Inc/stm32f2xx_ll_system.h ****   * @brief  Get Ethernet PHY interface 
 310:Drivers/STM32F2xx_HAL_Driver/Inc/stm32f2xx_ll_system.h ****   * @rmtoll SYSCFG_PMC MII_RMII_SEL       LL_SYSCFG_GetPHYInterface
 311:Drivers/STM32F2xx_HAL_Driver/Inc/stm32f2xx_ll_system.h ****   * @retval Returned value can be one of the following values:
 312:Drivers/STM32F2xx_HAL_Driver/Inc/stm32f2xx_ll_system.h ****   *         @arg @ref LL_SYSCFG_PMC_ETHMII
 313:Drivers/STM32F2xx_HAL_Driver/Inc/stm32f2xx_ll_system.h ****   *         @arg @ref LL_SYSCFG_PMC_ETHRMII
 314:Drivers/STM32F2xx_HAL_Driver/Inc/stm32f2xx_ll_system.h ****   * @retval None
 315:Drivers/STM32F2xx_HAL_Driver/Inc/stm32f2xx_ll_system.h ****   */
 316:Drivers/STM32F2xx_HAL_Driver/Inc/stm32f2xx_ll_system.h **** __STATIC_INLINE uint32_t LL_SYSCFG_GetPHYInterface(void)
 317:Drivers/STM32F2xx_HAL_Driver/Inc/stm32f2xx_ll_system.h **** {
 318:Drivers/STM32F2xx_HAL_Driver/Inc/stm32f2xx_ll_system.h ****   return (uint32_t)(READ_BIT(SYSCFG->PMC, SYSCFG_PMC_MII_RMII_SEL));
 319:Drivers/STM32F2xx_HAL_Driver/Inc/stm32f2xx_ll_system.h **** }
 320:Drivers/STM32F2xx_HAL_Driver/Inc/stm32f2xx_ll_system.h **** #endif /* SYSCFG_PMC_MII_RMII_SEL */
 321:Drivers/STM32F2xx_HAL_Driver/Inc/stm32f2xx_ll_system.h **** 
 322:Drivers/STM32F2xx_HAL_Driver/Inc/stm32f2xx_ll_system.h **** 
 323:Drivers/STM32F2xx_HAL_Driver/Inc/stm32f2xx_ll_system.h **** 
 324:Drivers/STM32F2xx_HAL_Driver/Inc/stm32f2xx_ll_system.h **** /**
 325:Drivers/STM32F2xx_HAL_Driver/Inc/stm32f2xx_ll_system.h ****   * @brief  Configure source input for the EXTI external interrupt.
 326:Drivers/STM32F2xx_HAL_Driver/Inc/stm32f2xx_ll_system.h ****   * @rmtoll SYSCFG_EXTICR1 EXTIx         LL_SYSCFG_SetEXTISource\n
 327:Drivers/STM32F2xx_HAL_Driver/Inc/stm32f2xx_ll_system.h ****   *         SYSCFG_EXTICR2 EXTIx         LL_SYSCFG_SetEXTISource\n
 328:Drivers/STM32F2xx_HAL_Driver/Inc/stm32f2xx_ll_system.h ****   *         SYSCFG_EXTICR3 EXTIx         LL_SYSCFG_SetEXTISource\n
 329:Drivers/STM32F2xx_HAL_Driver/Inc/stm32f2xx_ll_system.h ****   *         SYSCFG_EXTICR4 EXTIx         LL_SYSCFG_SetEXTISource
 330:Drivers/STM32F2xx_HAL_Driver/Inc/stm32f2xx_ll_system.h ****   * @param  Port This parameter can be one of the following values:
 331:Drivers/STM32F2xx_HAL_Driver/Inc/stm32f2xx_ll_system.h ****   *         @arg @ref LL_SYSCFG_EXTI_PORTA
 332:Drivers/STM32F2xx_HAL_Driver/Inc/stm32f2xx_ll_system.h ****   *         @arg @ref LL_SYSCFG_EXTI_PORTB
 333:Drivers/STM32F2xx_HAL_Driver/Inc/stm32f2xx_ll_system.h ****   *         @arg @ref LL_SYSCFG_EXTI_PORTC
 334:Drivers/STM32F2xx_HAL_Driver/Inc/stm32f2xx_ll_system.h ****   *         @arg @ref LL_SYSCFG_EXTI_PORTD
 335:Drivers/STM32F2xx_HAL_Driver/Inc/stm32f2xx_ll_system.h ****   *         @arg @ref LL_SYSCFG_EXTI_PORTE
 336:Drivers/STM32F2xx_HAL_Driver/Inc/stm32f2xx_ll_system.h ****   *         @arg @ref LL_SYSCFG_EXTI_PORTF (*)
 337:Drivers/STM32F2xx_HAL_Driver/Inc/stm32f2xx_ll_system.h ****   *         @arg @ref LL_SYSCFG_EXTI_PORTG (*)
 338:Drivers/STM32F2xx_HAL_Driver/Inc/stm32f2xx_ll_system.h ****   *         @arg @ref LL_SYSCFG_EXTI_PORTH
 339:Drivers/STM32F2xx_HAL_Driver/Inc/stm32f2xx_ll_system.h ****   *
 340:Drivers/STM32F2xx_HAL_Driver/Inc/stm32f2xx_ll_system.h ****   *         (*) value not defined in all devices
 341:Drivers/STM32F2xx_HAL_Driver/Inc/stm32f2xx_ll_system.h ****   * @param  Line This parameter can be one of the following values:
 342:Drivers/STM32F2xx_HAL_Driver/Inc/stm32f2xx_ll_system.h ****   *         @arg @ref LL_SYSCFG_EXTI_LINE0
 343:Drivers/STM32F2xx_HAL_Driver/Inc/stm32f2xx_ll_system.h ****   *         @arg @ref LL_SYSCFG_EXTI_LINE1
 344:Drivers/STM32F2xx_HAL_Driver/Inc/stm32f2xx_ll_system.h ****   *         @arg @ref LL_SYSCFG_EXTI_LINE2
 345:Drivers/STM32F2xx_HAL_Driver/Inc/stm32f2xx_ll_system.h ****   *         @arg @ref LL_SYSCFG_EXTI_LINE3
 346:Drivers/STM32F2xx_HAL_Driver/Inc/stm32f2xx_ll_system.h ****   *         @arg @ref LL_SYSCFG_EXTI_LINE4
 347:Drivers/STM32F2xx_HAL_Driver/Inc/stm32f2xx_ll_system.h ****   *         @arg @ref LL_SYSCFG_EXTI_LINE5
 348:Drivers/STM32F2xx_HAL_Driver/Inc/stm32f2xx_ll_system.h ****   *         @arg @ref LL_SYSCFG_EXTI_LINE6
 349:Drivers/STM32F2xx_HAL_Driver/Inc/stm32f2xx_ll_system.h ****   *         @arg @ref LL_SYSCFG_EXTI_LINE7
 350:Drivers/STM32F2xx_HAL_Driver/Inc/stm32f2xx_ll_system.h ****   *         @arg @ref LL_SYSCFG_EXTI_LINE8
 351:Drivers/STM32F2xx_HAL_Driver/Inc/stm32f2xx_ll_system.h ****   *         @arg @ref LL_SYSCFG_EXTI_LINE9
 352:Drivers/STM32F2xx_HAL_Driver/Inc/stm32f2xx_ll_system.h ****   *         @arg @ref LL_SYSCFG_EXTI_LINE10
 353:Drivers/STM32F2xx_HAL_Driver/Inc/stm32f2xx_ll_system.h ****   *         @arg @ref LL_SYSCFG_EXTI_LINE11
 354:Drivers/STM32F2xx_HAL_Driver/Inc/stm32f2xx_ll_system.h ****   *         @arg @ref LL_SYSCFG_EXTI_LINE12
 355:Drivers/STM32F2xx_HAL_Driver/Inc/stm32f2xx_ll_system.h ****   *         @arg @ref LL_SYSCFG_EXTI_LINE13
 356:Drivers/STM32F2xx_HAL_Driver/Inc/stm32f2xx_ll_system.h ****   *         @arg @ref LL_SYSCFG_EXTI_LINE14
 357:Drivers/STM32F2xx_HAL_Driver/Inc/stm32f2xx_ll_system.h ****   *         @arg @ref LL_SYSCFG_EXTI_LINE15
 358:Drivers/STM32F2xx_HAL_Driver/Inc/stm32f2xx_ll_system.h ****   * @retval None
 359:Drivers/STM32F2xx_HAL_Driver/Inc/stm32f2xx_ll_system.h ****   */
ARM GAS  C:\Users\Artem\AppData\Local\Temp\cc8fbasp.s 			page 20


 360:Drivers/STM32F2xx_HAL_Driver/Inc/stm32f2xx_ll_system.h **** __STATIC_INLINE void LL_SYSCFG_SetEXTISource(uint32_t Port, uint32_t Line)
 361:Drivers/STM32F2xx_HAL_Driver/Inc/stm32f2xx_ll_system.h **** {
 362:Drivers/STM32F2xx_HAL_Driver/Inc/stm32f2xx_ll_system.h ****   MODIFY_REG(SYSCFG->EXTICR[Line & 0xFF], (Line >> 16), Port << POSITION_VAL((Line >> 16)));
 363:Drivers/STM32F2xx_HAL_Driver/Inc/stm32f2xx_ll_system.h **** }
 364:Drivers/STM32F2xx_HAL_Driver/Inc/stm32f2xx_ll_system.h **** 
 365:Drivers/STM32F2xx_HAL_Driver/Inc/stm32f2xx_ll_system.h **** /**
 366:Drivers/STM32F2xx_HAL_Driver/Inc/stm32f2xx_ll_system.h ****   * @brief  Get the configured defined for specific EXTI Line
 367:Drivers/STM32F2xx_HAL_Driver/Inc/stm32f2xx_ll_system.h ****   * @rmtoll SYSCFG_EXTICR1 EXTIx         LL_SYSCFG_GetEXTISource\n
 368:Drivers/STM32F2xx_HAL_Driver/Inc/stm32f2xx_ll_system.h ****   *         SYSCFG_EXTICR2 EXTIx         LL_SYSCFG_GetEXTISource\n
 369:Drivers/STM32F2xx_HAL_Driver/Inc/stm32f2xx_ll_system.h ****   *         SYSCFG_EXTICR3 EXTIx         LL_SYSCFG_GetEXTISource\n
 370:Drivers/STM32F2xx_HAL_Driver/Inc/stm32f2xx_ll_system.h ****   *         SYSCFG_EXTICR4 EXTIx         LL_SYSCFG_GetEXTISource
 371:Drivers/STM32F2xx_HAL_Driver/Inc/stm32f2xx_ll_system.h ****   * @param  Line This parameter can be one of the following values:
 372:Drivers/STM32F2xx_HAL_Driver/Inc/stm32f2xx_ll_system.h ****   *         @arg @ref LL_SYSCFG_EXTI_LINE0
 373:Drivers/STM32F2xx_HAL_Driver/Inc/stm32f2xx_ll_system.h ****   *         @arg @ref LL_SYSCFG_EXTI_LINE1
 374:Drivers/STM32F2xx_HAL_Driver/Inc/stm32f2xx_ll_system.h ****   *         @arg @ref LL_SYSCFG_EXTI_LINE2
 375:Drivers/STM32F2xx_HAL_Driver/Inc/stm32f2xx_ll_system.h ****   *         @arg @ref LL_SYSCFG_EXTI_LINE3
 376:Drivers/STM32F2xx_HAL_Driver/Inc/stm32f2xx_ll_system.h ****   *         @arg @ref LL_SYSCFG_EXTI_LINE4
 377:Drivers/STM32F2xx_HAL_Driver/Inc/stm32f2xx_ll_system.h ****   *         @arg @ref LL_SYSCFG_EXTI_LINE5
 378:Drivers/STM32F2xx_HAL_Driver/Inc/stm32f2xx_ll_system.h ****   *         @arg @ref LL_SYSCFG_EXTI_LINE6
 379:Drivers/STM32F2xx_HAL_Driver/Inc/stm32f2xx_ll_system.h ****   *         @arg @ref LL_SYSCFG_EXTI_LINE7
 380:Drivers/STM32F2xx_HAL_Driver/Inc/stm32f2xx_ll_system.h ****   *         @arg @ref LL_SYSCFG_EXTI_LINE8
 381:Drivers/STM32F2xx_HAL_Driver/Inc/stm32f2xx_ll_system.h ****   *         @arg @ref LL_SYSCFG_EXTI_LINE9
 382:Drivers/STM32F2xx_HAL_Driver/Inc/stm32f2xx_ll_system.h ****   *         @arg @ref LL_SYSCFG_EXTI_LINE10
 383:Drivers/STM32F2xx_HAL_Driver/Inc/stm32f2xx_ll_system.h ****   *         @arg @ref LL_SYSCFG_EXTI_LINE11
 384:Drivers/STM32F2xx_HAL_Driver/Inc/stm32f2xx_ll_system.h ****   *         @arg @ref LL_SYSCFG_EXTI_LINE12
 385:Drivers/STM32F2xx_HAL_Driver/Inc/stm32f2xx_ll_system.h ****   *         @arg @ref LL_SYSCFG_EXTI_LINE13
 386:Drivers/STM32F2xx_HAL_Driver/Inc/stm32f2xx_ll_system.h ****   *         @arg @ref LL_SYSCFG_EXTI_LINE14
 387:Drivers/STM32F2xx_HAL_Driver/Inc/stm32f2xx_ll_system.h ****   *         @arg @ref LL_SYSCFG_EXTI_LINE15
 388:Drivers/STM32F2xx_HAL_Driver/Inc/stm32f2xx_ll_system.h ****   * @retval Returned value can be one of the following values:
 389:Drivers/STM32F2xx_HAL_Driver/Inc/stm32f2xx_ll_system.h ****   *         @arg @ref LL_SYSCFG_EXTI_PORTA
 390:Drivers/STM32F2xx_HAL_Driver/Inc/stm32f2xx_ll_system.h ****   *         @arg @ref LL_SYSCFG_EXTI_PORTB
 391:Drivers/STM32F2xx_HAL_Driver/Inc/stm32f2xx_ll_system.h ****   *         @arg @ref LL_SYSCFG_EXTI_PORTC
 392:Drivers/STM32F2xx_HAL_Driver/Inc/stm32f2xx_ll_system.h ****   *         @arg @ref LL_SYSCFG_EXTI_PORTD
 393:Drivers/STM32F2xx_HAL_Driver/Inc/stm32f2xx_ll_system.h ****   *         @arg @ref LL_SYSCFG_EXTI_PORTE
 394:Drivers/STM32F2xx_HAL_Driver/Inc/stm32f2xx_ll_system.h ****   *         @arg @ref LL_SYSCFG_EXTI_PORTF (*)
 395:Drivers/STM32F2xx_HAL_Driver/Inc/stm32f2xx_ll_system.h ****   *         @arg @ref LL_SYSCFG_EXTI_PORTG (*)
 396:Drivers/STM32F2xx_HAL_Driver/Inc/stm32f2xx_ll_system.h ****   *         @arg @ref LL_SYSCFG_EXTI_PORTH
 397:Drivers/STM32F2xx_HAL_Driver/Inc/stm32f2xx_ll_system.h ****   *         (*) value not defined in all devices
 398:Drivers/STM32F2xx_HAL_Driver/Inc/stm32f2xx_ll_system.h ****   */
 399:Drivers/STM32F2xx_HAL_Driver/Inc/stm32f2xx_ll_system.h **** __STATIC_INLINE uint32_t LL_SYSCFG_GetEXTISource(uint32_t Line)
 400:Drivers/STM32F2xx_HAL_Driver/Inc/stm32f2xx_ll_system.h **** {
 401:Drivers/STM32F2xx_HAL_Driver/Inc/stm32f2xx_ll_system.h ****   return (uint32_t)(READ_BIT(SYSCFG->EXTICR[Line & 0xFF], (Line >> 16)) >> POSITION_VAL(Line >> 16)
 402:Drivers/STM32F2xx_HAL_Driver/Inc/stm32f2xx_ll_system.h **** }
 403:Drivers/STM32F2xx_HAL_Driver/Inc/stm32f2xx_ll_system.h **** 
 404:Drivers/STM32F2xx_HAL_Driver/Inc/stm32f2xx_ll_system.h **** /**
 405:Drivers/STM32F2xx_HAL_Driver/Inc/stm32f2xx_ll_system.h ****   * @}
 406:Drivers/STM32F2xx_HAL_Driver/Inc/stm32f2xx_ll_system.h ****   */
 407:Drivers/STM32F2xx_HAL_Driver/Inc/stm32f2xx_ll_system.h **** 
 408:Drivers/STM32F2xx_HAL_Driver/Inc/stm32f2xx_ll_system.h **** 
 409:Drivers/STM32F2xx_HAL_Driver/Inc/stm32f2xx_ll_system.h **** /** @defgroup SYSTEM_LL_EF_DBGMCU DBGMCU
 410:Drivers/STM32F2xx_HAL_Driver/Inc/stm32f2xx_ll_system.h ****   * @{
 411:Drivers/STM32F2xx_HAL_Driver/Inc/stm32f2xx_ll_system.h ****   */
 412:Drivers/STM32F2xx_HAL_Driver/Inc/stm32f2xx_ll_system.h **** 
 413:Drivers/STM32F2xx_HAL_Driver/Inc/stm32f2xx_ll_system.h **** /**
 414:Drivers/STM32F2xx_HAL_Driver/Inc/stm32f2xx_ll_system.h ****   * @brief  Return the device identifier
 415:Drivers/STM32F2xx_HAL_Driver/Inc/stm32f2xx_ll_system.h ****   * @note For STM32F2xxxx ,the device ID is 0x411
 416:Drivers/STM32F2xx_HAL_Driver/Inc/stm32f2xx_ll_system.h ****   * @rmtoll DBGMCU_IDCODE DEV_ID        LL_DBGMCU_GetDeviceID
ARM GAS  C:\Users\Artem\AppData\Local\Temp\cc8fbasp.s 			page 21


 417:Drivers/STM32F2xx_HAL_Driver/Inc/stm32f2xx_ll_system.h ****   * @retval Values between Min_Data=0x00 and Max_Data=0xFFF
 418:Drivers/STM32F2xx_HAL_Driver/Inc/stm32f2xx_ll_system.h ****   */
 419:Drivers/STM32F2xx_HAL_Driver/Inc/stm32f2xx_ll_system.h **** __STATIC_INLINE uint32_t LL_DBGMCU_GetDeviceID(void)
 420:Drivers/STM32F2xx_HAL_Driver/Inc/stm32f2xx_ll_system.h **** {
 421:Drivers/STM32F2xx_HAL_Driver/Inc/stm32f2xx_ll_system.h ****   return (uint32_t)(READ_BIT(DBGMCU->IDCODE, DBGMCU_IDCODE_DEV_ID));
 422:Drivers/STM32F2xx_HAL_Driver/Inc/stm32f2xx_ll_system.h **** }
 423:Drivers/STM32F2xx_HAL_Driver/Inc/stm32f2xx_ll_system.h **** 
 424:Drivers/STM32F2xx_HAL_Driver/Inc/stm32f2xx_ll_system.h **** /**
 425:Drivers/STM32F2xx_HAL_Driver/Inc/stm32f2xx_ll_system.h ****   * @brief  Return the device revision identifier
 426:Drivers/STM32F2xx_HAL_Driver/Inc/stm32f2xx_ll_system.h ****   * @note This field indicates the revision of the device.
 427:Drivers/STM32F2xx_HAL_Driver/Inc/stm32f2xx_ll_system.h ****           For example, it is read as revA -> 0x1000,revZ -> 0x1001, revB -> 0x2000, revY -> 0x2001,
 428:Drivers/STM32F2xx_HAL_Driver/Inc/stm32f2xx_ll_system.h ****   * @rmtoll DBGMCU_IDCODE REV_ID        LL_DBGMCU_GetRevisionID
 429:Drivers/STM32F2xx_HAL_Driver/Inc/stm32f2xx_ll_system.h ****   * @retval Values between Min_Data=0x00 and Max_Data=0xFFFF
 430:Drivers/STM32F2xx_HAL_Driver/Inc/stm32f2xx_ll_system.h ****   */
 431:Drivers/STM32F2xx_HAL_Driver/Inc/stm32f2xx_ll_system.h **** __STATIC_INLINE uint32_t LL_DBGMCU_GetRevisionID(void)
 432:Drivers/STM32F2xx_HAL_Driver/Inc/stm32f2xx_ll_system.h **** {
 433:Drivers/STM32F2xx_HAL_Driver/Inc/stm32f2xx_ll_system.h ****   return (uint32_t)(READ_BIT(DBGMCU->IDCODE, DBGMCU_IDCODE_REV_ID) >> DBGMCU_IDCODE_REV_ID_Pos);
 434:Drivers/STM32F2xx_HAL_Driver/Inc/stm32f2xx_ll_system.h **** }
 435:Drivers/STM32F2xx_HAL_Driver/Inc/stm32f2xx_ll_system.h **** 
 436:Drivers/STM32F2xx_HAL_Driver/Inc/stm32f2xx_ll_system.h **** /**
 437:Drivers/STM32F2xx_HAL_Driver/Inc/stm32f2xx_ll_system.h ****   * @brief  Enable the Debug Module during SLEEP mode
 438:Drivers/STM32F2xx_HAL_Driver/Inc/stm32f2xx_ll_system.h ****   * @rmtoll DBGMCU_CR    DBG_SLEEP     LL_DBGMCU_EnableDBGSleepMode
 439:Drivers/STM32F2xx_HAL_Driver/Inc/stm32f2xx_ll_system.h ****   * @retval None
 440:Drivers/STM32F2xx_HAL_Driver/Inc/stm32f2xx_ll_system.h ****   */
 441:Drivers/STM32F2xx_HAL_Driver/Inc/stm32f2xx_ll_system.h **** __STATIC_INLINE void LL_DBGMCU_EnableDBGSleepMode(void)
 442:Drivers/STM32F2xx_HAL_Driver/Inc/stm32f2xx_ll_system.h **** {
 443:Drivers/STM32F2xx_HAL_Driver/Inc/stm32f2xx_ll_system.h ****   SET_BIT(DBGMCU->CR, DBGMCU_CR_DBG_SLEEP);
 444:Drivers/STM32F2xx_HAL_Driver/Inc/stm32f2xx_ll_system.h **** }
 445:Drivers/STM32F2xx_HAL_Driver/Inc/stm32f2xx_ll_system.h **** 
 446:Drivers/STM32F2xx_HAL_Driver/Inc/stm32f2xx_ll_system.h **** /**
 447:Drivers/STM32F2xx_HAL_Driver/Inc/stm32f2xx_ll_system.h ****   * @brief  Disable the Debug Module during SLEEP mode
 448:Drivers/STM32F2xx_HAL_Driver/Inc/stm32f2xx_ll_system.h ****   * @rmtoll DBGMCU_CR    DBG_SLEEP     LL_DBGMCU_DisableDBGSleepMode
 449:Drivers/STM32F2xx_HAL_Driver/Inc/stm32f2xx_ll_system.h ****   * @retval None
 450:Drivers/STM32F2xx_HAL_Driver/Inc/stm32f2xx_ll_system.h ****   */
 451:Drivers/STM32F2xx_HAL_Driver/Inc/stm32f2xx_ll_system.h **** __STATIC_INLINE void LL_DBGMCU_DisableDBGSleepMode(void)
 452:Drivers/STM32F2xx_HAL_Driver/Inc/stm32f2xx_ll_system.h **** {
 453:Drivers/STM32F2xx_HAL_Driver/Inc/stm32f2xx_ll_system.h ****   CLEAR_BIT(DBGMCU->CR, DBGMCU_CR_DBG_SLEEP);
 454:Drivers/STM32F2xx_HAL_Driver/Inc/stm32f2xx_ll_system.h **** }
 455:Drivers/STM32F2xx_HAL_Driver/Inc/stm32f2xx_ll_system.h **** 
 456:Drivers/STM32F2xx_HAL_Driver/Inc/stm32f2xx_ll_system.h **** /**
 457:Drivers/STM32F2xx_HAL_Driver/Inc/stm32f2xx_ll_system.h ****   * @brief  Enable the Debug Module during STOP mode
 458:Drivers/STM32F2xx_HAL_Driver/Inc/stm32f2xx_ll_system.h ****   * @rmtoll DBGMCU_CR    DBG_STOP      LL_DBGMCU_EnableDBGStopMode
 459:Drivers/STM32F2xx_HAL_Driver/Inc/stm32f2xx_ll_system.h ****   * @retval None
 460:Drivers/STM32F2xx_HAL_Driver/Inc/stm32f2xx_ll_system.h ****   */
 461:Drivers/STM32F2xx_HAL_Driver/Inc/stm32f2xx_ll_system.h **** __STATIC_INLINE void LL_DBGMCU_EnableDBGStopMode(void)
 462:Drivers/STM32F2xx_HAL_Driver/Inc/stm32f2xx_ll_system.h **** {
 463:Drivers/STM32F2xx_HAL_Driver/Inc/stm32f2xx_ll_system.h ****   SET_BIT(DBGMCU->CR, DBGMCU_CR_DBG_STOP);
 464:Drivers/STM32F2xx_HAL_Driver/Inc/stm32f2xx_ll_system.h **** }
 465:Drivers/STM32F2xx_HAL_Driver/Inc/stm32f2xx_ll_system.h **** 
 466:Drivers/STM32F2xx_HAL_Driver/Inc/stm32f2xx_ll_system.h **** /**
 467:Drivers/STM32F2xx_HAL_Driver/Inc/stm32f2xx_ll_system.h ****   * @brief  Disable the Debug Module during STOP mode
 468:Drivers/STM32F2xx_HAL_Driver/Inc/stm32f2xx_ll_system.h ****   * @rmtoll DBGMCU_CR    DBG_STOP      LL_DBGMCU_DisableDBGStopMode
 469:Drivers/STM32F2xx_HAL_Driver/Inc/stm32f2xx_ll_system.h ****   * @retval None
 470:Drivers/STM32F2xx_HAL_Driver/Inc/stm32f2xx_ll_system.h ****   */
 471:Drivers/STM32F2xx_HAL_Driver/Inc/stm32f2xx_ll_system.h **** __STATIC_INLINE void LL_DBGMCU_DisableDBGStopMode(void)
 472:Drivers/STM32F2xx_HAL_Driver/Inc/stm32f2xx_ll_system.h **** {
 473:Drivers/STM32F2xx_HAL_Driver/Inc/stm32f2xx_ll_system.h ****   CLEAR_BIT(DBGMCU->CR, DBGMCU_CR_DBG_STOP);
ARM GAS  C:\Users\Artem\AppData\Local\Temp\cc8fbasp.s 			page 22


 474:Drivers/STM32F2xx_HAL_Driver/Inc/stm32f2xx_ll_system.h **** }
 475:Drivers/STM32F2xx_HAL_Driver/Inc/stm32f2xx_ll_system.h **** 
 476:Drivers/STM32F2xx_HAL_Driver/Inc/stm32f2xx_ll_system.h **** /**
 477:Drivers/STM32F2xx_HAL_Driver/Inc/stm32f2xx_ll_system.h ****   * @brief  Enable the Debug Module during STANDBY mode
 478:Drivers/STM32F2xx_HAL_Driver/Inc/stm32f2xx_ll_system.h ****   * @rmtoll DBGMCU_CR    DBG_STANDBY   LL_DBGMCU_EnableDBGStandbyMode
 479:Drivers/STM32F2xx_HAL_Driver/Inc/stm32f2xx_ll_system.h ****   * @retval None
 480:Drivers/STM32F2xx_HAL_Driver/Inc/stm32f2xx_ll_system.h ****   */
 481:Drivers/STM32F2xx_HAL_Driver/Inc/stm32f2xx_ll_system.h **** __STATIC_INLINE void LL_DBGMCU_EnableDBGStandbyMode(void)
 482:Drivers/STM32F2xx_HAL_Driver/Inc/stm32f2xx_ll_system.h **** {
 483:Drivers/STM32F2xx_HAL_Driver/Inc/stm32f2xx_ll_system.h ****   SET_BIT(DBGMCU->CR, DBGMCU_CR_DBG_STANDBY);
 484:Drivers/STM32F2xx_HAL_Driver/Inc/stm32f2xx_ll_system.h **** }
 485:Drivers/STM32F2xx_HAL_Driver/Inc/stm32f2xx_ll_system.h **** 
 486:Drivers/STM32F2xx_HAL_Driver/Inc/stm32f2xx_ll_system.h **** /**
 487:Drivers/STM32F2xx_HAL_Driver/Inc/stm32f2xx_ll_system.h ****   * @brief  Disable the Debug Module during STANDBY mode
 488:Drivers/STM32F2xx_HAL_Driver/Inc/stm32f2xx_ll_system.h ****   * @rmtoll DBGMCU_CR    DBG_STANDBY   LL_DBGMCU_DisableDBGStandbyMode
 489:Drivers/STM32F2xx_HAL_Driver/Inc/stm32f2xx_ll_system.h ****   * @retval None
 490:Drivers/STM32F2xx_HAL_Driver/Inc/stm32f2xx_ll_system.h ****   */
 491:Drivers/STM32F2xx_HAL_Driver/Inc/stm32f2xx_ll_system.h **** __STATIC_INLINE void LL_DBGMCU_DisableDBGStandbyMode(void)
 492:Drivers/STM32F2xx_HAL_Driver/Inc/stm32f2xx_ll_system.h **** {
 493:Drivers/STM32F2xx_HAL_Driver/Inc/stm32f2xx_ll_system.h ****   CLEAR_BIT(DBGMCU->CR, DBGMCU_CR_DBG_STANDBY);
 494:Drivers/STM32F2xx_HAL_Driver/Inc/stm32f2xx_ll_system.h **** }
 495:Drivers/STM32F2xx_HAL_Driver/Inc/stm32f2xx_ll_system.h **** 
 496:Drivers/STM32F2xx_HAL_Driver/Inc/stm32f2xx_ll_system.h **** /**
 497:Drivers/STM32F2xx_HAL_Driver/Inc/stm32f2xx_ll_system.h ****   * @brief  Set Trace pin assignment control
 498:Drivers/STM32F2xx_HAL_Driver/Inc/stm32f2xx_ll_system.h ****   * @rmtoll DBGMCU_CR    TRACE_IOEN    LL_DBGMCU_SetTracePinAssignment\n
 499:Drivers/STM32F2xx_HAL_Driver/Inc/stm32f2xx_ll_system.h ****   *         DBGMCU_CR    TRACE_MODE    LL_DBGMCU_SetTracePinAssignment
 500:Drivers/STM32F2xx_HAL_Driver/Inc/stm32f2xx_ll_system.h ****   * @param  PinAssignment This parameter can be one of the following values:
 501:Drivers/STM32F2xx_HAL_Driver/Inc/stm32f2xx_ll_system.h ****   *         @arg @ref LL_DBGMCU_TRACE_NONE
 502:Drivers/STM32F2xx_HAL_Driver/Inc/stm32f2xx_ll_system.h ****   *         @arg @ref LL_DBGMCU_TRACE_ASYNCH
 503:Drivers/STM32F2xx_HAL_Driver/Inc/stm32f2xx_ll_system.h ****   *         @arg @ref LL_DBGMCU_TRACE_SYNCH_SIZE1
 504:Drivers/STM32F2xx_HAL_Driver/Inc/stm32f2xx_ll_system.h ****   *         @arg @ref LL_DBGMCU_TRACE_SYNCH_SIZE2
 505:Drivers/STM32F2xx_HAL_Driver/Inc/stm32f2xx_ll_system.h ****   *         @arg @ref LL_DBGMCU_TRACE_SYNCH_SIZE4
 506:Drivers/STM32F2xx_HAL_Driver/Inc/stm32f2xx_ll_system.h ****   * @retval None
 507:Drivers/STM32F2xx_HAL_Driver/Inc/stm32f2xx_ll_system.h ****   */
 508:Drivers/STM32F2xx_HAL_Driver/Inc/stm32f2xx_ll_system.h **** __STATIC_INLINE void LL_DBGMCU_SetTracePinAssignment(uint32_t PinAssignment)
 509:Drivers/STM32F2xx_HAL_Driver/Inc/stm32f2xx_ll_system.h **** {
 510:Drivers/STM32F2xx_HAL_Driver/Inc/stm32f2xx_ll_system.h ****   MODIFY_REG(DBGMCU->CR, DBGMCU_CR_TRACE_IOEN | DBGMCU_CR_TRACE_MODE, PinAssignment);
 511:Drivers/STM32F2xx_HAL_Driver/Inc/stm32f2xx_ll_system.h **** }
 512:Drivers/STM32F2xx_HAL_Driver/Inc/stm32f2xx_ll_system.h **** 
 513:Drivers/STM32F2xx_HAL_Driver/Inc/stm32f2xx_ll_system.h **** /**
 514:Drivers/STM32F2xx_HAL_Driver/Inc/stm32f2xx_ll_system.h ****   * @brief  Get Trace pin assignment control
 515:Drivers/STM32F2xx_HAL_Driver/Inc/stm32f2xx_ll_system.h ****   * @rmtoll DBGMCU_CR    TRACE_IOEN    LL_DBGMCU_GetTracePinAssignment\n
 516:Drivers/STM32F2xx_HAL_Driver/Inc/stm32f2xx_ll_system.h ****   *         DBGMCU_CR    TRACE_MODE    LL_DBGMCU_GetTracePinAssignment
 517:Drivers/STM32F2xx_HAL_Driver/Inc/stm32f2xx_ll_system.h ****   * @retval Returned value can be one of the following values:
 518:Drivers/STM32F2xx_HAL_Driver/Inc/stm32f2xx_ll_system.h ****   *         @arg @ref LL_DBGMCU_TRACE_NONE
 519:Drivers/STM32F2xx_HAL_Driver/Inc/stm32f2xx_ll_system.h ****   *         @arg @ref LL_DBGMCU_TRACE_ASYNCH
 520:Drivers/STM32F2xx_HAL_Driver/Inc/stm32f2xx_ll_system.h ****   *         @arg @ref LL_DBGMCU_TRACE_SYNCH_SIZE1
 521:Drivers/STM32F2xx_HAL_Driver/Inc/stm32f2xx_ll_system.h ****   *         @arg @ref LL_DBGMCU_TRACE_SYNCH_SIZE2
 522:Drivers/STM32F2xx_HAL_Driver/Inc/stm32f2xx_ll_system.h ****   *         @arg @ref LL_DBGMCU_TRACE_SYNCH_SIZE4
 523:Drivers/STM32F2xx_HAL_Driver/Inc/stm32f2xx_ll_system.h ****   */
 524:Drivers/STM32F2xx_HAL_Driver/Inc/stm32f2xx_ll_system.h **** __STATIC_INLINE uint32_t LL_DBGMCU_GetTracePinAssignment(void)
 525:Drivers/STM32F2xx_HAL_Driver/Inc/stm32f2xx_ll_system.h **** {
 526:Drivers/STM32F2xx_HAL_Driver/Inc/stm32f2xx_ll_system.h ****   return (uint32_t)(READ_BIT(DBGMCU->CR, DBGMCU_CR_TRACE_IOEN | DBGMCU_CR_TRACE_MODE));
 527:Drivers/STM32F2xx_HAL_Driver/Inc/stm32f2xx_ll_system.h **** }
 528:Drivers/STM32F2xx_HAL_Driver/Inc/stm32f2xx_ll_system.h **** 
 529:Drivers/STM32F2xx_HAL_Driver/Inc/stm32f2xx_ll_system.h **** /**
 530:Drivers/STM32F2xx_HAL_Driver/Inc/stm32f2xx_ll_system.h ****   * @brief  Freeze APB1 peripherals (group1 peripherals)
ARM GAS  C:\Users\Artem\AppData\Local\Temp\cc8fbasp.s 			page 23


 531:Drivers/STM32F2xx_HAL_Driver/Inc/stm32f2xx_ll_system.h ****   * @rmtoll DBGMCU_APB1_FZ      DBG_TIM2_STOP           LL_DBGMCU_APB1_GRP1_FreezePeriph\n
 532:Drivers/STM32F2xx_HAL_Driver/Inc/stm32f2xx_ll_system.h ****   *         DBGMCU_APB1_FZ      DBG_TIM3_STOP           LL_DBGMCU_APB1_GRP1_FreezePeriph\n
 533:Drivers/STM32F2xx_HAL_Driver/Inc/stm32f2xx_ll_system.h ****   *         DBGMCU_APB1_FZ      DBG_TIM4_STOP           LL_DBGMCU_APB1_GRP1_FreezePeriph\n
 534:Drivers/STM32F2xx_HAL_Driver/Inc/stm32f2xx_ll_system.h ****   *         DBGMCU_APB1_FZ      DBG_TIM5_STOP           LL_DBGMCU_APB1_GRP1_FreezePeriph\n
 535:Drivers/STM32F2xx_HAL_Driver/Inc/stm32f2xx_ll_system.h ****   *         DBGMCU_APB1_FZ      DBG_TIM6_STOP           LL_DBGMCU_APB1_GRP1_FreezePeriph\n
 536:Drivers/STM32F2xx_HAL_Driver/Inc/stm32f2xx_ll_system.h ****   *         DBGMCU_APB1_FZ      DBG_TIM7_STOP           LL_DBGMCU_APB1_GRP1_FreezePeriph\n
 537:Drivers/STM32F2xx_HAL_Driver/Inc/stm32f2xx_ll_system.h ****   *         DBGMCU_APB1_FZ      DBG_TIM12_STOP          LL_DBGMCU_APB1_GRP1_FreezePeriph\n
 538:Drivers/STM32F2xx_HAL_Driver/Inc/stm32f2xx_ll_system.h ****   *         DBGMCU_APB1_FZ      DBG_TIM13_STOP          LL_DBGMCU_APB1_GRP1_FreezePeriph\n
 539:Drivers/STM32F2xx_HAL_Driver/Inc/stm32f2xx_ll_system.h ****   *         DBGMCU_APB1_FZ      DBG_TIM14_STOP          LL_DBGMCU_APB1_GRP1_FreezePeriph\n
 540:Drivers/STM32F2xx_HAL_Driver/Inc/stm32f2xx_ll_system.h ****   *         DBGMCU_APB1_FZ      DBG_RTC_STOP            LL_DBGMCU_APB1_GRP1_FreezePeriph\n
 541:Drivers/STM32F2xx_HAL_Driver/Inc/stm32f2xx_ll_system.h ****   *         DBGMCU_APB1_FZ      DBG_WWDG_STOP           LL_DBGMCU_APB1_GRP1_FreezePeriph\n
 542:Drivers/STM32F2xx_HAL_Driver/Inc/stm32f2xx_ll_system.h ****   *         DBGMCU_APB1_FZ      DBG_IWDG_STOP           LL_DBGMCU_APB1_GRP1_FreezePeriph\n
 543:Drivers/STM32F2xx_HAL_Driver/Inc/stm32f2xx_ll_system.h ****   *         DBGMCU_APB1_FZ      DBG_I2C1_SMBUS_TIMEOUT  LL_DBGMCU_APB1_GRP1_FreezePeriph\n
 544:Drivers/STM32F2xx_HAL_Driver/Inc/stm32f2xx_ll_system.h ****   *         DBGMCU_APB1_FZ      DBG_I2C2_SMBUS_TIMEOUT  LL_DBGMCU_APB1_GRP1_FreezePeriph\n
 545:Drivers/STM32F2xx_HAL_Driver/Inc/stm32f2xx_ll_system.h ****   *         DBGMCU_APB1_FZ      DBG_I2C3_SMBUS_TIMEOUT  LL_DBGMCU_APB1_GRP1_FreezePeriph\n
 546:Drivers/STM32F2xx_HAL_Driver/Inc/stm32f2xx_ll_system.h ****   *         DBGMCU_APB1_FZ      DBG_CAN1_STOP           LL_DBGMCU_APB1_GRP1_FreezePeriph\n
 547:Drivers/STM32F2xx_HAL_Driver/Inc/stm32f2xx_ll_system.h ****   *         DBGMCU_APB1_FZ      DBG_CAN2_STOP           LL_DBGMCU_APB1_GRP1_FreezePeriph
 548:Drivers/STM32F2xx_HAL_Driver/Inc/stm32f2xx_ll_system.h ****   * @param  Periphs This parameter can be a combination of the following values:
 549:Drivers/STM32F2xx_HAL_Driver/Inc/stm32f2xx_ll_system.h ****   *         @arg @ref LL_DBGMCU_APB1_GRP1_TIM2_STOP
 550:Drivers/STM32F2xx_HAL_Driver/Inc/stm32f2xx_ll_system.h ****   *         @arg @ref LL_DBGMCU_APB1_GRP1_TIM3_STOP
 551:Drivers/STM32F2xx_HAL_Driver/Inc/stm32f2xx_ll_system.h ****   *         @arg @ref LL_DBGMCU_APB1_GRP1_TIM4_STOP
 552:Drivers/STM32F2xx_HAL_Driver/Inc/stm32f2xx_ll_system.h ****   *         @arg @ref LL_DBGMCU_APB1_GRP1_TIM5_STOP
 553:Drivers/STM32F2xx_HAL_Driver/Inc/stm32f2xx_ll_system.h ****   *         @arg @ref LL_DBGMCU_APB1_GRP1_TIM6_STOP
 554:Drivers/STM32F2xx_HAL_Driver/Inc/stm32f2xx_ll_system.h ****   *         @arg @ref LL_DBGMCU_APB1_GRP1_TIM7_STOP
 555:Drivers/STM32F2xx_HAL_Driver/Inc/stm32f2xx_ll_system.h ****   *         @arg @ref LL_DBGMCU_APB1_GRP1_TIM12_STOP
 556:Drivers/STM32F2xx_HAL_Driver/Inc/stm32f2xx_ll_system.h ****   *         @arg @ref LL_DBGMCU_APB1_GRP1_TIM13_STOP
 557:Drivers/STM32F2xx_HAL_Driver/Inc/stm32f2xx_ll_system.h ****   *         @arg @ref LL_DBGMCU_APB1_GRP1_TIM14_STOP
 558:Drivers/STM32F2xx_HAL_Driver/Inc/stm32f2xx_ll_system.h ****   *         @arg @ref LL_DBGMCU_APB1_GRP1_RTC_STOP
 559:Drivers/STM32F2xx_HAL_Driver/Inc/stm32f2xx_ll_system.h ****   *         @arg @ref LL_DBGMCU_APB1_GRP1_WWDG_STOP
 560:Drivers/STM32F2xx_HAL_Driver/Inc/stm32f2xx_ll_system.h ****   *         @arg @ref LL_DBGMCU_APB1_GRP1_IWDG_STOP
 561:Drivers/STM32F2xx_HAL_Driver/Inc/stm32f2xx_ll_system.h ****   *         @arg @ref LL_DBGMCU_APB1_GRP1_I2C1_STOP
 562:Drivers/STM32F2xx_HAL_Driver/Inc/stm32f2xx_ll_system.h ****   *         @arg @ref LL_DBGMCU_APB1_GRP1_I2C2_STOP
 563:Drivers/STM32F2xx_HAL_Driver/Inc/stm32f2xx_ll_system.h ****   *         @arg @ref LL_DBGMCU_APB1_GRP1_I2C3_STOP
 564:Drivers/STM32F2xx_HAL_Driver/Inc/stm32f2xx_ll_system.h ****   *         @arg @ref LL_DBGMCU_APB1_GRP1_CAN1_STOP
 565:Drivers/STM32F2xx_HAL_Driver/Inc/stm32f2xx_ll_system.h ****   *         @arg @ref LL_DBGMCU_APB1_GRP1_CAN2_STOP
 566:Drivers/STM32F2xx_HAL_Driver/Inc/stm32f2xx_ll_system.h ****   *
 567:Drivers/STM32F2xx_HAL_Driver/Inc/stm32f2xx_ll_system.h ****   *         (*) value not defined in all devices.
 568:Drivers/STM32F2xx_HAL_Driver/Inc/stm32f2xx_ll_system.h ****   * @retval None
 569:Drivers/STM32F2xx_HAL_Driver/Inc/stm32f2xx_ll_system.h ****   */
 570:Drivers/STM32F2xx_HAL_Driver/Inc/stm32f2xx_ll_system.h **** __STATIC_INLINE void LL_DBGMCU_APB1_GRP1_FreezePeriph(uint32_t Periphs)
 571:Drivers/STM32F2xx_HAL_Driver/Inc/stm32f2xx_ll_system.h **** {
 572:Drivers/STM32F2xx_HAL_Driver/Inc/stm32f2xx_ll_system.h ****   SET_BIT(DBGMCU->APB1FZ, Periphs);
 573:Drivers/STM32F2xx_HAL_Driver/Inc/stm32f2xx_ll_system.h **** }
 574:Drivers/STM32F2xx_HAL_Driver/Inc/stm32f2xx_ll_system.h **** 
 575:Drivers/STM32F2xx_HAL_Driver/Inc/stm32f2xx_ll_system.h **** /**
 576:Drivers/STM32F2xx_HAL_Driver/Inc/stm32f2xx_ll_system.h ****   * @brief  Unfreeze APB1 peripherals (group1 peripherals)
 577:Drivers/STM32F2xx_HAL_Driver/Inc/stm32f2xx_ll_system.h ****   * @rmtoll DBGMCU_APB1_FZ      DBG_TIM2_STOP           LL_DBGMCU_APB1_GRP1_UnFreezePeriph\n
 578:Drivers/STM32F2xx_HAL_Driver/Inc/stm32f2xx_ll_system.h ****   *         DBGMCU_APB1_FZ      DBG_TIM3_STOP           LL_DBGMCU_APB1_GRP1_UnFreezePeriph\n
 579:Drivers/STM32F2xx_HAL_Driver/Inc/stm32f2xx_ll_system.h ****   *         DBGMCU_APB1_FZ      DBG_TIM4_STOP           LL_DBGMCU_APB1_GRP1_UnFreezePeriph\n
 580:Drivers/STM32F2xx_HAL_Driver/Inc/stm32f2xx_ll_system.h ****   *         DBGMCU_APB1_FZ      DBG_TIM5_STOP           LL_DBGMCU_APB1_GRP1_UnFreezePeriph\n
 581:Drivers/STM32F2xx_HAL_Driver/Inc/stm32f2xx_ll_system.h ****   *         DBGMCU_APB1_FZ      DBG_TIM6_STOP           LL_DBGMCU_APB1_GRP1_UnFreezePeriph\n
 582:Drivers/STM32F2xx_HAL_Driver/Inc/stm32f2xx_ll_system.h ****   *         DBGMCU_APB1_FZ      DBG_TIM7_STOP           LL_DBGMCU_APB1_GRP1_UnFreezePeriph\n
 583:Drivers/STM32F2xx_HAL_Driver/Inc/stm32f2xx_ll_system.h ****   *         DBGMCU_APB1_FZ      DBG_TIM12_STOP          LL_DBGMCU_APB1_GRP1_UnFreezePeriph\n
 584:Drivers/STM32F2xx_HAL_Driver/Inc/stm32f2xx_ll_system.h ****   *         DBGMCU_APB1_FZ      DBG_TIM13_STOP          LL_DBGMCU_APB1_GRP1_UnFreezePeriph\n
 585:Drivers/STM32F2xx_HAL_Driver/Inc/stm32f2xx_ll_system.h ****   *         DBGMCU_APB1_FZ      DBG_TIM14_STOP          LL_DBGMCU_APB1_GRP1_UnFreezePeriph\n
 586:Drivers/STM32F2xx_HAL_Driver/Inc/stm32f2xx_ll_system.h ****   *         DBGMCU_APB1_FZ      DBG_RTC_STOP            LL_DBGMCU_APB1_GRP1_UnFreezePeriph\n
 587:Drivers/STM32F2xx_HAL_Driver/Inc/stm32f2xx_ll_system.h ****   *         DBGMCU_APB1_FZ      DBG_WWDG_STOP           LL_DBGMCU_APB1_GRP1_UnFreezePeriph\n
ARM GAS  C:\Users\Artem\AppData\Local\Temp\cc8fbasp.s 			page 24


 588:Drivers/STM32F2xx_HAL_Driver/Inc/stm32f2xx_ll_system.h ****   *         DBGMCU_APB1_FZ      DBG_IWDG_STOP           LL_DBGMCU_APB1_GRP1_UnFreezePeriph\n
 589:Drivers/STM32F2xx_HAL_Driver/Inc/stm32f2xx_ll_system.h ****   *         DBGMCU_APB1_FZ      DBG_I2C1_SMBUS_TIMEOUT  LL_DBGMCU_APB1_GRP1_UnFreezePeriph\n
 590:Drivers/STM32F2xx_HAL_Driver/Inc/stm32f2xx_ll_system.h ****   *         DBGMCU_APB1_FZ      DBG_I2C2_SMBUS_TIMEOUT  LL_DBGMCU_APB1_GRP1_UnFreezePeriph\n
 591:Drivers/STM32F2xx_HAL_Driver/Inc/stm32f2xx_ll_system.h ****   *         DBGMCU_APB1_FZ      DBG_I2C3_SMBUS_TIMEOUT  LL_DBGMCU_APB1_GRP1_UnFreezePeriph\n
 592:Drivers/STM32F2xx_HAL_Driver/Inc/stm32f2xx_ll_system.h ****   *         DBGMCU_APB1_FZ      DBG_CAN1_STOP           LL_DBGMCU_APB1_GRP1_UnFreezePeriph\n
 593:Drivers/STM32F2xx_HAL_Driver/Inc/stm32f2xx_ll_system.h ****   *         DBGMCU_APB1_FZ      DBG_CAN2_STOP           LL_DBGMCU_APB1_GRP1_UnFreezePeriph
 594:Drivers/STM32F2xx_HAL_Driver/Inc/stm32f2xx_ll_system.h ****   * @param  Periphs This parameter can be a combination of the following values:
 595:Drivers/STM32F2xx_HAL_Driver/Inc/stm32f2xx_ll_system.h ****   *         @arg @ref LL_DBGMCU_APB1_GRP1_TIM2_STOP
 596:Drivers/STM32F2xx_HAL_Driver/Inc/stm32f2xx_ll_system.h ****   *         @arg @ref LL_DBGMCU_APB1_GRP1_TIM3_STOP
 597:Drivers/STM32F2xx_HAL_Driver/Inc/stm32f2xx_ll_system.h ****   *         @arg @ref LL_DBGMCU_APB1_GRP1_TIM4_STOP
 598:Drivers/STM32F2xx_HAL_Driver/Inc/stm32f2xx_ll_system.h ****   *         @arg @ref LL_DBGMCU_APB1_GRP1_TIM5_STOP
 599:Drivers/STM32F2xx_HAL_Driver/Inc/stm32f2xx_ll_system.h ****   *         @arg @ref LL_DBGMCU_APB1_GRP1_TIM6_STOP
 600:Drivers/STM32F2xx_HAL_Driver/Inc/stm32f2xx_ll_system.h ****   *         @arg @ref LL_DBGMCU_APB1_GRP1_TIM7_STOP
 601:Drivers/STM32F2xx_HAL_Driver/Inc/stm32f2xx_ll_system.h ****   *         @arg @ref LL_DBGMCU_APB1_GRP1_TIM12_STOP
 602:Drivers/STM32F2xx_HAL_Driver/Inc/stm32f2xx_ll_system.h ****   *         @arg @ref LL_DBGMCU_APB1_GRP1_TIM13_STOP
 603:Drivers/STM32F2xx_HAL_Driver/Inc/stm32f2xx_ll_system.h ****   *         @arg @ref LL_DBGMCU_APB1_GRP1_TIM14_STOP
 604:Drivers/STM32F2xx_HAL_Driver/Inc/stm32f2xx_ll_system.h ****   *         @arg @ref LL_DBGMCU_APB1_GRP1_RTC_STOP
 605:Drivers/STM32F2xx_HAL_Driver/Inc/stm32f2xx_ll_system.h ****   *         @arg @ref LL_DBGMCU_APB1_GRP1_WWDG_STOP
 606:Drivers/STM32F2xx_HAL_Driver/Inc/stm32f2xx_ll_system.h ****   *         @arg @ref LL_DBGMCU_APB1_GRP1_IWDG_STOP
 607:Drivers/STM32F2xx_HAL_Driver/Inc/stm32f2xx_ll_system.h ****   *         @arg @ref LL_DBGMCU_APB1_GRP1_I2C1_STOP
 608:Drivers/STM32F2xx_HAL_Driver/Inc/stm32f2xx_ll_system.h ****   *         @arg @ref LL_DBGMCU_APB1_GRP1_I2C2_STOP
 609:Drivers/STM32F2xx_HAL_Driver/Inc/stm32f2xx_ll_system.h ****   *         @arg @ref LL_DBGMCU_APB1_GRP1_I2C3_STOP
 610:Drivers/STM32F2xx_HAL_Driver/Inc/stm32f2xx_ll_system.h ****   *         @arg @ref LL_DBGMCU_APB1_GRP1_CAN1_STOP
 611:Drivers/STM32F2xx_HAL_Driver/Inc/stm32f2xx_ll_system.h ****   *         @arg @ref LL_DBGMCU_APB1_GRP1_CAN2_STOP
 612:Drivers/STM32F2xx_HAL_Driver/Inc/stm32f2xx_ll_system.h ****   *
 613:Drivers/STM32F2xx_HAL_Driver/Inc/stm32f2xx_ll_system.h ****   *         (*) value not defined in all devices.
 614:Drivers/STM32F2xx_HAL_Driver/Inc/stm32f2xx_ll_system.h ****   * @retval None
 615:Drivers/STM32F2xx_HAL_Driver/Inc/stm32f2xx_ll_system.h ****   */
 616:Drivers/STM32F2xx_HAL_Driver/Inc/stm32f2xx_ll_system.h **** __STATIC_INLINE void LL_DBGMCU_APB1_GRP1_UnFreezePeriph(uint32_t Periphs)
 617:Drivers/STM32F2xx_HAL_Driver/Inc/stm32f2xx_ll_system.h **** {
 618:Drivers/STM32F2xx_HAL_Driver/Inc/stm32f2xx_ll_system.h ****   CLEAR_BIT(DBGMCU->APB1FZ, Periphs);
 619:Drivers/STM32F2xx_HAL_Driver/Inc/stm32f2xx_ll_system.h **** }
 620:Drivers/STM32F2xx_HAL_Driver/Inc/stm32f2xx_ll_system.h **** 
 621:Drivers/STM32F2xx_HAL_Driver/Inc/stm32f2xx_ll_system.h **** /**
 622:Drivers/STM32F2xx_HAL_Driver/Inc/stm32f2xx_ll_system.h ****   * @brief  Freeze APB2 peripherals
 623:Drivers/STM32F2xx_HAL_Driver/Inc/stm32f2xx_ll_system.h ****   * @rmtoll DBGMCU_APB2_FZ      DBG_TIM1_STOP    LL_DBGMCU_APB2_GRP1_FreezePeriph\n
 624:Drivers/STM32F2xx_HAL_Driver/Inc/stm32f2xx_ll_system.h ****   *         DBGMCU_APB2_FZ      DBG_TIM8_STOP    LL_DBGMCU_APB2_GRP1_FreezePeriph\n
 625:Drivers/STM32F2xx_HAL_Driver/Inc/stm32f2xx_ll_system.h ****   *         DBGMCU_APB2_FZ      DBG_TIM9_STOP    LL_DBGMCU_APB2_GRP1_FreezePeriph\n
 626:Drivers/STM32F2xx_HAL_Driver/Inc/stm32f2xx_ll_system.h ****   *         DBGMCU_APB2_FZ      DBG_TIM10_STOP   LL_DBGMCU_APB2_GRP1_FreezePeriph\n
 627:Drivers/STM32F2xx_HAL_Driver/Inc/stm32f2xx_ll_system.h ****   *         DBGMCU_APB2_FZ      DBG_TIM11_STOP   LL_DBGMCU_APB2_GRP1_FreezePeriph
 628:Drivers/STM32F2xx_HAL_Driver/Inc/stm32f2xx_ll_system.h ****   * @param  Periphs This parameter can be a combination of the following values:
 629:Drivers/STM32F2xx_HAL_Driver/Inc/stm32f2xx_ll_system.h ****   *         @arg @ref LL_DBGMCU_APB2_GRP1_TIM1_STOP
 630:Drivers/STM32F2xx_HAL_Driver/Inc/stm32f2xx_ll_system.h ****   *         @arg @ref LL_DBGMCU_APB2_GRP1_TIM8_STOP
 631:Drivers/STM32F2xx_HAL_Driver/Inc/stm32f2xx_ll_system.h ****   *         @arg @ref LL_DBGMCU_APB2_GRP1_TIM9_STOP
 632:Drivers/STM32F2xx_HAL_Driver/Inc/stm32f2xx_ll_system.h ****   *         @arg @ref LL_DBGMCU_APB2_GRP1_TIM10_STOP
 633:Drivers/STM32F2xx_HAL_Driver/Inc/stm32f2xx_ll_system.h ****   *         @arg @ref LL_DBGMCU_APB2_GRP1_TIM11_STOP
 634:Drivers/STM32F2xx_HAL_Driver/Inc/stm32f2xx_ll_system.h ****   *
 635:Drivers/STM32F2xx_HAL_Driver/Inc/stm32f2xx_ll_system.h ****   *         (*) value not defined in all devices.
 636:Drivers/STM32F2xx_HAL_Driver/Inc/stm32f2xx_ll_system.h ****   * @retval None
 637:Drivers/STM32F2xx_HAL_Driver/Inc/stm32f2xx_ll_system.h ****   */
 638:Drivers/STM32F2xx_HAL_Driver/Inc/stm32f2xx_ll_system.h **** __STATIC_INLINE void LL_DBGMCU_APB2_GRP1_FreezePeriph(uint32_t Periphs)
 639:Drivers/STM32F2xx_HAL_Driver/Inc/stm32f2xx_ll_system.h **** {
 640:Drivers/STM32F2xx_HAL_Driver/Inc/stm32f2xx_ll_system.h ****   SET_BIT(DBGMCU->APB2FZ, Periphs);
 641:Drivers/STM32F2xx_HAL_Driver/Inc/stm32f2xx_ll_system.h **** }
 642:Drivers/STM32F2xx_HAL_Driver/Inc/stm32f2xx_ll_system.h **** 
 643:Drivers/STM32F2xx_HAL_Driver/Inc/stm32f2xx_ll_system.h **** /**
 644:Drivers/STM32F2xx_HAL_Driver/Inc/stm32f2xx_ll_system.h ****   * @brief  Unfreeze APB2 peripherals
ARM GAS  C:\Users\Artem\AppData\Local\Temp\cc8fbasp.s 			page 25


 645:Drivers/STM32F2xx_HAL_Driver/Inc/stm32f2xx_ll_system.h ****   * @rmtoll DBGMCU_APB2_FZ      DBG_TIM1_STOP    LL_DBGMCU_APB2_GRP1_UnFreezePeriph\n
 646:Drivers/STM32F2xx_HAL_Driver/Inc/stm32f2xx_ll_system.h ****   *         DBGMCU_APB2_FZ      DBG_TIM8_STOP    LL_DBGMCU_APB2_GRP1_UnFreezePeriph\n
 647:Drivers/STM32F2xx_HAL_Driver/Inc/stm32f2xx_ll_system.h ****   *         DBGMCU_APB2_FZ      DBG_TIM9_STOP    LL_DBGMCU_APB2_GRP1_UnFreezePeriph\n
 648:Drivers/STM32F2xx_HAL_Driver/Inc/stm32f2xx_ll_system.h ****   *         DBGMCU_APB2_FZ      DBG_TIM10_STOP   LL_DBGMCU_APB2_GRP1_UnFreezePeriph\n
 649:Drivers/STM32F2xx_HAL_Driver/Inc/stm32f2xx_ll_system.h ****   *         DBGMCU_APB2_FZ      DBG_TIM11_STOP   LL_DBGMCU_APB2_GRP1_UnFreezePeriph
 650:Drivers/STM32F2xx_HAL_Driver/Inc/stm32f2xx_ll_system.h ****   * @param  Periphs This parameter can be a combination of the following values:
 651:Drivers/STM32F2xx_HAL_Driver/Inc/stm32f2xx_ll_system.h ****   *         @arg @ref LL_DBGMCU_APB2_GRP1_TIM1_STOP
 652:Drivers/STM32F2xx_HAL_Driver/Inc/stm32f2xx_ll_system.h ****   *         @arg @ref LL_DBGMCU_APB2_GRP1_TIM8_STOP
 653:Drivers/STM32F2xx_HAL_Driver/Inc/stm32f2xx_ll_system.h ****   *         @arg @ref LL_DBGMCU_APB2_GRP1_TIM9_STOP
 654:Drivers/STM32F2xx_HAL_Driver/Inc/stm32f2xx_ll_system.h ****   *         @arg @ref LL_DBGMCU_APB2_GRP1_TIM10_STOP
 655:Drivers/STM32F2xx_HAL_Driver/Inc/stm32f2xx_ll_system.h ****   *         @arg @ref LL_DBGMCU_APB2_GRP1_TIM11_STOP
 656:Drivers/STM32F2xx_HAL_Driver/Inc/stm32f2xx_ll_system.h ****   *
 657:Drivers/STM32F2xx_HAL_Driver/Inc/stm32f2xx_ll_system.h ****   *         (*) value not defined in all devices.
 658:Drivers/STM32F2xx_HAL_Driver/Inc/stm32f2xx_ll_system.h ****   * @retval None
 659:Drivers/STM32F2xx_HAL_Driver/Inc/stm32f2xx_ll_system.h ****   */
 660:Drivers/STM32F2xx_HAL_Driver/Inc/stm32f2xx_ll_system.h **** __STATIC_INLINE void LL_DBGMCU_APB2_GRP1_UnFreezePeriph(uint32_t Periphs)
 661:Drivers/STM32F2xx_HAL_Driver/Inc/stm32f2xx_ll_system.h **** {
 662:Drivers/STM32F2xx_HAL_Driver/Inc/stm32f2xx_ll_system.h ****   CLEAR_BIT(DBGMCU->APB2FZ, Periphs);
 663:Drivers/STM32F2xx_HAL_Driver/Inc/stm32f2xx_ll_system.h **** }
 664:Drivers/STM32F2xx_HAL_Driver/Inc/stm32f2xx_ll_system.h **** /**
 665:Drivers/STM32F2xx_HAL_Driver/Inc/stm32f2xx_ll_system.h ****   * @}
 666:Drivers/STM32F2xx_HAL_Driver/Inc/stm32f2xx_ll_system.h ****   */
 667:Drivers/STM32F2xx_HAL_Driver/Inc/stm32f2xx_ll_system.h **** 
 668:Drivers/STM32F2xx_HAL_Driver/Inc/stm32f2xx_ll_system.h **** /** @defgroup SYSTEM_LL_EF_FLASH FLASH
 669:Drivers/STM32F2xx_HAL_Driver/Inc/stm32f2xx_ll_system.h ****   * @{
 670:Drivers/STM32F2xx_HAL_Driver/Inc/stm32f2xx_ll_system.h ****   */
 671:Drivers/STM32F2xx_HAL_Driver/Inc/stm32f2xx_ll_system.h **** 
 672:Drivers/STM32F2xx_HAL_Driver/Inc/stm32f2xx_ll_system.h **** /**
 673:Drivers/STM32F2xx_HAL_Driver/Inc/stm32f2xx_ll_system.h ****   * @brief  Set FLASH Latency
 674:Drivers/STM32F2xx_HAL_Driver/Inc/stm32f2xx_ll_system.h ****   * @rmtoll FLASH_ACR    LATENCY       LL_FLASH_SetLatency
 675:Drivers/STM32F2xx_HAL_Driver/Inc/stm32f2xx_ll_system.h ****   * @param  Latency This parameter can be one of the following values:
 676:Drivers/STM32F2xx_HAL_Driver/Inc/stm32f2xx_ll_system.h ****   *         @arg @ref LL_FLASH_LATENCY_0
 677:Drivers/STM32F2xx_HAL_Driver/Inc/stm32f2xx_ll_system.h ****   *         @arg @ref LL_FLASH_LATENCY_1
 678:Drivers/STM32F2xx_HAL_Driver/Inc/stm32f2xx_ll_system.h ****   *         @arg @ref LL_FLASH_LATENCY_2
 679:Drivers/STM32F2xx_HAL_Driver/Inc/stm32f2xx_ll_system.h ****   *         @arg @ref LL_FLASH_LATENCY_3
 680:Drivers/STM32F2xx_HAL_Driver/Inc/stm32f2xx_ll_system.h ****   *         @arg @ref LL_FLASH_LATENCY_4
 681:Drivers/STM32F2xx_HAL_Driver/Inc/stm32f2xx_ll_system.h ****   *         @arg @ref LL_FLASH_LATENCY_5
 682:Drivers/STM32F2xx_HAL_Driver/Inc/stm32f2xx_ll_system.h ****   *         @arg @ref LL_FLASH_LATENCY_6
 683:Drivers/STM32F2xx_HAL_Driver/Inc/stm32f2xx_ll_system.h ****   *         @arg @ref LL_FLASH_LATENCY_7
 684:Drivers/STM32F2xx_HAL_Driver/Inc/stm32f2xx_ll_system.h ****   * @retval None
 685:Drivers/STM32F2xx_HAL_Driver/Inc/stm32f2xx_ll_system.h ****   */
 686:Drivers/STM32F2xx_HAL_Driver/Inc/stm32f2xx_ll_system.h **** __STATIC_INLINE void LL_FLASH_SetLatency(uint32_t Latency)
 155              		.loc 4 686 22 view .LVU29
 156              	.LBB41:
 687:Drivers/STM32F2xx_HAL_Driver/Inc/stm32f2xx_ll_system.h **** {
 688:Drivers/STM32F2xx_HAL_Driver/Inc/stm32f2xx_ll_system.h ****   MODIFY_REG(FLASH->ACR, FLASH_ACR_LATENCY, Latency);
 157              		.loc 4 688 3 view .LVU30
 158 0002 2A4A     		ldr	r2, .L15
 159 0004 1368     		ldr	r3, [r2]
 160 0006 23F00F03 		bic	r3, r3, #15
 161 000a 43F00303 		orr	r3, r3, #3
 162 000e 1360     		str	r3, [r2]
 163              	.LVL4:
 164              	.L8:
 165              		.loc 4 688 3 is_stmt 0 view .LVU31
 166              	.LBE41:
 167              	.LBE40:
ARM GAS  C:\Users\Artem\AppData\Local\Temp\cc8fbasp.s 			page 26


 113:Core/Src/main.c ****   LL_RCC_HSE_Enable();
 168              		.loc 1 113 3 is_stmt 1 discriminator 1 view .LVU32
 111:Core/Src/main.c ****   {
 169              		.loc 1 111 8 discriminator 1 view .LVU33
 170              	.LBB42:
 171              	.LBI42:
 689:Drivers/STM32F2xx_HAL_Driver/Inc/stm32f2xx_ll_system.h **** }
 690:Drivers/STM32F2xx_HAL_Driver/Inc/stm32f2xx_ll_system.h **** 
 691:Drivers/STM32F2xx_HAL_Driver/Inc/stm32f2xx_ll_system.h **** /**
 692:Drivers/STM32F2xx_HAL_Driver/Inc/stm32f2xx_ll_system.h ****   * @brief  Get FLASH Latency
 693:Drivers/STM32F2xx_HAL_Driver/Inc/stm32f2xx_ll_system.h ****   * @rmtoll FLASH_ACR    LATENCY       LL_FLASH_GetLatency
 694:Drivers/STM32F2xx_HAL_Driver/Inc/stm32f2xx_ll_system.h ****   * @retval Returned value can be one of the following values:
 695:Drivers/STM32F2xx_HAL_Driver/Inc/stm32f2xx_ll_system.h ****   *         @arg @ref LL_FLASH_LATENCY_0
 696:Drivers/STM32F2xx_HAL_Driver/Inc/stm32f2xx_ll_system.h ****   *         @arg @ref LL_FLASH_LATENCY_1
 697:Drivers/STM32F2xx_HAL_Driver/Inc/stm32f2xx_ll_system.h ****   *         @arg @ref LL_FLASH_LATENCY_2
 698:Drivers/STM32F2xx_HAL_Driver/Inc/stm32f2xx_ll_system.h ****   *         @arg @ref LL_FLASH_LATENCY_3
 699:Drivers/STM32F2xx_HAL_Driver/Inc/stm32f2xx_ll_system.h ****   *         @arg @ref LL_FLASH_LATENCY_4
 700:Drivers/STM32F2xx_HAL_Driver/Inc/stm32f2xx_ll_system.h ****   *         @arg @ref LL_FLASH_LATENCY_5
 701:Drivers/STM32F2xx_HAL_Driver/Inc/stm32f2xx_ll_system.h ****   *         @arg @ref LL_FLASH_LATENCY_6
 702:Drivers/STM32F2xx_HAL_Driver/Inc/stm32f2xx_ll_system.h ****   *         @arg @ref LL_FLASH_LATENCY_7
 703:Drivers/STM32F2xx_HAL_Driver/Inc/stm32f2xx_ll_system.h ****   */
 704:Drivers/STM32F2xx_HAL_Driver/Inc/stm32f2xx_ll_system.h **** __STATIC_INLINE uint32_t LL_FLASH_GetLatency(void)
 172              		.loc 4 704 26 discriminator 1 view .LVU34
 173              	.LBB43:
 705:Drivers/STM32F2xx_HAL_Driver/Inc/stm32f2xx_ll_system.h **** {
 706:Drivers/STM32F2xx_HAL_Driver/Inc/stm32f2xx_ll_system.h ****   return (uint32_t)(READ_BIT(FLASH->ACR, FLASH_ACR_LATENCY));
 174              		.loc 4 706 3 discriminator 1 view .LVU35
 175              		.loc 4 706 21 is_stmt 0 discriminator 1 view .LVU36
 176 0010 264B     		ldr	r3, .L15
 177 0012 1B68     		ldr	r3, [r3]
 178              		.loc 4 706 10 discriminator 1 view .LVU37
 179 0014 03F00F03 		and	r3, r3, #15
 180              	.LBE43:
 181              	.LBE42:
 111:Core/Src/main.c ****   {
 182              		.loc 1 111 8 discriminator 1 view .LVU38
 183 0018 032B     		cmp	r3, #3
 184 001a F9D1     		bne	.L8
 114:Core/Src/main.c **** 
 185              		.loc 1 114 3 is_stmt 1 view .LVU39
 186              	.LBB44:
 187              	.LBI44:
 188              		.file 5 "Drivers/STM32F2xx_HAL_Driver/Inc/stm32f2xx_ll_rcc.h"
   1:Drivers/STM32F2xx_HAL_Driver/Inc/stm32f2xx_ll_rcc.h **** /**
   2:Drivers/STM32F2xx_HAL_Driver/Inc/stm32f2xx_ll_rcc.h ****   ******************************************************************************
   3:Drivers/STM32F2xx_HAL_Driver/Inc/stm32f2xx_ll_rcc.h ****   * @file    stm32f2xx_ll_rcc.h
   4:Drivers/STM32F2xx_HAL_Driver/Inc/stm32f2xx_ll_rcc.h ****   * @author  MCD Application Team
   5:Drivers/STM32F2xx_HAL_Driver/Inc/stm32f2xx_ll_rcc.h ****   * @brief   Header file of RCC LL module.
   6:Drivers/STM32F2xx_HAL_Driver/Inc/stm32f2xx_ll_rcc.h ****   ******************************************************************************
   7:Drivers/STM32F2xx_HAL_Driver/Inc/stm32f2xx_ll_rcc.h ****   * @attention
   8:Drivers/STM32F2xx_HAL_Driver/Inc/stm32f2xx_ll_rcc.h ****   *
   9:Drivers/STM32F2xx_HAL_Driver/Inc/stm32f2xx_ll_rcc.h ****   * <h2><center>&copy; Copyright (c) 2017 STMicroelectronics.
  10:Drivers/STM32F2xx_HAL_Driver/Inc/stm32f2xx_ll_rcc.h ****   * All rights reserved.</center></h2>
  11:Drivers/STM32F2xx_HAL_Driver/Inc/stm32f2xx_ll_rcc.h ****   *
  12:Drivers/STM32F2xx_HAL_Driver/Inc/stm32f2xx_ll_rcc.h ****   * This software component is licensed by ST under BSD 3-Clause license,
  13:Drivers/STM32F2xx_HAL_Driver/Inc/stm32f2xx_ll_rcc.h ****   * the "License"; You may not use this file except in compliance with the
  14:Drivers/STM32F2xx_HAL_Driver/Inc/stm32f2xx_ll_rcc.h ****   * License. You may obtain a copy of the License at:
ARM GAS  C:\Users\Artem\AppData\Local\Temp\cc8fbasp.s 			page 27


  15:Drivers/STM32F2xx_HAL_Driver/Inc/stm32f2xx_ll_rcc.h ****   *                        opensource.org/licenses/BSD-3-Clause
  16:Drivers/STM32F2xx_HAL_Driver/Inc/stm32f2xx_ll_rcc.h ****   *
  17:Drivers/STM32F2xx_HAL_Driver/Inc/stm32f2xx_ll_rcc.h ****   ******************************************************************************
  18:Drivers/STM32F2xx_HAL_Driver/Inc/stm32f2xx_ll_rcc.h ****   */
  19:Drivers/STM32F2xx_HAL_Driver/Inc/stm32f2xx_ll_rcc.h **** 
  20:Drivers/STM32F2xx_HAL_Driver/Inc/stm32f2xx_ll_rcc.h **** /* Define to prevent recursive inclusion -------------------------------------*/
  21:Drivers/STM32F2xx_HAL_Driver/Inc/stm32f2xx_ll_rcc.h **** #ifndef __STM32F2xx_LL_RCC_H
  22:Drivers/STM32F2xx_HAL_Driver/Inc/stm32f2xx_ll_rcc.h **** #define __STM32F2xx_LL_RCC_H
  23:Drivers/STM32F2xx_HAL_Driver/Inc/stm32f2xx_ll_rcc.h **** 
  24:Drivers/STM32F2xx_HAL_Driver/Inc/stm32f2xx_ll_rcc.h **** #ifdef __cplusplus
  25:Drivers/STM32F2xx_HAL_Driver/Inc/stm32f2xx_ll_rcc.h **** extern "C" {
  26:Drivers/STM32F2xx_HAL_Driver/Inc/stm32f2xx_ll_rcc.h **** #endif
  27:Drivers/STM32F2xx_HAL_Driver/Inc/stm32f2xx_ll_rcc.h **** 
  28:Drivers/STM32F2xx_HAL_Driver/Inc/stm32f2xx_ll_rcc.h **** /* Includes ------------------------------------------------------------------*/
  29:Drivers/STM32F2xx_HAL_Driver/Inc/stm32f2xx_ll_rcc.h **** #include "stm32f2xx.h"
  30:Drivers/STM32F2xx_HAL_Driver/Inc/stm32f2xx_ll_rcc.h **** 
  31:Drivers/STM32F2xx_HAL_Driver/Inc/stm32f2xx_ll_rcc.h **** /** @addtogroup STM32F2xx_LL_Driver
  32:Drivers/STM32F2xx_HAL_Driver/Inc/stm32f2xx_ll_rcc.h ****   * @{
  33:Drivers/STM32F2xx_HAL_Driver/Inc/stm32f2xx_ll_rcc.h ****   */
  34:Drivers/STM32F2xx_HAL_Driver/Inc/stm32f2xx_ll_rcc.h **** 
  35:Drivers/STM32F2xx_HAL_Driver/Inc/stm32f2xx_ll_rcc.h **** #if defined(RCC)
  36:Drivers/STM32F2xx_HAL_Driver/Inc/stm32f2xx_ll_rcc.h **** 
  37:Drivers/STM32F2xx_HAL_Driver/Inc/stm32f2xx_ll_rcc.h **** /** @defgroup RCC_LL RCC
  38:Drivers/STM32F2xx_HAL_Driver/Inc/stm32f2xx_ll_rcc.h ****   * @{
  39:Drivers/STM32F2xx_HAL_Driver/Inc/stm32f2xx_ll_rcc.h ****   */
  40:Drivers/STM32F2xx_HAL_Driver/Inc/stm32f2xx_ll_rcc.h **** 
  41:Drivers/STM32F2xx_HAL_Driver/Inc/stm32f2xx_ll_rcc.h **** /* Private types -------------------------------------------------------------*/
  42:Drivers/STM32F2xx_HAL_Driver/Inc/stm32f2xx_ll_rcc.h **** /* Private variables ---------------------------------------------------------*/
  43:Drivers/STM32F2xx_HAL_Driver/Inc/stm32f2xx_ll_rcc.h **** /** @defgroup RCC_LL_Private_Variables RCC Private Variables
  44:Drivers/STM32F2xx_HAL_Driver/Inc/stm32f2xx_ll_rcc.h ****   * @{
  45:Drivers/STM32F2xx_HAL_Driver/Inc/stm32f2xx_ll_rcc.h ****   */
  46:Drivers/STM32F2xx_HAL_Driver/Inc/stm32f2xx_ll_rcc.h **** 
  47:Drivers/STM32F2xx_HAL_Driver/Inc/stm32f2xx_ll_rcc.h **** /**
  48:Drivers/STM32F2xx_HAL_Driver/Inc/stm32f2xx_ll_rcc.h ****   * @}
  49:Drivers/STM32F2xx_HAL_Driver/Inc/stm32f2xx_ll_rcc.h ****   */
  50:Drivers/STM32F2xx_HAL_Driver/Inc/stm32f2xx_ll_rcc.h **** /* Private constants ---------------------------------------------------------*/
  51:Drivers/STM32F2xx_HAL_Driver/Inc/stm32f2xx_ll_rcc.h **** /* Private macros ------------------------------------------------------------*/
  52:Drivers/STM32F2xx_HAL_Driver/Inc/stm32f2xx_ll_rcc.h **** #if defined(USE_FULL_LL_DRIVER)
  53:Drivers/STM32F2xx_HAL_Driver/Inc/stm32f2xx_ll_rcc.h **** /** @defgroup RCC_LL_Private_Macros RCC Private Macros
  54:Drivers/STM32F2xx_HAL_Driver/Inc/stm32f2xx_ll_rcc.h ****   * @{
  55:Drivers/STM32F2xx_HAL_Driver/Inc/stm32f2xx_ll_rcc.h ****   */
  56:Drivers/STM32F2xx_HAL_Driver/Inc/stm32f2xx_ll_rcc.h **** /**
  57:Drivers/STM32F2xx_HAL_Driver/Inc/stm32f2xx_ll_rcc.h ****   * @}
  58:Drivers/STM32F2xx_HAL_Driver/Inc/stm32f2xx_ll_rcc.h ****   */
  59:Drivers/STM32F2xx_HAL_Driver/Inc/stm32f2xx_ll_rcc.h **** #endif /*USE_FULL_LL_DRIVER*/
  60:Drivers/STM32F2xx_HAL_Driver/Inc/stm32f2xx_ll_rcc.h **** 
  61:Drivers/STM32F2xx_HAL_Driver/Inc/stm32f2xx_ll_rcc.h **** /* Exported types ------------------------------------------------------------*/
  62:Drivers/STM32F2xx_HAL_Driver/Inc/stm32f2xx_ll_rcc.h **** #if defined(USE_FULL_LL_DRIVER)
  63:Drivers/STM32F2xx_HAL_Driver/Inc/stm32f2xx_ll_rcc.h **** /** @defgroup RCC_LL_Exported_Types RCC Exported Types
  64:Drivers/STM32F2xx_HAL_Driver/Inc/stm32f2xx_ll_rcc.h ****   * @{
  65:Drivers/STM32F2xx_HAL_Driver/Inc/stm32f2xx_ll_rcc.h ****   */
  66:Drivers/STM32F2xx_HAL_Driver/Inc/stm32f2xx_ll_rcc.h **** 
  67:Drivers/STM32F2xx_HAL_Driver/Inc/stm32f2xx_ll_rcc.h **** /** @defgroup LL_ES_CLOCK_FREQ Clocks Frequency Structure
  68:Drivers/STM32F2xx_HAL_Driver/Inc/stm32f2xx_ll_rcc.h ****   * @{
  69:Drivers/STM32F2xx_HAL_Driver/Inc/stm32f2xx_ll_rcc.h ****   */
  70:Drivers/STM32F2xx_HAL_Driver/Inc/stm32f2xx_ll_rcc.h **** 
  71:Drivers/STM32F2xx_HAL_Driver/Inc/stm32f2xx_ll_rcc.h **** /**
ARM GAS  C:\Users\Artem\AppData\Local\Temp\cc8fbasp.s 			page 28


  72:Drivers/STM32F2xx_HAL_Driver/Inc/stm32f2xx_ll_rcc.h ****   * @brief  RCC Clocks Frequency Structure
  73:Drivers/STM32F2xx_HAL_Driver/Inc/stm32f2xx_ll_rcc.h ****   */
  74:Drivers/STM32F2xx_HAL_Driver/Inc/stm32f2xx_ll_rcc.h **** typedef struct
  75:Drivers/STM32F2xx_HAL_Driver/Inc/stm32f2xx_ll_rcc.h **** {
  76:Drivers/STM32F2xx_HAL_Driver/Inc/stm32f2xx_ll_rcc.h ****   uint32_t SYSCLK_Frequency;        /*!< SYSCLK clock frequency */
  77:Drivers/STM32F2xx_HAL_Driver/Inc/stm32f2xx_ll_rcc.h ****   uint32_t HCLK_Frequency;          /*!< HCLK clock frequency */
  78:Drivers/STM32F2xx_HAL_Driver/Inc/stm32f2xx_ll_rcc.h ****   uint32_t PCLK1_Frequency;         /*!< PCLK1 clock frequency */
  79:Drivers/STM32F2xx_HAL_Driver/Inc/stm32f2xx_ll_rcc.h ****   uint32_t PCLK2_Frequency;         /*!< PCLK2 clock frequency */
  80:Drivers/STM32F2xx_HAL_Driver/Inc/stm32f2xx_ll_rcc.h **** } LL_RCC_ClocksTypeDef;
  81:Drivers/STM32F2xx_HAL_Driver/Inc/stm32f2xx_ll_rcc.h **** 
  82:Drivers/STM32F2xx_HAL_Driver/Inc/stm32f2xx_ll_rcc.h **** /**
  83:Drivers/STM32F2xx_HAL_Driver/Inc/stm32f2xx_ll_rcc.h ****   * @}
  84:Drivers/STM32F2xx_HAL_Driver/Inc/stm32f2xx_ll_rcc.h ****   */
  85:Drivers/STM32F2xx_HAL_Driver/Inc/stm32f2xx_ll_rcc.h **** 
  86:Drivers/STM32F2xx_HAL_Driver/Inc/stm32f2xx_ll_rcc.h **** /**
  87:Drivers/STM32F2xx_HAL_Driver/Inc/stm32f2xx_ll_rcc.h ****   * @}
  88:Drivers/STM32F2xx_HAL_Driver/Inc/stm32f2xx_ll_rcc.h ****   */
  89:Drivers/STM32F2xx_HAL_Driver/Inc/stm32f2xx_ll_rcc.h **** #endif /* USE_FULL_LL_DRIVER */
  90:Drivers/STM32F2xx_HAL_Driver/Inc/stm32f2xx_ll_rcc.h **** 
  91:Drivers/STM32F2xx_HAL_Driver/Inc/stm32f2xx_ll_rcc.h **** /* Exported constants --------------------------------------------------------*/
  92:Drivers/STM32F2xx_HAL_Driver/Inc/stm32f2xx_ll_rcc.h **** /** @defgroup RCC_LL_Exported_Constants RCC Exported Constants
  93:Drivers/STM32F2xx_HAL_Driver/Inc/stm32f2xx_ll_rcc.h ****   * @{
  94:Drivers/STM32F2xx_HAL_Driver/Inc/stm32f2xx_ll_rcc.h ****   */
  95:Drivers/STM32F2xx_HAL_Driver/Inc/stm32f2xx_ll_rcc.h **** 
  96:Drivers/STM32F2xx_HAL_Driver/Inc/stm32f2xx_ll_rcc.h **** /** @defgroup RCC_LL_EC_OSC_VALUES Oscillator Values adaptation
  97:Drivers/STM32F2xx_HAL_Driver/Inc/stm32f2xx_ll_rcc.h ****   * @brief    Defines used to adapt values of different oscillators
  98:Drivers/STM32F2xx_HAL_Driver/Inc/stm32f2xx_ll_rcc.h ****   * @note     These values could be modified in the user environment according to 
  99:Drivers/STM32F2xx_HAL_Driver/Inc/stm32f2xx_ll_rcc.h ****   *           HW set-up.
 100:Drivers/STM32F2xx_HAL_Driver/Inc/stm32f2xx_ll_rcc.h ****   * @{
 101:Drivers/STM32F2xx_HAL_Driver/Inc/stm32f2xx_ll_rcc.h ****   */
 102:Drivers/STM32F2xx_HAL_Driver/Inc/stm32f2xx_ll_rcc.h **** #if !defined  (HSE_VALUE)
 103:Drivers/STM32F2xx_HAL_Driver/Inc/stm32f2xx_ll_rcc.h **** #define HSE_VALUE    25000000U  /*!< Value of the HSE oscillator in Hz */
 104:Drivers/STM32F2xx_HAL_Driver/Inc/stm32f2xx_ll_rcc.h **** #endif /* HSE_VALUE */
 105:Drivers/STM32F2xx_HAL_Driver/Inc/stm32f2xx_ll_rcc.h **** 
 106:Drivers/STM32F2xx_HAL_Driver/Inc/stm32f2xx_ll_rcc.h **** #if !defined  (HSI_VALUE)
 107:Drivers/STM32F2xx_HAL_Driver/Inc/stm32f2xx_ll_rcc.h **** #define HSI_VALUE    16000000U  /*!< Value of the HSI oscillator in Hz */
 108:Drivers/STM32F2xx_HAL_Driver/Inc/stm32f2xx_ll_rcc.h **** #endif /* HSI_VALUE */
 109:Drivers/STM32F2xx_HAL_Driver/Inc/stm32f2xx_ll_rcc.h **** 
 110:Drivers/STM32F2xx_HAL_Driver/Inc/stm32f2xx_ll_rcc.h **** #if !defined  (LSE_VALUE)
 111:Drivers/STM32F2xx_HAL_Driver/Inc/stm32f2xx_ll_rcc.h **** #define LSE_VALUE    32768U     /*!< Value of the LSE oscillator in Hz */
 112:Drivers/STM32F2xx_HAL_Driver/Inc/stm32f2xx_ll_rcc.h **** #endif /* LSE_VALUE */
 113:Drivers/STM32F2xx_HAL_Driver/Inc/stm32f2xx_ll_rcc.h **** 
 114:Drivers/STM32F2xx_HAL_Driver/Inc/stm32f2xx_ll_rcc.h **** #if !defined  (LSI_VALUE)
 115:Drivers/STM32F2xx_HAL_Driver/Inc/stm32f2xx_ll_rcc.h **** #define LSI_VALUE    32000U     /*!< Value of the LSI oscillator in Hz */
 116:Drivers/STM32F2xx_HAL_Driver/Inc/stm32f2xx_ll_rcc.h **** #endif /* LSI_VALUE */
 117:Drivers/STM32F2xx_HAL_Driver/Inc/stm32f2xx_ll_rcc.h **** 
 118:Drivers/STM32F2xx_HAL_Driver/Inc/stm32f2xx_ll_rcc.h **** #if !defined  (EXTERNAL_CLOCK_VALUE)
 119:Drivers/STM32F2xx_HAL_Driver/Inc/stm32f2xx_ll_rcc.h **** #define EXTERNAL_CLOCK_VALUE    12288000U /*!< Value of the I2S_CKIN external oscillator in Hz */
 120:Drivers/STM32F2xx_HAL_Driver/Inc/stm32f2xx_ll_rcc.h **** #endif /* EXTERNAL_CLOCK_VALUE */
 121:Drivers/STM32F2xx_HAL_Driver/Inc/stm32f2xx_ll_rcc.h **** /**
 122:Drivers/STM32F2xx_HAL_Driver/Inc/stm32f2xx_ll_rcc.h ****   * @}
 123:Drivers/STM32F2xx_HAL_Driver/Inc/stm32f2xx_ll_rcc.h ****   */
 124:Drivers/STM32F2xx_HAL_Driver/Inc/stm32f2xx_ll_rcc.h **** 
 125:Drivers/STM32F2xx_HAL_Driver/Inc/stm32f2xx_ll_rcc.h **** /** @defgroup RCC_LL_EC_CLEAR_FLAG Clear Flags Defines
 126:Drivers/STM32F2xx_HAL_Driver/Inc/stm32f2xx_ll_rcc.h ****   * @brief    Flags defines which can be used with LL_RCC_WriteReg function
 127:Drivers/STM32F2xx_HAL_Driver/Inc/stm32f2xx_ll_rcc.h ****   * @{
 128:Drivers/STM32F2xx_HAL_Driver/Inc/stm32f2xx_ll_rcc.h ****   */
ARM GAS  C:\Users\Artem\AppData\Local\Temp\cc8fbasp.s 			page 29


 129:Drivers/STM32F2xx_HAL_Driver/Inc/stm32f2xx_ll_rcc.h **** #define LL_RCC_CIR_LSIRDYC                RCC_CIR_LSIRDYC     /*!< LSI Ready Interrupt Clear */
 130:Drivers/STM32F2xx_HAL_Driver/Inc/stm32f2xx_ll_rcc.h **** #define LL_RCC_CIR_LSERDYC                RCC_CIR_LSERDYC     /*!< LSE Ready Interrupt Clear */
 131:Drivers/STM32F2xx_HAL_Driver/Inc/stm32f2xx_ll_rcc.h **** #define LL_RCC_CIR_HSIRDYC                RCC_CIR_HSIRDYC     /*!< HSI Ready Interrupt Clear */
 132:Drivers/STM32F2xx_HAL_Driver/Inc/stm32f2xx_ll_rcc.h **** #define LL_RCC_CIR_HSERDYC                RCC_CIR_HSERDYC     /*!< HSE Ready Interrupt Clear */
 133:Drivers/STM32F2xx_HAL_Driver/Inc/stm32f2xx_ll_rcc.h **** #define LL_RCC_CIR_PLLRDYC                RCC_CIR_PLLRDYC     /*!< PLL Ready Interrupt Clear */
 134:Drivers/STM32F2xx_HAL_Driver/Inc/stm32f2xx_ll_rcc.h **** #define LL_RCC_CIR_PLLI2SRDYC             RCC_CIR_PLLI2SRDYC  /*!< PLLI2S Ready Interrupt Clear */
 135:Drivers/STM32F2xx_HAL_Driver/Inc/stm32f2xx_ll_rcc.h **** #define LL_RCC_CIR_CSSC                   RCC_CIR_CSSC        /*!< Clock Security System Interrupt 
 136:Drivers/STM32F2xx_HAL_Driver/Inc/stm32f2xx_ll_rcc.h **** /**
 137:Drivers/STM32F2xx_HAL_Driver/Inc/stm32f2xx_ll_rcc.h ****   * @}
 138:Drivers/STM32F2xx_HAL_Driver/Inc/stm32f2xx_ll_rcc.h ****   */
 139:Drivers/STM32F2xx_HAL_Driver/Inc/stm32f2xx_ll_rcc.h **** 
 140:Drivers/STM32F2xx_HAL_Driver/Inc/stm32f2xx_ll_rcc.h **** /** @defgroup RCC_LL_EC_GET_FLAG Get Flags Defines
 141:Drivers/STM32F2xx_HAL_Driver/Inc/stm32f2xx_ll_rcc.h ****   * @brief    Flags defines which can be used with LL_RCC_ReadReg function
 142:Drivers/STM32F2xx_HAL_Driver/Inc/stm32f2xx_ll_rcc.h ****   * @{
 143:Drivers/STM32F2xx_HAL_Driver/Inc/stm32f2xx_ll_rcc.h ****   */
 144:Drivers/STM32F2xx_HAL_Driver/Inc/stm32f2xx_ll_rcc.h **** #define LL_RCC_CIR_LSIRDYF                RCC_CIR_LSIRDYF     /*!< LSI Ready Interrupt flag */
 145:Drivers/STM32F2xx_HAL_Driver/Inc/stm32f2xx_ll_rcc.h **** #define LL_RCC_CIR_LSERDYF                RCC_CIR_LSERDYF     /*!< LSE Ready Interrupt flag */
 146:Drivers/STM32F2xx_HAL_Driver/Inc/stm32f2xx_ll_rcc.h **** #define LL_RCC_CIR_HSIRDYF                RCC_CIR_HSIRDYF     /*!< HSI Ready Interrupt flag */
 147:Drivers/STM32F2xx_HAL_Driver/Inc/stm32f2xx_ll_rcc.h **** #define LL_RCC_CIR_HSERDYF                RCC_CIR_HSERDYF     /*!< HSE Ready Interrupt flag */
 148:Drivers/STM32F2xx_HAL_Driver/Inc/stm32f2xx_ll_rcc.h **** #define LL_RCC_CIR_PLLRDYF                RCC_CIR_PLLRDYF     /*!< PLL Ready Interrupt flag */
 149:Drivers/STM32F2xx_HAL_Driver/Inc/stm32f2xx_ll_rcc.h **** #define LL_RCC_CIR_PLLI2SRDYF             RCC_CIR_PLLI2SRDYF  /*!< PLLI2S Ready Interrupt flag */
 150:Drivers/STM32F2xx_HAL_Driver/Inc/stm32f2xx_ll_rcc.h **** #define LL_RCC_CIR_CSSF                   RCC_CIR_CSSF        /*!< Clock Security System Interrupt 
 151:Drivers/STM32F2xx_HAL_Driver/Inc/stm32f2xx_ll_rcc.h **** #define LL_RCC_CSR_LPWRRSTF               RCC_CSR_LPWRRSTF    /*!< Low-Power reset flag */
 152:Drivers/STM32F2xx_HAL_Driver/Inc/stm32f2xx_ll_rcc.h **** #define LL_RCC_CSR_PINRSTF                RCC_CSR_PINRSTF     /*!< PIN reset flag */
 153:Drivers/STM32F2xx_HAL_Driver/Inc/stm32f2xx_ll_rcc.h **** #define LL_RCC_CSR_PORRSTF                RCC_CSR_PORRSTF     /*!< POR/PDR reset flag */
 154:Drivers/STM32F2xx_HAL_Driver/Inc/stm32f2xx_ll_rcc.h **** #define LL_RCC_CSR_SFTRSTF                RCC_CSR_SFTRSTF     /*!< Software Reset flag */
 155:Drivers/STM32F2xx_HAL_Driver/Inc/stm32f2xx_ll_rcc.h **** #define LL_RCC_CSR_IWDGRSTF               RCC_CSR_IWDGRSTF    /*!< Independent Watchdog reset flag 
 156:Drivers/STM32F2xx_HAL_Driver/Inc/stm32f2xx_ll_rcc.h **** #define LL_RCC_CSR_WWDGRSTF               RCC_CSR_WWDGRSTF    /*!< Window watchdog reset flag */
 157:Drivers/STM32F2xx_HAL_Driver/Inc/stm32f2xx_ll_rcc.h **** #define LL_RCC_CSR_BORRSTF                RCC_CSR_BORRSTF     /*!< BOR reset flag */
 158:Drivers/STM32F2xx_HAL_Driver/Inc/stm32f2xx_ll_rcc.h **** /**
 159:Drivers/STM32F2xx_HAL_Driver/Inc/stm32f2xx_ll_rcc.h ****   * @}
 160:Drivers/STM32F2xx_HAL_Driver/Inc/stm32f2xx_ll_rcc.h ****   */
 161:Drivers/STM32F2xx_HAL_Driver/Inc/stm32f2xx_ll_rcc.h **** 
 162:Drivers/STM32F2xx_HAL_Driver/Inc/stm32f2xx_ll_rcc.h **** /** @defgroup RCC_LL_EC_IT IT Defines
 163:Drivers/STM32F2xx_HAL_Driver/Inc/stm32f2xx_ll_rcc.h ****   * @brief    IT defines which can be used with LL_RCC_ReadReg and  LL_RCC_WriteReg functions
 164:Drivers/STM32F2xx_HAL_Driver/Inc/stm32f2xx_ll_rcc.h ****   * @{
 165:Drivers/STM32F2xx_HAL_Driver/Inc/stm32f2xx_ll_rcc.h ****   */
 166:Drivers/STM32F2xx_HAL_Driver/Inc/stm32f2xx_ll_rcc.h **** #define LL_RCC_CIR_LSIRDYIE               RCC_CIR_LSIRDYIE      /*!< LSI Ready Interrupt Enable */
 167:Drivers/STM32F2xx_HAL_Driver/Inc/stm32f2xx_ll_rcc.h **** #define LL_RCC_CIR_LSERDYIE               RCC_CIR_LSERDYIE      /*!< LSE Ready Interrupt Enable */
 168:Drivers/STM32F2xx_HAL_Driver/Inc/stm32f2xx_ll_rcc.h **** #define LL_RCC_CIR_HSIRDYIE               RCC_CIR_HSIRDYIE      /*!< HSI Ready Interrupt Enable */
 169:Drivers/STM32F2xx_HAL_Driver/Inc/stm32f2xx_ll_rcc.h **** #define LL_RCC_CIR_HSERDYIE               RCC_CIR_HSERDYIE      /*!< HSE Ready Interrupt Enable */
 170:Drivers/STM32F2xx_HAL_Driver/Inc/stm32f2xx_ll_rcc.h **** #define LL_RCC_CIR_PLLRDYIE               RCC_CIR_PLLRDYIE      /*!< PLL Ready Interrupt Enable */
 171:Drivers/STM32F2xx_HAL_Driver/Inc/stm32f2xx_ll_rcc.h **** #define LL_RCC_CIR_PLLI2SRDYIE            RCC_CIR_PLLI2SRDYIE   /*!< PLLI2S Ready Interrupt Enable 
 172:Drivers/STM32F2xx_HAL_Driver/Inc/stm32f2xx_ll_rcc.h **** /**
 173:Drivers/STM32F2xx_HAL_Driver/Inc/stm32f2xx_ll_rcc.h ****   * @}
 174:Drivers/STM32F2xx_HAL_Driver/Inc/stm32f2xx_ll_rcc.h ****   */
 175:Drivers/STM32F2xx_HAL_Driver/Inc/stm32f2xx_ll_rcc.h **** 
 176:Drivers/STM32F2xx_HAL_Driver/Inc/stm32f2xx_ll_rcc.h **** /** @defgroup RCC_LL_EC_SYS_CLKSOURCE  System clock switch
 177:Drivers/STM32F2xx_HAL_Driver/Inc/stm32f2xx_ll_rcc.h ****   * @{
 178:Drivers/STM32F2xx_HAL_Driver/Inc/stm32f2xx_ll_rcc.h ****   */
 179:Drivers/STM32F2xx_HAL_Driver/Inc/stm32f2xx_ll_rcc.h **** #define LL_RCC_SYS_CLKSOURCE_HSI           RCC_CFGR_SW_HSI    /*!< HSI selection as system clock */
 180:Drivers/STM32F2xx_HAL_Driver/Inc/stm32f2xx_ll_rcc.h **** #define LL_RCC_SYS_CLKSOURCE_HSE           RCC_CFGR_SW_HSE    /*!< HSE selection as system clock */
 181:Drivers/STM32F2xx_HAL_Driver/Inc/stm32f2xx_ll_rcc.h **** #define LL_RCC_SYS_CLKSOURCE_PLL           RCC_CFGR_SW_PLL    /*!< PLL selection as system clock */
 182:Drivers/STM32F2xx_HAL_Driver/Inc/stm32f2xx_ll_rcc.h **** /**
 183:Drivers/STM32F2xx_HAL_Driver/Inc/stm32f2xx_ll_rcc.h ****   * @}
 184:Drivers/STM32F2xx_HAL_Driver/Inc/stm32f2xx_ll_rcc.h ****   */
 185:Drivers/STM32F2xx_HAL_Driver/Inc/stm32f2xx_ll_rcc.h **** 
ARM GAS  C:\Users\Artem\AppData\Local\Temp\cc8fbasp.s 			page 30


 186:Drivers/STM32F2xx_HAL_Driver/Inc/stm32f2xx_ll_rcc.h **** /** @defgroup RCC_LL_EC_SYS_CLKSOURCE_STATUS  System clock switch status
 187:Drivers/STM32F2xx_HAL_Driver/Inc/stm32f2xx_ll_rcc.h ****   * @{
 188:Drivers/STM32F2xx_HAL_Driver/Inc/stm32f2xx_ll_rcc.h ****   */
 189:Drivers/STM32F2xx_HAL_Driver/Inc/stm32f2xx_ll_rcc.h **** #define LL_RCC_SYS_CLKSOURCE_STATUS_HSI    RCC_CFGR_SWS_HSI   /*!< HSI used as system clock */
 190:Drivers/STM32F2xx_HAL_Driver/Inc/stm32f2xx_ll_rcc.h **** #define LL_RCC_SYS_CLKSOURCE_STATUS_HSE    RCC_CFGR_SWS_HSE   /*!< HSE used as system clock */
 191:Drivers/STM32F2xx_HAL_Driver/Inc/stm32f2xx_ll_rcc.h **** #define LL_RCC_SYS_CLKSOURCE_STATUS_PLL    RCC_CFGR_SWS_PLL   /*!< PLL used as system clock */
 192:Drivers/STM32F2xx_HAL_Driver/Inc/stm32f2xx_ll_rcc.h **** /**
 193:Drivers/STM32F2xx_HAL_Driver/Inc/stm32f2xx_ll_rcc.h ****   * @}
 194:Drivers/STM32F2xx_HAL_Driver/Inc/stm32f2xx_ll_rcc.h ****   */
 195:Drivers/STM32F2xx_HAL_Driver/Inc/stm32f2xx_ll_rcc.h **** 
 196:Drivers/STM32F2xx_HAL_Driver/Inc/stm32f2xx_ll_rcc.h **** /** @defgroup RCC_LL_EC_SYSCLK_DIV  AHB prescaler
 197:Drivers/STM32F2xx_HAL_Driver/Inc/stm32f2xx_ll_rcc.h ****   * @{
 198:Drivers/STM32F2xx_HAL_Driver/Inc/stm32f2xx_ll_rcc.h ****   */
 199:Drivers/STM32F2xx_HAL_Driver/Inc/stm32f2xx_ll_rcc.h **** #define LL_RCC_SYSCLK_DIV_1                RCC_CFGR_HPRE_DIV1   /*!< SYSCLK not divided */
 200:Drivers/STM32F2xx_HAL_Driver/Inc/stm32f2xx_ll_rcc.h **** #define LL_RCC_SYSCLK_DIV_2                RCC_CFGR_HPRE_DIV2   /*!< SYSCLK divided by 2 */
 201:Drivers/STM32F2xx_HAL_Driver/Inc/stm32f2xx_ll_rcc.h **** #define LL_RCC_SYSCLK_DIV_4                RCC_CFGR_HPRE_DIV4   /*!< SYSCLK divided by 4 */
 202:Drivers/STM32F2xx_HAL_Driver/Inc/stm32f2xx_ll_rcc.h **** #define LL_RCC_SYSCLK_DIV_8                RCC_CFGR_HPRE_DIV8   /*!< SYSCLK divided by 8 */
 203:Drivers/STM32F2xx_HAL_Driver/Inc/stm32f2xx_ll_rcc.h **** #define LL_RCC_SYSCLK_DIV_16               RCC_CFGR_HPRE_DIV16  /*!< SYSCLK divided by 16 */
 204:Drivers/STM32F2xx_HAL_Driver/Inc/stm32f2xx_ll_rcc.h **** #define LL_RCC_SYSCLK_DIV_64               RCC_CFGR_HPRE_DIV64  /*!< SYSCLK divided by 64 */
 205:Drivers/STM32F2xx_HAL_Driver/Inc/stm32f2xx_ll_rcc.h **** #define LL_RCC_SYSCLK_DIV_128              RCC_CFGR_HPRE_DIV128 /*!< SYSCLK divided by 128 */
 206:Drivers/STM32F2xx_HAL_Driver/Inc/stm32f2xx_ll_rcc.h **** #define LL_RCC_SYSCLK_DIV_256              RCC_CFGR_HPRE_DIV256 /*!< SYSCLK divided by 256 */
 207:Drivers/STM32F2xx_HAL_Driver/Inc/stm32f2xx_ll_rcc.h **** #define LL_RCC_SYSCLK_DIV_512              RCC_CFGR_HPRE_DIV512 /*!< SYSCLK divided by 512 */
 208:Drivers/STM32F2xx_HAL_Driver/Inc/stm32f2xx_ll_rcc.h **** /**
 209:Drivers/STM32F2xx_HAL_Driver/Inc/stm32f2xx_ll_rcc.h ****   * @}
 210:Drivers/STM32F2xx_HAL_Driver/Inc/stm32f2xx_ll_rcc.h ****   */
 211:Drivers/STM32F2xx_HAL_Driver/Inc/stm32f2xx_ll_rcc.h **** 
 212:Drivers/STM32F2xx_HAL_Driver/Inc/stm32f2xx_ll_rcc.h **** /** @defgroup RCC_LL_EC_APB1_DIV  APB low-speed prescaler (APB1)
 213:Drivers/STM32F2xx_HAL_Driver/Inc/stm32f2xx_ll_rcc.h ****   * @{
 214:Drivers/STM32F2xx_HAL_Driver/Inc/stm32f2xx_ll_rcc.h ****   */
 215:Drivers/STM32F2xx_HAL_Driver/Inc/stm32f2xx_ll_rcc.h **** #define LL_RCC_APB1_DIV_1                  RCC_CFGR_PPRE1_DIV1  /*!< HCLK not divided */
 216:Drivers/STM32F2xx_HAL_Driver/Inc/stm32f2xx_ll_rcc.h **** #define LL_RCC_APB1_DIV_2                  RCC_CFGR_PPRE1_DIV2  /*!< HCLK divided by 2 */
 217:Drivers/STM32F2xx_HAL_Driver/Inc/stm32f2xx_ll_rcc.h **** #define LL_RCC_APB1_DIV_4                  RCC_CFGR_PPRE1_DIV4  /*!< HCLK divided by 4 */
 218:Drivers/STM32F2xx_HAL_Driver/Inc/stm32f2xx_ll_rcc.h **** #define LL_RCC_APB1_DIV_8                  RCC_CFGR_PPRE1_DIV8  /*!< HCLK divided by 8 */
 219:Drivers/STM32F2xx_HAL_Driver/Inc/stm32f2xx_ll_rcc.h **** #define LL_RCC_APB1_DIV_16                 RCC_CFGR_PPRE1_DIV16 /*!< HCLK divided by 16 */
 220:Drivers/STM32F2xx_HAL_Driver/Inc/stm32f2xx_ll_rcc.h **** /**
 221:Drivers/STM32F2xx_HAL_Driver/Inc/stm32f2xx_ll_rcc.h ****   * @}
 222:Drivers/STM32F2xx_HAL_Driver/Inc/stm32f2xx_ll_rcc.h ****   */
 223:Drivers/STM32F2xx_HAL_Driver/Inc/stm32f2xx_ll_rcc.h **** 
 224:Drivers/STM32F2xx_HAL_Driver/Inc/stm32f2xx_ll_rcc.h **** /** @defgroup RCC_LL_EC_APB2_DIV  APB high-speed prescaler (APB2)
 225:Drivers/STM32F2xx_HAL_Driver/Inc/stm32f2xx_ll_rcc.h ****   * @{
 226:Drivers/STM32F2xx_HAL_Driver/Inc/stm32f2xx_ll_rcc.h ****   */
 227:Drivers/STM32F2xx_HAL_Driver/Inc/stm32f2xx_ll_rcc.h **** #define LL_RCC_APB2_DIV_1                  RCC_CFGR_PPRE2_DIV1  /*!< HCLK not divided */
 228:Drivers/STM32F2xx_HAL_Driver/Inc/stm32f2xx_ll_rcc.h **** #define LL_RCC_APB2_DIV_2                  RCC_CFGR_PPRE2_DIV2  /*!< HCLK divided by 2 */
 229:Drivers/STM32F2xx_HAL_Driver/Inc/stm32f2xx_ll_rcc.h **** #define LL_RCC_APB2_DIV_4                  RCC_CFGR_PPRE2_DIV4  /*!< HCLK divided by 4 */
 230:Drivers/STM32F2xx_HAL_Driver/Inc/stm32f2xx_ll_rcc.h **** #define LL_RCC_APB2_DIV_8                  RCC_CFGR_PPRE2_DIV8  /*!< HCLK divided by 8 */
 231:Drivers/STM32F2xx_HAL_Driver/Inc/stm32f2xx_ll_rcc.h **** #define LL_RCC_APB2_DIV_16                 RCC_CFGR_PPRE2_DIV16 /*!< HCLK divided by 16 */
 232:Drivers/STM32F2xx_HAL_Driver/Inc/stm32f2xx_ll_rcc.h **** /**
 233:Drivers/STM32F2xx_HAL_Driver/Inc/stm32f2xx_ll_rcc.h ****   * @}
 234:Drivers/STM32F2xx_HAL_Driver/Inc/stm32f2xx_ll_rcc.h ****   */
 235:Drivers/STM32F2xx_HAL_Driver/Inc/stm32f2xx_ll_rcc.h **** 
 236:Drivers/STM32F2xx_HAL_Driver/Inc/stm32f2xx_ll_rcc.h **** /** @defgroup RCC_LL_EC_MCOxSOURCE  MCO source selection
 237:Drivers/STM32F2xx_HAL_Driver/Inc/stm32f2xx_ll_rcc.h ****   * @{
 238:Drivers/STM32F2xx_HAL_Driver/Inc/stm32f2xx_ll_rcc.h ****   */
 239:Drivers/STM32F2xx_HAL_Driver/Inc/stm32f2xx_ll_rcc.h **** #define LL_RCC_MCO1SOURCE_HSI              (uint32_t)(RCC_CFGR_MCO1|0x00000000U)                   
 240:Drivers/STM32F2xx_HAL_Driver/Inc/stm32f2xx_ll_rcc.h **** #define LL_RCC_MCO1SOURCE_LSE              (uint32_t)(RCC_CFGR_MCO1|(RCC_CFGR_MCO1_0 >> 16U))      
 241:Drivers/STM32F2xx_HAL_Driver/Inc/stm32f2xx_ll_rcc.h **** #define LL_RCC_MCO1SOURCE_HSE              (uint32_t)(RCC_CFGR_MCO1|(RCC_CFGR_MCO1_1 >> 16U))      
 242:Drivers/STM32F2xx_HAL_Driver/Inc/stm32f2xx_ll_rcc.h **** #define LL_RCC_MCO1SOURCE_PLLCLK           (uint32_t)(RCC_CFGR_MCO1|((RCC_CFGR_MCO1_1|RCC_CFGR_MCO1
ARM GAS  C:\Users\Artem\AppData\Local\Temp\cc8fbasp.s 			page 31


 243:Drivers/STM32F2xx_HAL_Driver/Inc/stm32f2xx_ll_rcc.h **** #define LL_RCC_MCO2SOURCE_SYSCLK           (uint32_t)(RCC_CFGR_MCO2|0x00000000U)                   
 244:Drivers/STM32F2xx_HAL_Driver/Inc/stm32f2xx_ll_rcc.h **** #define LL_RCC_MCO2SOURCE_PLLI2S           (uint32_t)(RCC_CFGR_MCO2|(RCC_CFGR_MCO2_0 >> 16U))      
 245:Drivers/STM32F2xx_HAL_Driver/Inc/stm32f2xx_ll_rcc.h **** #define LL_RCC_MCO2SOURCE_HSE              (uint32_t)(RCC_CFGR_MCO2|(RCC_CFGR_MCO2_1 >> 16U))      
 246:Drivers/STM32F2xx_HAL_Driver/Inc/stm32f2xx_ll_rcc.h **** #define LL_RCC_MCO2SOURCE_PLLCLK           (uint32_t)(RCC_CFGR_MCO2|((RCC_CFGR_MCO2_1|RCC_CFGR_MCO2
 247:Drivers/STM32F2xx_HAL_Driver/Inc/stm32f2xx_ll_rcc.h **** /**
 248:Drivers/STM32F2xx_HAL_Driver/Inc/stm32f2xx_ll_rcc.h ****   * @}
 249:Drivers/STM32F2xx_HAL_Driver/Inc/stm32f2xx_ll_rcc.h ****   */
 250:Drivers/STM32F2xx_HAL_Driver/Inc/stm32f2xx_ll_rcc.h **** 
 251:Drivers/STM32F2xx_HAL_Driver/Inc/stm32f2xx_ll_rcc.h **** /** @defgroup RCC_LL_EC_MCOx_DIV  MCO prescaler
 252:Drivers/STM32F2xx_HAL_Driver/Inc/stm32f2xx_ll_rcc.h ****   * @{
 253:Drivers/STM32F2xx_HAL_Driver/Inc/stm32f2xx_ll_rcc.h ****   */
 254:Drivers/STM32F2xx_HAL_Driver/Inc/stm32f2xx_ll_rcc.h **** #define LL_RCC_MCO1_DIV_1                  (uint32_t)(RCC_CFGR_MCO1PRE|0x00000000U)                
 255:Drivers/STM32F2xx_HAL_Driver/Inc/stm32f2xx_ll_rcc.h **** #define LL_RCC_MCO1_DIV_2                  (uint32_t)(RCC_CFGR_MCO1PRE|(RCC_CFGR_MCO1PRE_2 >> 16U))
 256:Drivers/STM32F2xx_HAL_Driver/Inc/stm32f2xx_ll_rcc.h **** #define LL_RCC_MCO1_DIV_3                  (uint32_t)(RCC_CFGR_MCO1PRE|((RCC_CFGR_MCO1PRE_2|RCC_CFG
 257:Drivers/STM32F2xx_HAL_Driver/Inc/stm32f2xx_ll_rcc.h **** #define LL_RCC_MCO1_DIV_4                  (uint32_t)(RCC_CFGR_MCO1PRE|((RCC_CFGR_MCO1PRE_2|RCC_CFG
 258:Drivers/STM32F2xx_HAL_Driver/Inc/stm32f2xx_ll_rcc.h **** #define LL_RCC_MCO1_DIV_5                  (uint32_t)(RCC_CFGR_MCO1PRE|(RCC_CFGR_MCO1PRE >> 16U))  
 259:Drivers/STM32F2xx_HAL_Driver/Inc/stm32f2xx_ll_rcc.h **** #define LL_RCC_MCO2_DIV_1                  (uint32_t)(RCC_CFGR_MCO2PRE|0x00000000U)                
 260:Drivers/STM32F2xx_HAL_Driver/Inc/stm32f2xx_ll_rcc.h **** #define LL_RCC_MCO2_DIV_2                  (uint32_t)(RCC_CFGR_MCO2PRE|(RCC_CFGR_MCO2PRE_2 >> 16U))
 261:Drivers/STM32F2xx_HAL_Driver/Inc/stm32f2xx_ll_rcc.h **** #define LL_RCC_MCO2_DIV_3                  (uint32_t)(RCC_CFGR_MCO2PRE|((RCC_CFGR_MCO2PRE_2|RCC_CFG
 262:Drivers/STM32F2xx_HAL_Driver/Inc/stm32f2xx_ll_rcc.h **** #define LL_RCC_MCO2_DIV_4                  (uint32_t)(RCC_CFGR_MCO2PRE|((RCC_CFGR_MCO2PRE_2|RCC_CFG
 263:Drivers/STM32F2xx_HAL_Driver/Inc/stm32f2xx_ll_rcc.h **** #define LL_RCC_MCO2_DIV_5                  (uint32_t)(RCC_CFGR_MCO2PRE|(RCC_CFGR_MCO2PRE >> 16U))  
 264:Drivers/STM32F2xx_HAL_Driver/Inc/stm32f2xx_ll_rcc.h **** /**
 265:Drivers/STM32F2xx_HAL_Driver/Inc/stm32f2xx_ll_rcc.h ****   * @}
 266:Drivers/STM32F2xx_HAL_Driver/Inc/stm32f2xx_ll_rcc.h ****   */
 267:Drivers/STM32F2xx_HAL_Driver/Inc/stm32f2xx_ll_rcc.h **** 
 268:Drivers/STM32F2xx_HAL_Driver/Inc/stm32f2xx_ll_rcc.h **** /** @defgroup RCC_LL_EC_RTC_HSEDIV  HSE prescaler for RTC clock
 269:Drivers/STM32F2xx_HAL_Driver/Inc/stm32f2xx_ll_rcc.h ****   * @{
 270:Drivers/STM32F2xx_HAL_Driver/Inc/stm32f2xx_ll_rcc.h ****   */
 271:Drivers/STM32F2xx_HAL_Driver/Inc/stm32f2xx_ll_rcc.h **** #define LL_RCC_RTC_NOCLOCK                  0x00000000U             /*!< HSE not divided */
 272:Drivers/STM32F2xx_HAL_Driver/Inc/stm32f2xx_ll_rcc.h **** #define LL_RCC_RTC_HSE_DIV_2                RCC_CFGR_RTCPRE_1       /*!< HSE clock divided by 2 */
 273:Drivers/STM32F2xx_HAL_Driver/Inc/stm32f2xx_ll_rcc.h **** #define LL_RCC_RTC_HSE_DIV_3                (RCC_CFGR_RTCPRE_1|RCC_CFGR_RTCPRE_0)       /*!< HSE cl
 274:Drivers/STM32F2xx_HAL_Driver/Inc/stm32f2xx_ll_rcc.h **** #define LL_RCC_RTC_HSE_DIV_4                RCC_CFGR_RTCPRE_2       /*!< HSE clock divided by 4 */
 275:Drivers/STM32F2xx_HAL_Driver/Inc/stm32f2xx_ll_rcc.h **** #define LL_RCC_RTC_HSE_DIV_5                (RCC_CFGR_RTCPRE_2|RCC_CFGR_RTCPRE_0)       /*!< HSE cl
 276:Drivers/STM32F2xx_HAL_Driver/Inc/stm32f2xx_ll_rcc.h **** #define LL_RCC_RTC_HSE_DIV_6                (RCC_CFGR_RTCPRE_2|RCC_CFGR_RTCPRE_1)       /*!< HSE cl
 277:Drivers/STM32F2xx_HAL_Driver/Inc/stm32f2xx_ll_rcc.h **** #define LL_RCC_RTC_HSE_DIV_7                (RCC_CFGR_RTCPRE_2|RCC_CFGR_RTCPRE_1|RCC_CFGR_RTCPRE_0)
 278:Drivers/STM32F2xx_HAL_Driver/Inc/stm32f2xx_ll_rcc.h **** #define LL_RCC_RTC_HSE_DIV_8                RCC_CFGR_RTCPRE_3       /*!< HSE clock divided by 8 */
 279:Drivers/STM32F2xx_HAL_Driver/Inc/stm32f2xx_ll_rcc.h **** #define LL_RCC_RTC_HSE_DIV_9                (RCC_CFGR_RTCPRE_3|RCC_CFGR_RTCPRE_0)       /*!< HSE cl
 280:Drivers/STM32F2xx_HAL_Driver/Inc/stm32f2xx_ll_rcc.h **** #define LL_RCC_RTC_HSE_DIV_10               (RCC_CFGR_RTCPRE_3|RCC_CFGR_RTCPRE_1)       /*!< HSE cl
 281:Drivers/STM32F2xx_HAL_Driver/Inc/stm32f2xx_ll_rcc.h **** #define LL_RCC_RTC_HSE_DIV_11               (RCC_CFGR_RTCPRE_3|RCC_CFGR_RTCPRE_1|RCC_CFGR_RTCPRE_0)
 282:Drivers/STM32F2xx_HAL_Driver/Inc/stm32f2xx_ll_rcc.h **** #define LL_RCC_RTC_HSE_DIV_12               (RCC_CFGR_RTCPRE_3|RCC_CFGR_RTCPRE_2)       /*!< HSE cl
 283:Drivers/STM32F2xx_HAL_Driver/Inc/stm32f2xx_ll_rcc.h **** #define LL_RCC_RTC_HSE_DIV_13               (RCC_CFGR_RTCPRE_3|RCC_CFGR_RTCPRE_2|RCC_CFGR_RTCPRE_0)
 284:Drivers/STM32F2xx_HAL_Driver/Inc/stm32f2xx_ll_rcc.h **** #define LL_RCC_RTC_HSE_DIV_14               (RCC_CFGR_RTCPRE_3|RCC_CFGR_RTCPRE_2|RCC_CFGR_RTCPRE_1)
 285:Drivers/STM32F2xx_HAL_Driver/Inc/stm32f2xx_ll_rcc.h **** #define LL_RCC_RTC_HSE_DIV_15               (RCC_CFGR_RTCPRE_3|RCC_CFGR_RTCPRE_2|RCC_CFGR_RTCPRE_1|
 286:Drivers/STM32F2xx_HAL_Driver/Inc/stm32f2xx_ll_rcc.h **** #define LL_RCC_RTC_HSE_DIV_16               RCC_CFGR_RTCPRE_4       /*!< HSE clock divided by 16 */
 287:Drivers/STM32F2xx_HAL_Driver/Inc/stm32f2xx_ll_rcc.h **** #define LL_RCC_RTC_HSE_DIV_17               (RCC_CFGR_RTCPRE_4|RCC_CFGR_RTCPRE_0)       /*!< HSE cl
 288:Drivers/STM32F2xx_HAL_Driver/Inc/stm32f2xx_ll_rcc.h **** #define LL_RCC_RTC_HSE_DIV_18               (RCC_CFGR_RTCPRE_4|RCC_CFGR_RTCPRE_1)       /*!< HSE cl
 289:Drivers/STM32F2xx_HAL_Driver/Inc/stm32f2xx_ll_rcc.h **** #define LL_RCC_RTC_HSE_DIV_19               (RCC_CFGR_RTCPRE_4|RCC_CFGR_RTCPRE_1|RCC_CFGR_RTCPRE_0)
 290:Drivers/STM32F2xx_HAL_Driver/Inc/stm32f2xx_ll_rcc.h **** #define LL_RCC_RTC_HSE_DIV_20               (RCC_CFGR_RTCPRE_4|RCC_CFGR_RTCPRE_2)       /*!< HSE cl
 291:Drivers/STM32F2xx_HAL_Driver/Inc/stm32f2xx_ll_rcc.h **** #define LL_RCC_RTC_HSE_DIV_21               (RCC_CFGR_RTCPRE_4|RCC_CFGR_RTCPRE_2|RCC_CFGR_RTCPRE_0)
 292:Drivers/STM32F2xx_HAL_Driver/Inc/stm32f2xx_ll_rcc.h **** #define LL_RCC_RTC_HSE_DIV_22               (RCC_CFGR_RTCPRE_4|RCC_CFGR_RTCPRE_2|RCC_CFGR_RTCPRE_1)
 293:Drivers/STM32F2xx_HAL_Driver/Inc/stm32f2xx_ll_rcc.h **** #define LL_RCC_RTC_HSE_DIV_23               (RCC_CFGR_RTCPRE_4|RCC_CFGR_RTCPRE_2|RCC_CFGR_RTCPRE_1|
 294:Drivers/STM32F2xx_HAL_Driver/Inc/stm32f2xx_ll_rcc.h **** #define LL_RCC_RTC_HSE_DIV_24               (RCC_CFGR_RTCPRE_4|RCC_CFGR_RTCPRE_3)       /*!< HSE cl
 295:Drivers/STM32F2xx_HAL_Driver/Inc/stm32f2xx_ll_rcc.h **** #define LL_RCC_RTC_HSE_DIV_25               (RCC_CFGR_RTCPRE_4|RCC_CFGR_RTCPRE_3|RCC_CFGR_RTCPRE_0)
 296:Drivers/STM32F2xx_HAL_Driver/Inc/stm32f2xx_ll_rcc.h **** #define LL_RCC_RTC_HSE_DIV_26               (RCC_CFGR_RTCPRE_4|RCC_CFGR_RTCPRE_3|RCC_CFGR_RTCPRE_1)
 297:Drivers/STM32F2xx_HAL_Driver/Inc/stm32f2xx_ll_rcc.h **** #define LL_RCC_RTC_HSE_DIV_27               (RCC_CFGR_RTCPRE_4|RCC_CFGR_RTCPRE_3|RCC_CFGR_RTCPRE_1|
 298:Drivers/STM32F2xx_HAL_Driver/Inc/stm32f2xx_ll_rcc.h **** #define LL_RCC_RTC_HSE_DIV_28               (RCC_CFGR_RTCPRE_4|RCC_CFGR_RTCPRE_3|RCC_CFGR_RTCPRE_2)
 299:Drivers/STM32F2xx_HAL_Driver/Inc/stm32f2xx_ll_rcc.h **** #define LL_RCC_RTC_HSE_DIV_29               (RCC_CFGR_RTCPRE_4|RCC_CFGR_RTCPRE_3|RCC_CFGR_RTCPRE_2|
ARM GAS  C:\Users\Artem\AppData\Local\Temp\cc8fbasp.s 			page 32


 300:Drivers/STM32F2xx_HAL_Driver/Inc/stm32f2xx_ll_rcc.h **** #define LL_RCC_RTC_HSE_DIV_30               (RCC_CFGR_RTCPRE_4|RCC_CFGR_RTCPRE_3|RCC_CFGR_RTCPRE_2|
 301:Drivers/STM32F2xx_HAL_Driver/Inc/stm32f2xx_ll_rcc.h **** #define LL_RCC_RTC_HSE_DIV_31               (RCC_CFGR_RTCPRE_4|RCC_CFGR_RTCPRE_3|RCC_CFGR_RTCPRE_2|
 302:Drivers/STM32F2xx_HAL_Driver/Inc/stm32f2xx_ll_rcc.h **** /**
 303:Drivers/STM32F2xx_HAL_Driver/Inc/stm32f2xx_ll_rcc.h ****   * @}
 304:Drivers/STM32F2xx_HAL_Driver/Inc/stm32f2xx_ll_rcc.h ****   */
 305:Drivers/STM32F2xx_HAL_Driver/Inc/stm32f2xx_ll_rcc.h **** 
 306:Drivers/STM32F2xx_HAL_Driver/Inc/stm32f2xx_ll_rcc.h **** #if defined(USE_FULL_LL_DRIVER)
 307:Drivers/STM32F2xx_HAL_Driver/Inc/stm32f2xx_ll_rcc.h **** /** @defgroup RCC_LL_EC_PERIPH_FREQUENCY Peripheral clock frequency
 308:Drivers/STM32F2xx_HAL_Driver/Inc/stm32f2xx_ll_rcc.h ****   * @{
 309:Drivers/STM32F2xx_HAL_Driver/Inc/stm32f2xx_ll_rcc.h ****   */
 310:Drivers/STM32F2xx_HAL_Driver/Inc/stm32f2xx_ll_rcc.h **** #define LL_RCC_PERIPH_FREQUENCY_NO         0x00000000U                 /*!< No clock enabled for th
 311:Drivers/STM32F2xx_HAL_Driver/Inc/stm32f2xx_ll_rcc.h **** #define LL_RCC_PERIPH_FREQUENCY_NA         0xFFFFFFFFU                 /*!< Frequency cannot be pro
 312:Drivers/STM32F2xx_HAL_Driver/Inc/stm32f2xx_ll_rcc.h **** /**
 313:Drivers/STM32F2xx_HAL_Driver/Inc/stm32f2xx_ll_rcc.h ****   * @}
 314:Drivers/STM32F2xx_HAL_Driver/Inc/stm32f2xx_ll_rcc.h ****   */
 315:Drivers/STM32F2xx_HAL_Driver/Inc/stm32f2xx_ll_rcc.h **** #endif /* USE_FULL_LL_DRIVER */
 316:Drivers/STM32F2xx_HAL_Driver/Inc/stm32f2xx_ll_rcc.h **** 
 317:Drivers/STM32F2xx_HAL_Driver/Inc/stm32f2xx_ll_rcc.h **** /** @defgroup RCC_LL_EC_I2S1_CLKSOURCE  Peripheral I2S clock source selection
 318:Drivers/STM32F2xx_HAL_Driver/Inc/stm32f2xx_ll_rcc.h ****   * @{
 319:Drivers/STM32F2xx_HAL_Driver/Inc/stm32f2xx_ll_rcc.h ****   */
 320:Drivers/STM32F2xx_HAL_Driver/Inc/stm32f2xx_ll_rcc.h **** #define LL_RCC_I2S1_CLKSOURCE_PLLI2S       0x00000000U                /*!< I2S oscillator clock use
 321:Drivers/STM32F2xx_HAL_Driver/Inc/stm32f2xx_ll_rcc.h **** #define LL_RCC_I2S1_CLKSOURCE_PIN          RCC_CFGR_I2SSRC            /*!< External pin clock used 
 322:Drivers/STM32F2xx_HAL_Driver/Inc/stm32f2xx_ll_rcc.h **** /**
 323:Drivers/STM32F2xx_HAL_Driver/Inc/stm32f2xx_ll_rcc.h ****   * @}
 324:Drivers/STM32F2xx_HAL_Driver/Inc/stm32f2xx_ll_rcc.h ****   */
 325:Drivers/STM32F2xx_HAL_Driver/Inc/stm32f2xx_ll_rcc.h **** 
 326:Drivers/STM32F2xx_HAL_Driver/Inc/stm32f2xx_ll_rcc.h **** /** @defgroup RCC_LL_EC_I2S1  Peripheral I2S get clock source
 327:Drivers/STM32F2xx_HAL_Driver/Inc/stm32f2xx_ll_rcc.h ****   * @{
 328:Drivers/STM32F2xx_HAL_Driver/Inc/stm32f2xx_ll_rcc.h ****   */
 329:Drivers/STM32F2xx_HAL_Driver/Inc/stm32f2xx_ll_rcc.h **** #define LL_RCC_I2S1_CLKSOURCE              RCC_CFGR_I2SSRC     /*!< I2S1 Clock source selection */
 330:Drivers/STM32F2xx_HAL_Driver/Inc/stm32f2xx_ll_rcc.h **** /**
 331:Drivers/STM32F2xx_HAL_Driver/Inc/stm32f2xx_ll_rcc.h ****   * @}
 332:Drivers/STM32F2xx_HAL_Driver/Inc/stm32f2xx_ll_rcc.h ****   */
 333:Drivers/STM32F2xx_HAL_Driver/Inc/stm32f2xx_ll_rcc.h **** 
 334:Drivers/STM32F2xx_HAL_Driver/Inc/stm32f2xx_ll_rcc.h **** /** @defgroup RCC_LL_EC_RTC_CLKSOURCE  RTC clock source selection
 335:Drivers/STM32F2xx_HAL_Driver/Inc/stm32f2xx_ll_rcc.h ****   * @{
 336:Drivers/STM32F2xx_HAL_Driver/Inc/stm32f2xx_ll_rcc.h ****   */
 337:Drivers/STM32F2xx_HAL_Driver/Inc/stm32f2xx_ll_rcc.h **** #define LL_RCC_RTC_CLKSOURCE_NONE          0x00000000U             /*!< No clock used as RTC clock 
 338:Drivers/STM32F2xx_HAL_Driver/Inc/stm32f2xx_ll_rcc.h **** #define LL_RCC_RTC_CLKSOURCE_LSE           RCC_BDCR_RTCSEL_0       /*!< LSE oscillator clock used a
 339:Drivers/STM32F2xx_HAL_Driver/Inc/stm32f2xx_ll_rcc.h **** #define LL_RCC_RTC_CLKSOURCE_LSI           RCC_BDCR_RTCSEL_1       /*!< LSI oscillator clock used a
 340:Drivers/STM32F2xx_HAL_Driver/Inc/stm32f2xx_ll_rcc.h **** #define LL_RCC_RTC_CLKSOURCE_HSE           RCC_BDCR_RTCSEL         /*!< HSE oscillator clock divide
 341:Drivers/STM32F2xx_HAL_Driver/Inc/stm32f2xx_ll_rcc.h **** /**
 342:Drivers/STM32F2xx_HAL_Driver/Inc/stm32f2xx_ll_rcc.h ****   * @}
 343:Drivers/STM32F2xx_HAL_Driver/Inc/stm32f2xx_ll_rcc.h ****   */
 344:Drivers/STM32F2xx_HAL_Driver/Inc/stm32f2xx_ll_rcc.h **** 
 345:Drivers/STM32F2xx_HAL_Driver/Inc/stm32f2xx_ll_rcc.h **** /** @defgroup RCC_LL_EC_PLLSOURCE  PLL and PLLI2S entry clock source
 346:Drivers/STM32F2xx_HAL_Driver/Inc/stm32f2xx_ll_rcc.h ****   * @{
 347:Drivers/STM32F2xx_HAL_Driver/Inc/stm32f2xx_ll_rcc.h ****   */
 348:Drivers/STM32F2xx_HAL_Driver/Inc/stm32f2xx_ll_rcc.h **** #define LL_RCC_PLLSOURCE_HSI               RCC_PLLCFGR_PLLSRC_HSI  /*!< HSI16 clock selected as PLL
 349:Drivers/STM32F2xx_HAL_Driver/Inc/stm32f2xx_ll_rcc.h **** #define LL_RCC_PLLSOURCE_HSE               RCC_PLLCFGR_PLLSRC_HSE  /*!< HSE clock selected as PLL e
 350:Drivers/STM32F2xx_HAL_Driver/Inc/stm32f2xx_ll_rcc.h **** /**
 351:Drivers/STM32F2xx_HAL_Driver/Inc/stm32f2xx_ll_rcc.h ****   * @}
 352:Drivers/STM32F2xx_HAL_Driver/Inc/stm32f2xx_ll_rcc.h ****   */
 353:Drivers/STM32F2xx_HAL_Driver/Inc/stm32f2xx_ll_rcc.h **** 
 354:Drivers/STM32F2xx_HAL_Driver/Inc/stm32f2xx_ll_rcc.h **** /** @defgroup RCC_LL_EC_PLLM_DIV  PLL and PLLI2S division factor
 355:Drivers/STM32F2xx_HAL_Driver/Inc/stm32f2xx_ll_rcc.h ****   * @{
 356:Drivers/STM32F2xx_HAL_Driver/Inc/stm32f2xx_ll_rcc.h ****   */
ARM GAS  C:\Users\Artem\AppData\Local\Temp\cc8fbasp.s 			page 33


 357:Drivers/STM32F2xx_HAL_Driver/Inc/stm32f2xx_ll_rcc.h **** #define LL_RCC_PLLM_DIV_2                  (RCC_PLLCFGR_PLLM_1) /*!< PLL and PLLI2S division factor
 358:Drivers/STM32F2xx_HAL_Driver/Inc/stm32f2xx_ll_rcc.h **** #define LL_RCC_PLLM_DIV_3                  (RCC_PLLCFGR_PLLM_1 | RCC_PLLCFGR_PLLM_0) /*!< PLL and P
 359:Drivers/STM32F2xx_HAL_Driver/Inc/stm32f2xx_ll_rcc.h **** #define LL_RCC_PLLM_DIV_4                  (RCC_PLLCFGR_PLLM_2) /*!< PLL and PLLI2S division factor
 360:Drivers/STM32F2xx_HAL_Driver/Inc/stm32f2xx_ll_rcc.h **** #define LL_RCC_PLLM_DIV_5                  (RCC_PLLCFGR_PLLM_2 | RCC_PLLCFGR_PLLM_0) /*!< PLL and P
 361:Drivers/STM32F2xx_HAL_Driver/Inc/stm32f2xx_ll_rcc.h **** #define LL_RCC_PLLM_DIV_6                  (RCC_PLLCFGR_PLLM_2 | RCC_PLLCFGR_PLLM_1) /*!< PLL and P
 362:Drivers/STM32F2xx_HAL_Driver/Inc/stm32f2xx_ll_rcc.h **** #define LL_RCC_PLLM_DIV_7                  (RCC_PLLCFGR_PLLM_2 | RCC_PLLCFGR_PLLM_1 | RCC_PLLCFGR_P
 363:Drivers/STM32F2xx_HAL_Driver/Inc/stm32f2xx_ll_rcc.h **** #define LL_RCC_PLLM_DIV_8                  (RCC_PLLCFGR_PLLM_3) /*!< PLL and PLLI2S division factor
 364:Drivers/STM32F2xx_HAL_Driver/Inc/stm32f2xx_ll_rcc.h **** #define LL_RCC_PLLM_DIV_9                  (RCC_PLLCFGR_PLLM_3 | RCC_PLLCFGR_PLLM_0) /*!< PLL and P
 365:Drivers/STM32F2xx_HAL_Driver/Inc/stm32f2xx_ll_rcc.h **** #define LL_RCC_PLLM_DIV_10                 (RCC_PLLCFGR_PLLM_3 | RCC_PLLCFGR_PLLM_1) /*!< PLL and P
 366:Drivers/STM32F2xx_HAL_Driver/Inc/stm32f2xx_ll_rcc.h **** #define LL_RCC_PLLM_DIV_11                 (RCC_PLLCFGR_PLLM_3 | RCC_PLLCFGR_PLLM_1 | RCC_PLLCFGR_P
 367:Drivers/STM32F2xx_HAL_Driver/Inc/stm32f2xx_ll_rcc.h **** #define LL_RCC_PLLM_DIV_12                 (RCC_PLLCFGR_PLLM_3 | RCC_PLLCFGR_PLLM_2) /*!< PLL and P
 368:Drivers/STM32F2xx_HAL_Driver/Inc/stm32f2xx_ll_rcc.h **** #define LL_RCC_PLLM_DIV_13                 (RCC_PLLCFGR_PLLM_3 | RCC_PLLCFGR_PLLM_2 | RCC_PLLCFGR_P
 369:Drivers/STM32F2xx_HAL_Driver/Inc/stm32f2xx_ll_rcc.h **** #define LL_RCC_PLLM_DIV_14                 (RCC_PLLCFGR_PLLM_3 | RCC_PLLCFGR_PLLM_2 | RCC_PLLCFGR_P
 370:Drivers/STM32F2xx_HAL_Driver/Inc/stm32f2xx_ll_rcc.h **** #define LL_RCC_PLLM_DIV_15                 (RCC_PLLCFGR_PLLM_3 | RCC_PLLCFGR_PLLM_2 | RCC_PLLCFGR_P
 371:Drivers/STM32F2xx_HAL_Driver/Inc/stm32f2xx_ll_rcc.h **** #define LL_RCC_PLLM_DIV_16                 (RCC_PLLCFGR_PLLM_4) /*!< PLL and PLLI2S division factor
 372:Drivers/STM32F2xx_HAL_Driver/Inc/stm32f2xx_ll_rcc.h **** #define LL_RCC_PLLM_DIV_17                 (RCC_PLLCFGR_PLLM_4 | RCC_PLLCFGR_PLLM_0) /*!< PLL and P
 373:Drivers/STM32F2xx_HAL_Driver/Inc/stm32f2xx_ll_rcc.h **** #define LL_RCC_PLLM_DIV_18                 (RCC_PLLCFGR_PLLM_4 | RCC_PLLCFGR_PLLM_1) /*!< PLL and P
 374:Drivers/STM32F2xx_HAL_Driver/Inc/stm32f2xx_ll_rcc.h **** #define LL_RCC_PLLM_DIV_19                 (RCC_PLLCFGR_PLLM_4 | RCC_PLLCFGR_PLLM_1 | RCC_PLLCFGR_P
 375:Drivers/STM32F2xx_HAL_Driver/Inc/stm32f2xx_ll_rcc.h **** #define LL_RCC_PLLM_DIV_20                 (RCC_PLLCFGR_PLLM_4 | RCC_PLLCFGR_PLLM_2) /*!< PLL and P
 376:Drivers/STM32F2xx_HAL_Driver/Inc/stm32f2xx_ll_rcc.h **** #define LL_RCC_PLLM_DIV_21                 (RCC_PLLCFGR_PLLM_4 | RCC_PLLCFGR_PLLM_2 | RCC_PLLCFGR_P
 377:Drivers/STM32F2xx_HAL_Driver/Inc/stm32f2xx_ll_rcc.h **** #define LL_RCC_PLLM_DIV_22                 (RCC_PLLCFGR_PLLM_4 | RCC_PLLCFGR_PLLM_2 | RCC_PLLCFGR_P
 378:Drivers/STM32F2xx_HAL_Driver/Inc/stm32f2xx_ll_rcc.h **** #define LL_RCC_PLLM_DIV_23                 (RCC_PLLCFGR_PLLM_4 | RCC_PLLCFGR_PLLM_2 | RCC_PLLCFGR_P
 379:Drivers/STM32F2xx_HAL_Driver/Inc/stm32f2xx_ll_rcc.h **** #define LL_RCC_PLLM_DIV_24                 (RCC_PLLCFGR_PLLM_4 | RCC_PLLCFGR_PLLM_3) /*!< PLL and P
 380:Drivers/STM32F2xx_HAL_Driver/Inc/stm32f2xx_ll_rcc.h **** #define LL_RCC_PLLM_DIV_25                 (RCC_PLLCFGR_PLLM_4 | RCC_PLLCFGR_PLLM_3 | RCC_PLLCFGR_P
 381:Drivers/STM32F2xx_HAL_Driver/Inc/stm32f2xx_ll_rcc.h **** #define LL_RCC_PLLM_DIV_26                 (RCC_PLLCFGR_PLLM_4 | RCC_PLLCFGR_PLLM_3 | RCC_PLLCFGR_P
 382:Drivers/STM32F2xx_HAL_Driver/Inc/stm32f2xx_ll_rcc.h **** #define LL_RCC_PLLM_DIV_27                 (RCC_PLLCFGR_PLLM_4 | RCC_PLLCFGR_PLLM_3 | RCC_PLLCFGR_P
 383:Drivers/STM32F2xx_HAL_Driver/Inc/stm32f2xx_ll_rcc.h **** #define LL_RCC_PLLM_DIV_28                 (RCC_PLLCFGR_PLLM_4 | RCC_PLLCFGR_PLLM_3 | RCC_PLLCFGR_P
 384:Drivers/STM32F2xx_HAL_Driver/Inc/stm32f2xx_ll_rcc.h **** #define LL_RCC_PLLM_DIV_29                 (RCC_PLLCFGR_PLLM_4 | RCC_PLLCFGR_PLLM_3 | RCC_PLLCFGR_P
 385:Drivers/STM32F2xx_HAL_Driver/Inc/stm32f2xx_ll_rcc.h **** #define LL_RCC_PLLM_DIV_30                 (RCC_PLLCFGR_PLLM_4 | RCC_PLLCFGR_PLLM_3 | RCC_PLLCFGR_P
 386:Drivers/STM32F2xx_HAL_Driver/Inc/stm32f2xx_ll_rcc.h **** #define LL_RCC_PLLM_DIV_31                 (RCC_PLLCFGR_PLLM_4 | RCC_PLLCFGR_PLLM_3 | RCC_PLLCFGR_P
 387:Drivers/STM32F2xx_HAL_Driver/Inc/stm32f2xx_ll_rcc.h **** #define LL_RCC_PLLM_DIV_32                 (RCC_PLLCFGR_PLLM_5) /*!< PLL and PLLI2S division factor
 388:Drivers/STM32F2xx_HAL_Driver/Inc/stm32f2xx_ll_rcc.h **** #define LL_RCC_PLLM_DIV_33                 (RCC_PLLCFGR_PLLM_5 | RCC_PLLCFGR_PLLM_0) /*!< PLL and P
 389:Drivers/STM32F2xx_HAL_Driver/Inc/stm32f2xx_ll_rcc.h **** #define LL_RCC_PLLM_DIV_34                 (RCC_PLLCFGR_PLLM_5 | RCC_PLLCFGR_PLLM_1) /*!< PLL and P
 390:Drivers/STM32F2xx_HAL_Driver/Inc/stm32f2xx_ll_rcc.h **** #define LL_RCC_PLLM_DIV_35                 (RCC_PLLCFGR_PLLM_5 | RCC_PLLCFGR_PLLM_1 | RCC_PLLCFGR_P
 391:Drivers/STM32F2xx_HAL_Driver/Inc/stm32f2xx_ll_rcc.h **** #define LL_RCC_PLLM_DIV_36                 (RCC_PLLCFGR_PLLM_5 | RCC_PLLCFGR_PLLM_2) /*!< PLL and P
 392:Drivers/STM32F2xx_HAL_Driver/Inc/stm32f2xx_ll_rcc.h **** #define LL_RCC_PLLM_DIV_37                 (RCC_PLLCFGR_PLLM_5 | RCC_PLLCFGR_PLLM_2 | RCC_PLLCFGR_P
 393:Drivers/STM32F2xx_HAL_Driver/Inc/stm32f2xx_ll_rcc.h **** #define LL_RCC_PLLM_DIV_38                 (RCC_PLLCFGR_PLLM_5 | RCC_PLLCFGR_PLLM_2 | RCC_PLLCFGR_P
 394:Drivers/STM32F2xx_HAL_Driver/Inc/stm32f2xx_ll_rcc.h **** #define LL_RCC_PLLM_DIV_39                 (RCC_PLLCFGR_PLLM_5 | RCC_PLLCFGR_PLLM_2 | RCC_PLLCFGR_P
 395:Drivers/STM32F2xx_HAL_Driver/Inc/stm32f2xx_ll_rcc.h **** #define LL_RCC_PLLM_DIV_40                 (RCC_PLLCFGR_PLLM_5 | RCC_PLLCFGR_PLLM_3) /*!< PLL and P
 396:Drivers/STM32F2xx_HAL_Driver/Inc/stm32f2xx_ll_rcc.h **** #define LL_RCC_PLLM_DIV_41                 (RCC_PLLCFGR_PLLM_5 | RCC_PLLCFGR_PLLM_3 | RCC_PLLCFGR_P
 397:Drivers/STM32F2xx_HAL_Driver/Inc/stm32f2xx_ll_rcc.h **** #define LL_RCC_PLLM_DIV_42                 (RCC_PLLCFGR_PLLM_5 | RCC_PLLCFGR_PLLM_3 | RCC_PLLCFGR_P
 398:Drivers/STM32F2xx_HAL_Driver/Inc/stm32f2xx_ll_rcc.h **** #define LL_RCC_PLLM_DIV_43                 (RCC_PLLCFGR_PLLM_5 | RCC_PLLCFGR_PLLM_3 | RCC_PLLCFGR_P
 399:Drivers/STM32F2xx_HAL_Driver/Inc/stm32f2xx_ll_rcc.h **** #define LL_RCC_PLLM_DIV_44                 (RCC_PLLCFGR_PLLM_5 | RCC_PLLCFGR_PLLM_3 | RCC_PLLCFGR_P
 400:Drivers/STM32F2xx_HAL_Driver/Inc/stm32f2xx_ll_rcc.h **** #define LL_RCC_PLLM_DIV_45                 (RCC_PLLCFGR_PLLM_5 | RCC_PLLCFGR_PLLM_3 | RCC_PLLCFGR_P
 401:Drivers/STM32F2xx_HAL_Driver/Inc/stm32f2xx_ll_rcc.h **** #define LL_RCC_PLLM_DIV_46                 (RCC_PLLCFGR_PLLM_5 | RCC_PLLCFGR_PLLM_3 | RCC_PLLCFGR_P
 402:Drivers/STM32F2xx_HAL_Driver/Inc/stm32f2xx_ll_rcc.h **** #define LL_RCC_PLLM_DIV_47                 (RCC_PLLCFGR_PLLM_5 | RCC_PLLCFGR_PLLM_3 | RCC_PLLCFGR_P
 403:Drivers/STM32F2xx_HAL_Driver/Inc/stm32f2xx_ll_rcc.h **** #define LL_RCC_PLLM_DIV_48                 (RCC_PLLCFGR_PLLM_5 | RCC_PLLCFGR_PLLM_4) /*!< PLL and P
 404:Drivers/STM32F2xx_HAL_Driver/Inc/stm32f2xx_ll_rcc.h **** #define LL_RCC_PLLM_DIV_49                 (RCC_PLLCFGR_PLLM_5 | RCC_PLLCFGR_PLLM_4 | RCC_PLLCFGR_P
 405:Drivers/STM32F2xx_HAL_Driver/Inc/stm32f2xx_ll_rcc.h **** #define LL_RCC_PLLM_DIV_50                 (RCC_PLLCFGR_PLLM_5 | RCC_PLLCFGR_PLLM_4 | RCC_PLLCFGR_P
 406:Drivers/STM32F2xx_HAL_Driver/Inc/stm32f2xx_ll_rcc.h **** #define LL_RCC_PLLM_DIV_51                 (RCC_PLLCFGR_PLLM_5 | RCC_PLLCFGR_PLLM_4 | RCC_PLLCFGR_P
 407:Drivers/STM32F2xx_HAL_Driver/Inc/stm32f2xx_ll_rcc.h **** #define LL_RCC_PLLM_DIV_52                 (RCC_PLLCFGR_PLLM_5 | RCC_PLLCFGR_PLLM_4 | RCC_PLLCFGR_P
 408:Drivers/STM32F2xx_HAL_Driver/Inc/stm32f2xx_ll_rcc.h **** #define LL_RCC_PLLM_DIV_53                 (RCC_PLLCFGR_PLLM_5 | RCC_PLLCFGR_PLLM_4 | RCC_PLLCFGR_P
 409:Drivers/STM32F2xx_HAL_Driver/Inc/stm32f2xx_ll_rcc.h **** #define LL_RCC_PLLM_DIV_54                 (RCC_PLLCFGR_PLLM_5 | RCC_PLLCFGR_PLLM_4 | RCC_PLLCFGR_P
 410:Drivers/STM32F2xx_HAL_Driver/Inc/stm32f2xx_ll_rcc.h **** #define LL_RCC_PLLM_DIV_55                 (RCC_PLLCFGR_PLLM_5 | RCC_PLLCFGR_PLLM_4 | RCC_PLLCFGR_P
 411:Drivers/STM32F2xx_HAL_Driver/Inc/stm32f2xx_ll_rcc.h **** #define LL_RCC_PLLM_DIV_56                 (RCC_PLLCFGR_PLLM_5 | RCC_PLLCFGR_PLLM_4 | RCC_PLLCFGR_P
 412:Drivers/STM32F2xx_HAL_Driver/Inc/stm32f2xx_ll_rcc.h **** #define LL_RCC_PLLM_DIV_57                 (RCC_PLLCFGR_PLLM_5 | RCC_PLLCFGR_PLLM_4 | RCC_PLLCFGR_P
 413:Drivers/STM32F2xx_HAL_Driver/Inc/stm32f2xx_ll_rcc.h **** #define LL_RCC_PLLM_DIV_58                 (RCC_PLLCFGR_PLLM_5 | RCC_PLLCFGR_PLLM_4 | RCC_PLLCFGR_P
ARM GAS  C:\Users\Artem\AppData\Local\Temp\cc8fbasp.s 			page 34


 414:Drivers/STM32F2xx_HAL_Driver/Inc/stm32f2xx_ll_rcc.h **** #define LL_RCC_PLLM_DIV_59                 (RCC_PLLCFGR_PLLM_5 | RCC_PLLCFGR_PLLM_4 | RCC_PLLCFGR_P
 415:Drivers/STM32F2xx_HAL_Driver/Inc/stm32f2xx_ll_rcc.h **** #define LL_RCC_PLLM_DIV_60                 (RCC_PLLCFGR_PLLM_5 | RCC_PLLCFGR_PLLM_4 | RCC_PLLCFGR_P
 416:Drivers/STM32F2xx_HAL_Driver/Inc/stm32f2xx_ll_rcc.h **** #define LL_RCC_PLLM_DIV_61                 (RCC_PLLCFGR_PLLM_5 | RCC_PLLCFGR_PLLM_4 | RCC_PLLCFGR_P
 417:Drivers/STM32F2xx_HAL_Driver/Inc/stm32f2xx_ll_rcc.h **** #define LL_RCC_PLLM_DIV_62                 (RCC_PLLCFGR_PLLM_5 | RCC_PLLCFGR_PLLM_4 | RCC_PLLCFGR_P
 418:Drivers/STM32F2xx_HAL_Driver/Inc/stm32f2xx_ll_rcc.h **** #define LL_RCC_PLLM_DIV_63                 (RCC_PLLCFGR_PLLM_5 | RCC_PLLCFGR_PLLM_4 | RCC_PLLCFGR_P
 419:Drivers/STM32F2xx_HAL_Driver/Inc/stm32f2xx_ll_rcc.h **** /**
 420:Drivers/STM32F2xx_HAL_Driver/Inc/stm32f2xx_ll_rcc.h ****   * @}
 421:Drivers/STM32F2xx_HAL_Driver/Inc/stm32f2xx_ll_rcc.h ****   */
 422:Drivers/STM32F2xx_HAL_Driver/Inc/stm32f2xx_ll_rcc.h **** 
 423:Drivers/STM32F2xx_HAL_Driver/Inc/stm32f2xx_ll_rcc.h **** /** @defgroup RCC_LL_EC_PLLP_DIV  PLL division factor (PLLP)
 424:Drivers/STM32F2xx_HAL_Driver/Inc/stm32f2xx_ll_rcc.h ****   * @{
 425:Drivers/STM32F2xx_HAL_Driver/Inc/stm32f2xx_ll_rcc.h ****   */
 426:Drivers/STM32F2xx_HAL_Driver/Inc/stm32f2xx_ll_rcc.h **** #define LL_RCC_PLLP_DIV_2                  0x00000000U            /*!< Main PLL division factor for
 427:Drivers/STM32F2xx_HAL_Driver/Inc/stm32f2xx_ll_rcc.h **** #define LL_RCC_PLLP_DIV_4                  RCC_PLLCFGR_PLLP_0     /*!< Main PLL division factor for
 428:Drivers/STM32F2xx_HAL_Driver/Inc/stm32f2xx_ll_rcc.h **** #define LL_RCC_PLLP_DIV_6                  RCC_PLLCFGR_PLLP_1     /*!< Main PLL division factor for
 429:Drivers/STM32F2xx_HAL_Driver/Inc/stm32f2xx_ll_rcc.h **** #define LL_RCC_PLLP_DIV_8                  (RCC_PLLCFGR_PLLP_1 | RCC_PLLCFGR_PLLP_0)   /*!< Main PL
 430:Drivers/STM32F2xx_HAL_Driver/Inc/stm32f2xx_ll_rcc.h **** /**
 431:Drivers/STM32F2xx_HAL_Driver/Inc/stm32f2xx_ll_rcc.h ****   * @}
 432:Drivers/STM32F2xx_HAL_Driver/Inc/stm32f2xx_ll_rcc.h ****   */
 433:Drivers/STM32F2xx_HAL_Driver/Inc/stm32f2xx_ll_rcc.h **** 
 434:Drivers/STM32F2xx_HAL_Driver/Inc/stm32f2xx_ll_rcc.h **** /** @defgroup RCC_LL_EC_PLLQ_DIV  PLL division factor (PLLQ)
 435:Drivers/STM32F2xx_HAL_Driver/Inc/stm32f2xx_ll_rcc.h ****   * @{
 436:Drivers/STM32F2xx_HAL_Driver/Inc/stm32f2xx_ll_rcc.h ****   */
 437:Drivers/STM32F2xx_HAL_Driver/Inc/stm32f2xx_ll_rcc.h **** #define LL_RCC_PLLQ_DIV_2                  RCC_PLLCFGR_PLLQ_1                      /*!< Main PLL di
 438:Drivers/STM32F2xx_HAL_Driver/Inc/stm32f2xx_ll_rcc.h **** #define LL_RCC_PLLQ_DIV_3                  (RCC_PLLCFGR_PLLQ_1|RCC_PLLCFGR_PLLQ_0) /*!< Main PLL di
 439:Drivers/STM32F2xx_HAL_Driver/Inc/stm32f2xx_ll_rcc.h **** #define LL_RCC_PLLQ_DIV_4                  RCC_PLLCFGR_PLLQ_2                      /*!< Main PLL di
 440:Drivers/STM32F2xx_HAL_Driver/Inc/stm32f2xx_ll_rcc.h **** #define LL_RCC_PLLQ_DIV_5                  (RCC_PLLCFGR_PLLQ_2|RCC_PLLCFGR_PLLQ_0) /*!< Main PLL di
 441:Drivers/STM32F2xx_HAL_Driver/Inc/stm32f2xx_ll_rcc.h **** #define LL_RCC_PLLQ_DIV_6                  (RCC_PLLCFGR_PLLQ_2|RCC_PLLCFGR_PLLQ_1) /*!< Main PLL di
 442:Drivers/STM32F2xx_HAL_Driver/Inc/stm32f2xx_ll_rcc.h **** #define LL_RCC_PLLQ_DIV_7                  (RCC_PLLCFGR_PLLQ_2|RCC_PLLCFGR_PLLQ_1|RCC_PLLCFGR_PLLQ_
 443:Drivers/STM32F2xx_HAL_Driver/Inc/stm32f2xx_ll_rcc.h **** #define LL_RCC_PLLQ_DIV_8                  RCC_PLLCFGR_PLLQ_3                      /*!< Main PLL di
 444:Drivers/STM32F2xx_HAL_Driver/Inc/stm32f2xx_ll_rcc.h **** #define LL_RCC_PLLQ_DIV_9                  (RCC_PLLCFGR_PLLQ_3|RCC_PLLCFGR_PLLQ_0) /*!< Main PLL di
 445:Drivers/STM32F2xx_HAL_Driver/Inc/stm32f2xx_ll_rcc.h **** #define LL_RCC_PLLQ_DIV_10                 (RCC_PLLCFGR_PLLQ_3|RCC_PLLCFGR_PLLQ_1) /*!< Main PLL di
 446:Drivers/STM32F2xx_HAL_Driver/Inc/stm32f2xx_ll_rcc.h **** #define LL_RCC_PLLQ_DIV_11                 (RCC_PLLCFGR_PLLQ_3|RCC_PLLCFGR_PLLQ_1|RCC_PLLCFGR_PLLQ_
 447:Drivers/STM32F2xx_HAL_Driver/Inc/stm32f2xx_ll_rcc.h **** #define LL_RCC_PLLQ_DIV_12                 (RCC_PLLCFGR_PLLQ_3|RCC_PLLCFGR_PLLQ_2) /*!< Main PLL di
 448:Drivers/STM32F2xx_HAL_Driver/Inc/stm32f2xx_ll_rcc.h **** #define LL_RCC_PLLQ_DIV_13                 (RCC_PLLCFGR_PLLQ_3|RCC_PLLCFGR_PLLQ_2|RCC_PLLCFGR_PLLQ_
 449:Drivers/STM32F2xx_HAL_Driver/Inc/stm32f2xx_ll_rcc.h **** #define LL_RCC_PLLQ_DIV_14                 (RCC_PLLCFGR_PLLQ_3|RCC_PLLCFGR_PLLQ_2|RCC_PLLCFGR_PLLQ_
 450:Drivers/STM32F2xx_HAL_Driver/Inc/stm32f2xx_ll_rcc.h **** #define LL_RCC_PLLQ_DIV_15                 (RCC_PLLCFGR_PLLQ_3|RCC_PLLCFGR_PLLQ_2|RCC_PLLCFGR_PLLQ_
 451:Drivers/STM32F2xx_HAL_Driver/Inc/stm32f2xx_ll_rcc.h **** /**
 452:Drivers/STM32F2xx_HAL_Driver/Inc/stm32f2xx_ll_rcc.h ****   * @}
 453:Drivers/STM32F2xx_HAL_Driver/Inc/stm32f2xx_ll_rcc.h ****   */
 454:Drivers/STM32F2xx_HAL_Driver/Inc/stm32f2xx_ll_rcc.h **** 
 455:Drivers/STM32F2xx_HAL_Driver/Inc/stm32f2xx_ll_rcc.h **** /** @defgroup RCC_LL_EC_PLL_SPRE_SEL  PLL Spread Spectrum Selection
 456:Drivers/STM32F2xx_HAL_Driver/Inc/stm32f2xx_ll_rcc.h ****   * @{
 457:Drivers/STM32F2xx_HAL_Driver/Inc/stm32f2xx_ll_rcc.h ****   */
 458:Drivers/STM32F2xx_HAL_Driver/Inc/stm32f2xx_ll_rcc.h **** #define LL_RCC_SPREAD_SELECT_CENTER        0x00000000U                   /*!< PLL center spread spe
 459:Drivers/STM32F2xx_HAL_Driver/Inc/stm32f2xx_ll_rcc.h **** #define LL_RCC_SPREAD_SELECT_DOWN          RCC_SSCGR_SPREADSEL           /*!< PLL down spread spect
 460:Drivers/STM32F2xx_HAL_Driver/Inc/stm32f2xx_ll_rcc.h **** /**
 461:Drivers/STM32F2xx_HAL_Driver/Inc/stm32f2xx_ll_rcc.h ****   * @}
 462:Drivers/STM32F2xx_HAL_Driver/Inc/stm32f2xx_ll_rcc.h ****   */
 463:Drivers/STM32F2xx_HAL_Driver/Inc/stm32f2xx_ll_rcc.h **** 
 464:Drivers/STM32F2xx_HAL_Driver/Inc/stm32f2xx_ll_rcc.h **** /** @defgroup RCC_LL_EC_PLLI2SR  PLLI2SR division factor (PLLI2SR)
 465:Drivers/STM32F2xx_HAL_Driver/Inc/stm32f2xx_ll_rcc.h ****   * @{
 466:Drivers/STM32F2xx_HAL_Driver/Inc/stm32f2xx_ll_rcc.h ****   */
 467:Drivers/STM32F2xx_HAL_Driver/Inc/stm32f2xx_ll_rcc.h **** #define LL_RCC_PLLI2SR_DIV_2              RCC_PLLI2SCFGR_PLLI2SR_1                                 
 468:Drivers/STM32F2xx_HAL_Driver/Inc/stm32f2xx_ll_rcc.h **** #define LL_RCC_PLLI2SR_DIV_3              (RCC_PLLI2SCFGR_PLLI2SR_1 | RCC_PLLI2SCFGR_PLLI2SR_0)    
 469:Drivers/STM32F2xx_HAL_Driver/Inc/stm32f2xx_ll_rcc.h **** #define LL_RCC_PLLI2SR_DIV_4              RCC_PLLI2SCFGR_PLLI2SR_2                                 
 470:Drivers/STM32F2xx_HAL_Driver/Inc/stm32f2xx_ll_rcc.h **** #define LL_RCC_PLLI2SR_DIV_5              (RCC_PLLI2SCFGR_PLLI2SR_2 | RCC_PLLI2SCFGR_PLLI2SR_0)    
ARM GAS  C:\Users\Artem\AppData\Local\Temp\cc8fbasp.s 			page 35


 471:Drivers/STM32F2xx_HAL_Driver/Inc/stm32f2xx_ll_rcc.h **** #define LL_RCC_PLLI2SR_DIV_6              (RCC_PLLI2SCFGR_PLLI2SR_2 | RCC_PLLI2SCFGR_PLLI2SR_1)    
 472:Drivers/STM32F2xx_HAL_Driver/Inc/stm32f2xx_ll_rcc.h **** #define LL_RCC_PLLI2SR_DIV_7              (RCC_PLLI2SCFGR_PLLI2SR_2 | RCC_PLLI2SCFGR_PLLI2SR_1 | RC
 473:Drivers/STM32F2xx_HAL_Driver/Inc/stm32f2xx_ll_rcc.h **** /**
 474:Drivers/STM32F2xx_HAL_Driver/Inc/stm32f2xx_ll_rcc.h ****   * @}
 475:Drivers/STM32F2xx_HAL_Driver/Inc/stm32f2xx_ll_rcc.h ****   */
 476:Drivers/STM32F2xx_HAL_Driver/Inc/stm32f2xx_ll_rcc.h **** 
 477:Drivers/STM32F2xx_HAL_Driver/Inc/stm32f2xx_ll_rcc.h **** /**
 478:Drivers/STM32F2xx_HAL_Driver/Inc/stm32f2xx_ll_rcc.h ****   * @}
 479:Drivers/STM32F2xx_HAL_Driver/Inc/stm32f2xx_ll_rcc.h ****   */
 480:Drivers/STM32F2xx_HAL_Driver/Inc/stm32f2xx_ll_rcc.h **** 
 481:Drivers/STM32F2xx_HAL_Driver/Inc/stm32f2xx_ll_rcc.h **** /* Exported macro ------------------------------------------------------------*/
 482:Drivers/STM32F2xx_HAL_Driver/Inc/stm32f2xx_ll_rcc.h **** /** @defgroup RCC_LL_Exported_Macros RCC Exported Macros
 483:Drivers/STM32F2xx_HAL_Driver/Inc/stm32f2xx_ll_rcc.h ****   * @{
 484:Drivers/STM32F2xx_HAL_Driver/Inc/stm32f2xx_ll_rcc.h ****   */
 485:Drivers/STM32F2xx_HAL_Driver/Inc/stm32f2xx_ll_rcc.h **** 
 486:Drivers/STM32F2xx_HAL_Driver/Inc/stm32f2xx_ll_rcc.h **** /** @defgroup RCC_LL_EM_WRITE_READ Common Write and read registers Macros
 487:Drivers/STM32F2xx_HAL_Driver/Inc/stm32f2xx_ll_rcc.h ****   * @{
 488:Drivers/STM32F2xx_HAL_Driver/Inc/stm32f2xx_ll_rcc.h ****   */
 489:Drivers/STM32F2xx_HAL_Driver/Inc/stm32f2xx_ll_rcc.h **** 
 490:Drivers/STM32F2xx_HAL_Driver/Inc/stm32f2xx_ll_rcc.h **** /**
 491:Drivers/STM32F2xx_HAL_Driver/Inc/stm32f2xx_ll_rcc.h ****   * @brief  Write a value in RCC register
 492:Drivers/STM32F2xx_HAL_Driver/Inc/stm32f2xx_ll_rcc.h ****   * @param  __REG__ Register to be written
 493:Drivers/STM32F2xx_HAL_Driver/Inc/stm32f2xx_ll_rcc.h ****   * @param  __VALUE__ Value to be written in the register
 494:Drivers/STM32F2xx_HAL_Driver/Inc/stm32f2xx_ll_rcc.h ****   * @retval None
 495:Drivers/STM32F2xx_HAL_Driver/Inc/stm32f2xx_ll_rcc.h ****   */
 496:Drivers/STM32F2xx_HAL_Driver/Inc/stm32f2xx_ll_rcc.h **** #define LL_RCC_WriteReg(__REG__, __VALUE__) WRITE_REG(RCC->__REG__, (__VALUE__))
 497:Drivers/STM32F2xx_HAL_Driver/Inc/stm32f2xx_ll_rcc.h **** 
 498:Drivers/STM32F2xx_HAL_Driver/Inc/stm32f2xx_ll_rcc.h **** /**
 499:Drivers/STM32F2xx_HAL_Driver/Inc/stm32f2xx_ll_rcc.h ****   * @brief  Read a value in RCC register
 500:Drivers/STM32F2xx_HAL_Driver/Inc/stm32f2xx_ll_rcc.h ****   * @param  __REG__ Register to be read
 501:Drivers/STM32F2xx_HAL_Driver/Inc/stm32f2xx_ll_rcc.h ****   * @retval Register value
 502:Drivers/STM32F2xx_HAL_Driver/Inc/stm32f2xx_ll_rcc.h ****   */
 503:Drivers/STM32F2xx_HAL_Driver/Inc/stm32f2xx_ll_rcc.h **** #define LL_RCC_ReadReg(__REG__) READ_REG(RCC->__REG__)
 504:Drivers/STM32F2xx_HAL_Driver/Inc/stm32f2xx_ll_rcc.h **** /**
 505:Drivers/STM32F2xx_HAL_Driver/Inc/stm32f2xx_ll_rcc.h ****   * @}
 506:Drivers/STM32F2xx_HAL_Driver/Inc/stm32f2xx_ll_rcc.h ****   */
 507:Drivers/STM32F2xx_HAL_Driver/Inc/stm32f2xx_ll_rcc.h **** 
 508:Drivers/STM32F2xx_HAL_Driver/Inc/stm32f2xx_ll_rcc.h **** /** @defgroup RCC_LL_EM_CALC_FREQ Calculate frequencies
 509:Drivers/STM32F2xx_HAL_Driver/Inc/stm32f2xx_ll_rcc.h ****   * @{
 510:Drivers/STM32F2xx_HAL_Driver/Inc/stm32f2xx_ll_rcc.h ****   */
 511:Drivers/STM32F2xx_HAL_Driver/Inc/stm32f2xx_ll_rcc.h **** 
 512:Drivers/STM32F2xx_HAL_Driver/Inc/stm32f2xx_ll_rcc.h **** /**
 513:Drivers/STM32F2xx_HAL_Driver/Inc/stm32f2xx_ll_rcc.h ****   * @brief  Helper macro to calculate the PLLCLK frequency on system domain
 514:Drivers/STM32F2xx_HAL_Driver/Inc/stm32f2xx_ll_rcc.h ****   * @note ex: @ref __LL_RCC_CALC_PLLCLK_FREQ (HSE_VALUE,@ref LL_RCC_PLL_GetDivider (),
 515:Drivers/STM32F2xx_HAL_Driver/Inc/stm32f2xx_ll_rcc.h ****   *             @ref LL_RCC_PLL_GetN (), @ref LL_RCC_PLL_GetP ());
 516:Drivers/STM32F2xx_HAL_Driver/Inc/stm32f2xx_ll_rcc.h ****   * @param  __INPUTFREQ__ PLL Input frequency (based on HSE/HSI)
 517:Drivers/STM32F2xx_HAL_Driver/Inc/stm32f2xx_ll_rcc.h ****   * @param  __PLLM__ This parameter can be one of the following values:
 518:Drivers/STM32F2xx_HAL_Driver/Inc/stm32f2xx_ll_rcc.h ****   *         @arg @ref LL_RCC_PLLM_DIV_2
 519:Drivers/STM32F2xx_HAL_Driver/Inc/stm32f2xx_ll_rcc.h ****   *         @arg @ref LL_RCC_PLLM_DIV_3
 520:Drivers/STM32F2xx_HAL_Driver/Inc/stm32f2xx_ll_rcc.h ****   *         @arg @ref LL_RCC_PLLM_DIV_4
 521:Drivers/STM32F2xx_HAL_Driver/Inc/stm32f2xx_ll_rcc.h ****   *         @arg @ref LL_RCC_PLLM_DIV_5
 522:Drivers/STM32F2xx_HAL_Driver/Inc/stm32f2xx_ll_rcc.h ****   *         @arg @ref LL_RCC_PLLM_DIV_6
 523:Drivers/STM32F2xx_HAL_Driver/Inc/stm32f2xx_ll_rcc.h ****   *         @arg @ref LL_RCC_PLLM_DIV_7
 524:Drivers/STM32F2xx_HAL_Driver/Inc/stm32f2xx_ll_rcc.h ****   *         @arg @ref LL_RCC_PLLM_DIV_8
 525:Drivers/STM32F2xx_HAL_Driver/Inc/stm32f2xx_ll_rcc.h ****   *         @arg @ref LL_RCC_PLLM_DIV_9
 526:Drivers/STM32F2xx_HAL_Driver/Inc/stm32f2xx_ll_rcc.h ****   *         @arg @ref LL_RCC_PLLM_DIV_10
 527:Drivers/STM32F2xx_HAL_Driver/Inc/stm32f2xx_ll_rcc.h ****   *         @arg @ref LL_RCC_PLLM_DIV_11
ARM GAS  C:\Users\Artem\AppData\Local\Temp\cc8fbasp.s 			page 36


 528:Drivers/STM32F2xx_HAL_Driver/Inc/stm32f2xx_ll_rcc.h ****   *         @arg @ref LL_RCC_PLLM_DIV_12
 529:Drivers/STM32F2xx_HAL_Driver/Inc/stm32f2xx_ll_rcc.h ****   *         @arg @ref LL_RCC_PLLM_DIV_13
 530:Drivers/STM32F2xx_HAL_Driver/Inc/stm32f2xx_ll_rcc.h ****   *         @arg @ref LL_RCC_PLLM_DIV_14
 531:Drivers/STM32F2xx_HAL_Driver/Inc/stm32f2xx_ll_rcc.h ****   *         @arg @ref LL_RCC_PLLM_DIV_15
 532:Drivers/STM32F2xx_HAL_Driver/Inc/stm32f2xx_ll_rcc.h ****   *         @arg @ref LL_RCC_PLLM_DIV_16
 533:Drivers/STM32F2xx_HAL_Driver/Inc/stm32f2xx_ll_rcc.h ****   *         @arg @ref LL_RCC_PLLM_DIV_17
 534:Drivers/STM32F2xx_HAL_Driver/Inc/stm32f2xx_ll_rcc.h ****   *         @arg @ref LL_RCC_PLLM_DIV_18
 535:Drivers/STM32F2xx_HAL_Driver/Inc/stm32f2xx_ll_rcc.h ****   *         @arg @ref LL_RCC_PLLM_DIV_19
 536:Drivers/STM32F2xx_HAL_Driver/Inc/stm32f2xx_ll_rcc.h ****   *         @arg @ref LL_RCC_PLLM_DIV_20
 537:Drivers/STM32F2xx_HAL_Driver/Inc/stm32f2xx_ll_rcc.h ****   *         @arg @ref LL_RCC_PLLM_DIV_21
 538:Drivers/STM32F2xx_HAL_Driver/Inc/stm32f2xx_ll_rcc.h ****   *         @arg @ref LL_RCC_PLLM_DIV_22
 539:Drivers/STM32F2xx_HAL_Driver/Inc/stm32f2xx_ll_rcc.h ****   *         @arg @ref LL_RCC_PLLM_DIV_23
 540:Drivers/STM32F2xx_HAL_Driver/Inc/stm32f2xx_ll_rcc.h ****   *         @arg @ref LL_RCC_PLLM_DIV_24
 541:Drivers/STM32F2xx_HAL_Driver/Inc/stm32f2xx_ll_rcc.h ****   *         @arg @ref LL_RCC_PLLM_DIV_25
 542:Drivers/STM32F2xx_HAL_Driver/Inc/stm32f2xx_ll_rcc.h ****   *         @arg @ref LL_RCC_PLLM_DIV_26
 543:Drivers/STM32F2xx_HAL_Driver/Inc/stm32f2xx_ll_rcc.h ****   *         @arg @ref LL_RCC_PLLM_DIV_27
 544:Drivers/STM32F2xx_HAL_Driver/Inc/stm32f2xx_ll_rcc.h ****   *         @arg @ref LL_RCC_PLLM_DIV_28
 545:Drivers/STM32F2xx_HAL_Driver/Inc/stm32f2xx_ll_rcc.h ****   *         @arg @ref LL_RCC_PLLM_DIV_29
 546:Drivers/STM32F2xx_HAL_Driver/Inc/stm32f2xx_ll_rcc.h ****   *         @arg @ref LL_RCC_PLLM_DIV_30
 547:Drivers/STM32F2xx_HAL_Driver/Inc/stm32f2xx_ll_rcc.h ****   *         @arg @ref LL_RCC_PLLM_DIV_31
 548:Drivers/STM32F2xx_HAL_Driver/Inc/stm32f2xx_ll_rcc.h ****   *         @arg @ref LL_RCC_PLLM_DIV_32
 549:Drivers/STM32F2xx_HAL_Driver/Inc/stm32f2xx_ll_rcc.h ****   *         @arg @ref LL_RCC_PLLM_DIV_33
 550:Drivers/STM32F2xx_HAL_Driver/Inc/stm32f2xx_ll_rcc.h ****   *         @arg @ref LL_RCC_PLLM_DIV_34
 551:Drivers/STM32F2xx_HAL_Driver/Inc/stm32f2xx_ll_rcc.h ****   *         @arg @ref LL_RCC_PLLM_DIV_35
 552:Drivers/STM32F2xx_HAL_Driver/Inc/stm32f2xx_ll_rcc.h ****   *         @arg @ref LL_RCC_PLLM_DIV_36
 553:Drivers/STM32F2xx_HAL_Driver/Inc/stm32f2xx_ll_rcc.h ****   *         @arg @ref LL_RCC_PLLM_DIV_37
 554:Drivers/STM32F2xx_HAL_Driver/Inc/stm32f2xx_ll_rcc.h ****   *         @arg @ref LL_RCC_PLLM_DIV_38
 555:Drivers/STM32F2xx_HAL_Driver/Inc/stm32f2xx_ll_rcc.h ****   *         @arg @ref LL_RCC_PLLM_DIV_39
 556:Drivers/STM32F2xx_HAL_Driver/Inc/stm32f2xx_ll_rcc.h ****   *         @arg @ref LL_RCC_PLLM_DIV_40
 557:Drivers/STM32F2xx_HAL_Driver/Inc/stm32f2xx_ll_rcc.h ****   *         @arg @ref LL_RCC_PLLM_DIV_41
 558:Drivers/STM32F2xx_HAL_Driver/Inc/stm32f2xx_ll_rcc.h ****   *         @arg @ref LL_RCC_PLLM_DIV_42
 559:Drivers/STM32F2xx_HAL_Driver/Inc/stm32f2xx_ll_rcc.h ****   *         @arg @ref LL_RCC_PLLM_DIV_43
 560:Drivers/STM32F2xx_HAL_Driver/Inc/stm32f2xx_ll_rcc.h ****   *         @arg @ref LL_RCC_PLLM_DIV_44
 561:Drivers/STM32F2xx_HAL_Driver/Inc/stm32f2xx_ll_rcc.h ****   *         @arg @ref LL_RCC_PLLM_DIV_45
 562:Drivers/STM32F2xx_HAL_Driver/Inc/stm32f2xx_ll_rcc.h ****   *         @arg @ref LL_RCC_PLLM_DIV_46
 563:Drivers/STM32F2xx_HAL_Driver/Inc/stm32f2xx_ll_rcc.h ****   *         @arg @ref LL_RCC_PLLM_DIV_47
 564:Drivers/STM32F2xx_HAL_Driver/Inc/stm32f2xx_ll_rcc.h ****   *         @arg @ref LL_RCC_PLLM_DIV_48
 565:Drivers/STM32F2xx_HAL_Driver/Inc/stm32f2xx_ll_rcc.h ****   *         @arg @ref LL_RCC_PLLM_DIV_49
 566:Drivers/STM32F2xx_HAL_Driver/Inc/stm32f2xx_ll_rcc.h ****   *         @arg @ref LL_RCC_PLLM_DIV_50
 567:Drivers/STM32F2xx_HAL_Driver/Inc/stm32f2xx_ll_rcc.h ****   *         @arg @ref LL_RCC_PLLM_DIV_51
 568:Drivers/STM32F2xx_HAL_Driver/Inc/stm32f2xx_ll_rcc.h ****   *         @arg @ref LL_RCC_PLLM_DIV_52
 569:Drivers/STM32F2xx_HAL_Driver/Inc/stm32f2xx_ll_rcc.h ****   *         @arg @ref LL_RCC_PLLM_DIV_53
 570:Drivers/STM32F2xx_HAL_Driver/Inc/stm32f2xx_ll_rcc.h ****   *         @arg @ref LL_RCC_PLLM_DIV_54
 571:Drivers/STM32F2xx_HAL_Driver/Inc/stm32f2xx_ll_rcc.h ****   *         @arg @ref LL_RCC_PLLM_DIV_55
 572:Drivers/STM32F2xx_HAL_Driver/Inc/stm32f2xx_ll_rcc.h ****   *         @arg @ref LL_RCC_PLLM_DIV_56
 573:Drivers/STM32F2xx_HAL_Driver/Inc/stm32f2xx_ll_rcc.h ****   *         @arg @ref LL_RCC_PLLM_DIV_57
 574:Drivers/STM32F2xx_HAL_Driver/Inc/stm32f2xx_ll_rcc.h ****   *         @arg @ref LL_RCC_PLLM_DIV_58
 575:Drivers/STM32F2xx_HAL_Driver/Inc/stm32f2xx_ll_rcc.h ****   *         @arg @ref LL_RCC_PLLM_DIV_59
 576:Drivers/STM32F2xx_HAL_Driver/Inc/stm32f2xx_ll_rcc.h ****   *         @arg @ref LL_RCC_PLLM_DIV_60
 577:Drivers/STM32F2xx_HAL_Driver/Inc/stm32f2xx_ll_rcc.h ****   *         @arg @ref LL_RCC_PLLM_DIV_61
 578:Drivers/STM32F2xx_HAL_Driver/Inc/stm32f2xx_ll_rcc.h ****   *         @arg @ref LL_RCC_PLLM_DIV_62
 579:Drivers/STM32F2xx_HAL_Driver/Inc/stm32f2xx_ll_rcc.h ****   *         @arg @ref LL_RCC_PLLM_DIV_63
 580:Drivers/STM32F2xx_HAL_Driver/Inc/stm32f2xx_ll_rcc.h ****   * @param  __PLLN__ Between 192 and 432
 581:Drivers/STM32F2xx_HAL_Driver/Inc/stm32f2xx_ll_rcc.h ****   * @param  __PLLP__ This parameter can be one of the following values:
 582:Drivers/STM32F2xx_HAL_Driver/Inc/stm32f2xx_ll_rcc.h ****   *         @arg @ref LL_RCC_PLLP_DIV_2
 583:Drivers/STM32F2xx_HAL_Driver/Inc/stm32f2xx_ll_rcc.h ****   *         @arg @ref LL_RCC_PLLP_DIV_4
 584:Drivers/STM32F2xx_HAL_Driver/Inc/stm32f2xx_ll_rcc.h ****   *         @arg @ref LL_RCC_PLLP_DIV_6
ARM GAS  C:\Users\Artem\AppData\Local\Temp\cc8fbasp.s 			page 37


 585:Drivers/STM32F2xx_HAL_Driver/Inc/stm32f2xx_ll_rcc.h ****   *         @arg @ref LL_RCC_PLLP_DIV_8
 586:Drivers/STM32F2xx_HAL_Driver/Inc/stm32f2xx_ll_rcc.h ****   * @retval PLL clock frequency (in Hz)
 587:Drivers/STM32F2xx_HAL_Driver/Inc/stm32f2xx_ll_rcc.h ****   */
 588:Drivers/STM32F2xx_HAL_Driver/Inc/stm32f2xx_ll_rcc.h **** #define __LL_RCC_CALC_PLLCLK_FREQ(__INPUTFREQ__, __PLLM__, __PLLN__, __PLLP__) ((__INPUTFREQ__) / (
 589:Drivers/STM32F2xx_HAL_Driver/Inc/stm32f2xx_ll_rcc.h ****                    ((((__PLLP__) >> RCC_PLLCFGR_PLLP_Pos ) + 1U) * 2U))
 590:Drivers/STM32F2xx_HAL_Driver/Inc/stm32f2xx_ll_rcc.h **** 
 591:Drivers/STM32F2xx_HAL_Driver/Inc/stm32f2xx_ll_rcc.h **** /**
 592:Drivers/STM32F2xx_HAL_Driver/Inc/stm32f2xx_ll_rcc.h ****   * @brief  Helper macro to calculate the PLLCLK frequency used on 48M domain
 593:Drivers/STM32F2xx_HAL_Driver/Inc/stm32f2xx_ll_rcc.h ****   * @note ex: @ref __LL_RCC_CALC_PLLCLK_48M_FREQ (HSE_VALUE,@ref LL_RCC_PLL_GetDivider (),
 594:Drivers/STM32F2xx_HAL_Driver/Inc/stm32f2xx_ll_rcc.h ****   *             @ref LL_RCC_PLL_GetN (), @ref LL_RCC_PLL_GetQ ());
 595:Drivers/STM32F2xx_HAL_Driver/Inc/stm32f2xx_ll_rcc.h ****   * @param  __INPUTFREQ__ PLL Input frequency (based on HSE/HSI)
 596:Drivers/STM32F2xx_HAL_Driver/Inc/stm32f2xx_ll_rcc.h ****   * @param  __PLLM__ This parameter can be one of the following values:
 597:Drivers/STM32F2xx_HAL_Driver/Inc/stm32f2xx_ll_rcc.h ****   *         @arg @ref LL_RCC_PLLM_DIV_2
 598:Drivers/STM32F2xx_HAL_Driver/Inc/stm32f2xx_ll_rcc.h ****   *         @arg @ref LL_RCC_PLLM_DIV_3
 599:Drivers/STM32F2xx_HAL_Driver/Inc/stm32f2xx_ll_rcc.h ****   *         @arg @ref LL_RCC_PLLM_DIV_4
 600:Drivers/STM32F2xx_HAL_Driver/Inc/stm32f2xx_ll_rcc.h ****   *         @arg @ref LL_RCC_PLLM_DIV_5
 601:Drivers/STM32F2xx_HAL_Driver/Inc/stm32f2xx_ll_rcc.h ****   *         @arg @ref LL_RCC_PLLM_DIV_6
 602:Drivers/STM32F2xx_HAL_Driver/Inc/stm32f2xx_ll_rcc.h ****   *         @arg @ref LL_RCC_PLLM_DIV_7
 603:Drivers/STM32F2xx_HAL_Driver/Inc/stm32f2xx_ll_rcc.h ****   *         @arg @ref LL_RCC_PLLM_DIV_8
 604:Drivers/STM32F2xx_HAL_Driver/Inc/stm32f2xx_ll_rcc.h ****   *         @arg @ref LL_RCC_PLLM_DIV_9
 605:Drivers/STM32F2xx_HAL_Driver/Inc/stm32f2xx_ll_rcc.h ****   *         @arg @ref LL_RCC_PLLM_DIV_10
 606:Drivers/STM32F2xx_HAL_Driver/Inc/stm32f2xx_ll_rcc.h ****   *         @arg @ref LL_RCC_PLLM_DIV_11
 607:Drivers/STM32F2xx_HAL_Driver/Inc/stm32f2xx_ll_rcc.h ****   *         @arg @ref LL_RCC_PLLM_DIV_12
 608:Drivers/STM32F2xx_HAL_Driver/Inc/stm32f2xx_ll_rcc.h ****   *         @arg @ref LL_RCC_PLLM_DIV_13
 609:Drivers/STM32F2xx_HAL_Driver/Inc/stm32f2xx_ll_rcc.h ****   *         @arg @ref LL_RCC_PLLM_DIV_14
 610:Drivers/STM32F2xx_HAL_Driver/Inc/stm32f2xx_ll_rcc.h ****   *         @arg @ref LL_RCC_PLLM_DIV_15
 611:Drivers/STM32F2xx_HAL_Driver/Inc/stm32f2xx_ll_rcc.h ****   *         @arg @ref LL_RCC_PLLM_DIV_16
 612:Drivers/STM32F2xx_HAL_Driver/Inc/stm32f2xx_ll_rcc.h ****   *         @arg @ref LL_RCC_PLLM_DIV_17
 613:Drivers/STM32F2xx_HAL_Driver/Inc/stm32f2xx_ll_rcc.h ****   *         @arg @ref LL_RCC_PLLM_DIV_18
 614:Drivers/STM32F2xx_HAL_Driver/Inc/stm32f2xx_ll_rcc.h ****   *         @arg @ref LL_RCC_PLLM_DIV_19
 615:Drivers/STM32F2xx_HAL_Driver/Inc/stm32f2xx_ll_rcc.h ****   *         @arg @ref LL_RCC_PLLM_DIV_20
 616:Drivers/STM32F2xx_HAL_Driver/Inc/stm32f2xx_ll_rcc.h ****   *         @arg @ref LL_RCC_PLLM_DIV_21
 617:Drivers/STM32F2xx_HAL_Driver/Inc/stm32f2xx_ll_rcc.h ****   *         @arg @ref LL_RCC_PLLM_DIV_22
 618:Drivers/STM32F2xx_HAL_Driver/Inc/stm32f2xx_ll_rcc.h ****   *         @arg @ref LL_RCC_PLLM_DIV_23
 619:Drivers/STM32F2xx_HAL_Driver/Inc/stm32f2xx_ll_rcc.h ****   *         @arg @ref LL_RCC_PLLM_DIV_24
 620:Drivers/STM32F2xx_HAL_Driver/Inc/stm32f2xx_ll_rcc.h ****   *         @arg @ref LL_RCC_PLLM_DIV_25
 621:Drivers/STM32F2xx_HAL_Driver/Inc/stm32f2xx_ll_rcc.h ****   *         @arg @ref LL_RCC_PLLM_DIV_26
 622:Drivers/STM32F2xx_HAL_Driver/Inc/stm32f2xx_ll_rcc.h ****   *         @arg @ref LL_RCC_PLLM_DIV_27
 623:Drivers/STM32F2xx_HAL_Driver/Inc/stm32f2xx_ll_rcc.h ****   *         @arg @ref LL_RCC_PLLM_DIV_28
 624:Drivers/STM32F2xx_HAL_Driver/Inc/stm32f2xx_ll_rcc.h ****   *         @arg @ref LL_RCC_PLLM_DIV_29
 625:Drivers/STM32F2xx_HAL_Driver/Inc/stm32f2xx_ll_rcc.h ****   *         @arg @ref LL_RCC_PLLM_DIV_30
 626:Drivers/STM32F2xx_HAL_Driver/Inc/stm32f2xx_ll_rcc.h ****   *         @arg @ref LL_RCC_PLLM_DIV_31
 627:Drivers/STM32F2xx_HAL_Driver/Inc/stm32f2xx_ll_rcc.h ****   *         @arg @ref LL_RCC_PLLM_DIV_32
 628:Drivers/STM32F2xx_HAL_Driver/Inc/stm32f2xx_ll_rcc.h ****   *         @arg @ref LL_RCC_PLLM_DIV_33
 629:Drivers/STM32F2xx_HAL_Driver/Inc/stm32f2xx_ll_rcc.h ****   *         @arg @ref LL_RCC_PLLM_DIV_34
 630:Drivers/STM32F2xx_HAL_Driver/Inc/stm32f2xx_ll_rcc.h ****   *         @arg @ref LL_RCC_PLLM_DIV_35
 631:Drivers/STM32F2xx_HAL_Driver/Inc/stm32f2xx_ll_rcc.h ****   *         @arg @ref LL_RCC_PLLM_DIV_36
 632:Drivers/STM32F2xx_HAL_Driver/Inc/stm32f2xx_ll_rcc.h ****   *         @arg @ref LL_RCC_PLLM_DIV_37
 633:Drivers/STM32F2xx_HAL_Driver/Inc/stm32f2xx_ll_rcc.h ****   *         @arg @ref LL_RCC_PLLM_DIV_38
 634:Drivers/STM32F2xx_HAL_Driver/Inc/stm32f2xx_ll_rcc.h ****   *         @arg @ref LL_RCC_PLLM_DIV_39
 635:Drivers/STM32F2xx_HAL_Driver/Inc/stm32f2xx_ll_rcc.h ****   *         @arg @ref LL_RCC_PLLM_DIV_40
 636:Drivers/STM32F2xx_HAL_Driver/Inc/stm32f2xx_ll_rcc.h ****   *         @arg @ref LL_RCC_PLLM_DIV_41
 637:Drivers/STM32F2xx_HAL_Driver/Inc/stm32f2xx_ll_rcc.h ****   *         @arg @ref LL_RCC_PLLM_DIV_42
 638:Drivers/STM32F2xx_HAL_Driver/Inc/stm32f2xx_ll_rcc.h ****   *         @arg @ref LL_RCC_PLLM_DIV_43
 639:Drivers/STM32F2xx_HAL_Driver/Inc/stm32f2xx_ll_rcc.h ****   *         @arg @ref LL_RCC_PLLM_DIV_44
 640:Drivers/STM32F2xx_HAL_Driver/Inc/stm32f2xx_ll_rcc.h ****   *         @arg @ref LL_RCC_PLLM_DIV_45
 641:Drivers/STM32F2xx_HAL_Driver/Inc/stm32f2xx_ll_rcc.h ****   *         @arg @ref LL_RCC_PLLM_DIV_46
ARM GAS  C:\Users\Artem\AppData\Local\Temp\cc8fbasp.s 			page 38


 642:Drivers/STM32F2xx_HAL_Driver/Inc/stm32f2xx_ll_rcc.h ****   *         @arg @ref LL_RCC_PLLM_DIV_47
 643:Drivers/STM32F2xx_HAL_Driver/Inc/stm32f2xx_ll_rcc.h ****   *         @arg @ref LL_RCC_PLLM_DIV_48
 644:Drivers/STM32F2xx_HAL_Driver/Inc/stm32f2xx_ll_rcc.h ****   *         @arg @ref LL_RCC_PLLM_DIV_49
 645:Drivers/STM32F2xx_HAL_Driver/Inc/stm32f2xx_ll_rcc.h ****   *         @arg @ref LL_RCC_PLLM_DIV_50
 646:Drivers/STM32F2xx_HAL_Driver/Inc/stm32f2xx_ll_rcc.h ****   *         @arg @ref LL_RCC_PLLM_DIV_51
 647:Drivers/STM32F2xx_HAL_Driver/Inc/stm32f2xx_ll_rcc.h ****   *         @arg @ref LL_RCC_PLLM_DIV_52
 648:Drivers/STM32F2xx_HAL_Driver/Inc/stm32f2xx_ll_rcc.h ****   *         @arg @ref LL_RCC_PLLM_DIV_53
 649:Drivers/STM32F2xx_HAL_Driver/Inc/stm32f2xx_ll_rcc.h ****   *         @arg @ref LL_RCC_PLLM_DIV_54
 650:Drivers/STM32F2xx_HAL_Driver/Inc/stm32f2xx_ll_rcc.h ****   *         @arg @ref LL_RCC_PLLM_DIV_55
 651:Drivers/STM32F2xx_HAL_Driver/Inc/stm32f2xx_ll_rcc.h ****   *         @arg @ref LL_RCC_PLLM_DIV_56
 652:Drivers/STM32F2xx_HAL_Driver/Inc/stm32f2xx_ll_rcc.h ****   *         @arg @ref LL_RCC_PLLM_DIV_57
 653:Drivers/STM32F2xx_HAL_Driver/Inc/stm32f2xx_ll_rcc.h ****   *         @arg @ref LL_RCC_PLLM_DIV_58
 654:Drivers/STM32F2xx_HAL_Driver/Inc/stm32f2xx_ll_rcc.h ****   *         @arg @ref LL_RCC_PLLM_DIV_59
 655:Drivers/STM32F2xx_HAL_Driver/Inc/stm32f2xx_ll_rcc.h ****   *         @arg @ref LL_RCC_PLLM_DIV_60
 656:Drivers/STM32F2xx_HAL_Driver/Inc/stm32f2xx_ll_rcc.h ****   *         @arg @ref LL_RCC_PLLM_DIV_61
 657:Drivers/STM32F2xx_HAL_Driver/Inc/stm32f2xx_ll_rcc.h ****   *         @arg @ref LL_RCC_PLLM_DIV_62
 658:Drivers/STM32F2xx_HAL_Driver/Inc/stm32f2xx_ll_rcc.h ****   *         @arg @ref LL_RCC_PLLM_DIV_63
 659:Drivers/STM32F2xx_HAL_Driver/Inc/stm32f2xx_ll_rcc.h ****   * @param  __PLLN__ Between 192 and 432
 660:Drivers/STM32F2xx_HAL_Driver/Inc/stm32f2xx_ll_rcc.h ****   * @param  __PLLQ__ This parameter can be one of the following values:
 661:Drivers/STM32F2xx_HAL_Driver/Inc/stm32f2xx_ll_rcc.h ****   *         @arg @ref LL_RCC_PLLQ_DIV_2
 662:Drivers/STM32F2xx_HAL_Driver/Inc/stm32f2xx_ll_rcc.h ****   *         @arg @ref LL_RCC_PLLQ_DIV_3
 663:Drivers/STM32F2xx_HAL_Driver/Inc/stm32f2xx_ll_rcc.h ****   *         @arg @ref LL_RCC_PLLQ_DIV_4
 664:Drivers/STM32F2xx_HAL_Driver/Inc/stm32f2xx_ll_rcc.h ****   *         @arg @ref LL_RCC_PLLQ_DIV_5
 665:Drivers/STM32F2xx_HAL_Driver/Inc/stm32f2xx_ll_rcc.h ****   *         @arg @ref LL_RCC_PLLQ_DIV_6
 666:Drivers/STM32F2xx_HAL_Driver/Inc/stm32f2xx_ll_rcc.h ****   *         @arg @ref LL_RCC_PLLQ_DIV_7
 667:Drivers/STM32F2xx_HAL_Driver/Inc/stm32f2xx_ll_rcc.h ****   *         @arg @ref LL_RCC_PLLQ_DIV_8
 668:Drivers/STM32F2xx_HAL_Driver/Inc/stm32f2xx_ll_rcc.h ****   *         @arg @ref LL_RCC_PLLQ_DIV_9
 669:Drivers/STM32F2xx_HAL_Driver/Inc/stm32f2xx_ll_rcc.h ****   *         @arg @ref LL_RCC_PLLQ_DIV_10
 670:Drivers/STM32F2xx_HAL_Driver/Inc/stm32f2xx_ll_rcc.h ****   *         @arg @ref LL_RCC_PLLQ_DIV_11
 671:Drivers/STM32F2xx_HAL_Driver/Inc/stm32f2xx_ll_rcc.h ****   *         @arg @ref LL_RCC_PLLQ_DIV_12
 672:Drivers/STM32F2xx_HAL_Driver/Inc/stm32f2xx_ll_rcc.h ****   *         @arg @ref LL_RCC_PLLQ_DIV_13
 673:Drivers/STM32F2xx_HAL_Driver/Inc/stm32f2xx_ll_rcc.h ****   *         @arg @ref LL_RCC_PLLQ_DIV_14
 674:Drivers/STM32F2xx_HAL_Driver/Inc/stm32f2xx_ll_rcc.h ****   *         @arg @ref LL_RCC_PLLQ_DIV_15
 675:Drivers/STM32F2xx_HAL_Driver/Inc/stm32f2xx_ll_rcc.h ****   * @retval PLL clock frequency (in Hz)
 676:Drivers/STM32F2xx_HAL_Driver/Inc/stm32f2xx_ll_rcc.h ****   */
 677:Drivers/STM32F2xx_HAL_Driver/Inc/stm32f2xx_ll_rcc.h **** #define __LL_RCC_CALC_PLLCLK_48M_FREQ(__INPUTFREQ__, __PLLM__, __PLLN__, __PLLQ__) ((__INPUTFREQ__)
 678:Drivers/STM32F2xx_HAL_Driver/Inc/stm32f2xx_ll_rcc.h ****                    ((__PLLQ__) >> RCC_PLLCFGR_PLLQ_Pos ))
 679:Drivers/STM32F2xx_HAL_Driver/Inc/stm32f2xx_ll_rcc.h **** 
 680:Drivers/STM32F2xx_HAL_Driver/Inc/stm32f2xx_ll_rcc.h **** /**
 681:Drivers/STM32F2xx_HAL_Driver/Inc/stm32f2xx_ll_rcc.h ****   * @retval PLLI2S clock frequency (in Hz)
 682:Drivers/STM32F2xx_HAL_Driver/Inc/stm32f2xx_ll_rcc.h ****   */
 683:Drivers/STM32F2xx_HAL_Driver/Inc/stm32f2xx_ll_rcc.h **** 
 684:Drivers/STM32F2xx_HAL_Driver/Inc/stm32f2xx_ll_rcc.h **** /**
 685:Drivers/STM32F2xx_HAL_Driver/Inc/stm32f2xx_ll_rcc.h ****   * @brief  Helper macro to calculate the PLLI2S frequency used for I2S domain
 686:Drivers/STM32F2xx_HAL_Driver/Inc/stm32f2xx_ll_rcc.h ****   * @note ex: @ref __LL_RCC_CALC_PLLI2S_I2S_FREQ (HSE_VALUE,@ref LL_RCC_PLL_GetDivider (),
 687:Drivers/STM32F2xx_HAL_Driver/Inc/stm32f2xx_ll_rcc.h ****   *             @ref LL_RCC_PLLI2S_GetN (), @ref LL_RCC_PLLI2S_GetR ());
 688:Drivers/STM32F2xx_HAL_Driver/Inc/stm32f2xx_ll_rcc.h ****   * @param  __INPUTFREQ__ PLL Input frequency (based on HSE/HSI)
 689:Drivers/STM32F2xx_HAL_Driver/Inc/stm32f2xx_ll_rcc.h ****   * @param  __PLLM__ This parameter can be one of the following values:
 690:Drivers/STM32F2xx_HAL_Driver/Inc/stm32f2xx_ll_rcc.h ****   * @param  __PLLI2SN__ Between 192 and 432
 691:Drivers/STM32F2xx_HAL_Driver/Inc/stm32f2xx_ll_rcc.h ****   * @param  __PLLI2SR__ This parameter can be one of the following values:
 692:Drivers/STM32F2xx_HAL_Driver/Inc/stm32f2xx_ll_rcc.h ****   *         @arg @ref LL_RCC_PLLI2SR_DIV_2
 693:Drivers/STM32F2xx_HAL_Driver/Inc/stm32f2xx_ll_rcc.h ****   *         @arg @ref LL_RCC_PLLI2SR_DIV_3
 694:Drivers/STM32F2xx_HAL_Driver/Inc/stm32f2xx_ll_rcc.h ****   *         @arg @ref LL_RCC_PLLI2SR_DIV_4
 695:Drivers/STM32F2xx_HAL_Driver/Inc/stm32f2xx_ll_rcc.h ****   *         @arg @ref LL_RCC_PLLI2SR_DIV_5
 696:Drivers/STM32F2xx_HAL_Driver/Inc/stm32f2xx_ll_rcc.h ****   *         @arg @ref LL_RCC_PLLI2SR_DIV_6
 697:Drivers/STM32F2xx_HAL_Driver/Inc/stm32f2xx_ll_rcc.h ****   *         @arg @ref LL_RCC_PLLI2SR_DIV_7
 698:Drivers/STM32F2xx_HAL_Driver/Inc/stm32f2xx_ll_rcc.h ****   * @retval PLLI2S clock frequency (in Hz)
ARM GAS  C:\Users\Artem\AppData\Local\Temp\cc8fbasp.s 			page 39


 699:Drivers/STM32F2xx_HAL_Driver/Inc/stm32f2xx_ll_rcc.h ****   */
 700:Drivers/STM32F2xx_HAL_Driver/Inc/stm32f2xx_ll_rcc.h **** #define __LL_RCC_CALC_PLLI2S_I2S_FREQ(__INPUTFREQ__, __PLLM__, __PLLI2SN__, __PLLI2SR__) (((__INPUT
 701:Drivers/STM32F2xx_HAL_Driver/Inc/stm32f2xx_ll_rcc.h ****                    ((__PLLI2SR__) >> RCC_PLLI2SCFGR_PLLI2SR_Pos))
 702:Drivers/STM32F2xx_HAL_Driver/Inc/stm32f2xx_ll_rcc.h **** 
 703:Drivers/STM32F2xx_HAL_Driver/Inc/stm32f2xx_ll_rcc.h **** /**
 704:Drivers/STM32F2xx_HAL_Driver/Inc/stm32f2xx_ll_rcc.h ****   * @brief  Helper macro to calculate the HCLK frequency
 705:Drivers/STM32F2xx_HAL_Driver/Inc/stm32f2xx_ll_rcc.h ****   * @param  __SYSCLKFREQ__ SYSCLK frequency (based on HSE/HSI/PLLCLK)
 706:Drivers/STM32F2xx_HAL_Driver/Inc/stm32f2xx_ll_rcc.h ****   * @param  __AHBPRESCALER__ This parameter can be one of the following values:
 707:Drivers/STM32F2xx_HAL_Driver/Inc/stm32f2xx_ll_rcc.h ****   *         @arg @ref LL_RCC_SYSCLK_DIV_1
 708:Drivers/STM32F2xx_HAL_Driver/Inc/stm32f2xx_ll_rcc.h ****   *         @arg @ref LL_RCC_SYSCLK_DIV_2
 709:Drivers/STM32F2xx_HAL_Driver/Inc/stm32f2xx_ll_rcc.h ****   *         @arg @ref LL_RCC_SYSCLK_DIV_4
 710:Drivers/STM32F2xx_HAL_Driver/Inc/stm32f2xx_ll_rcc.h ****   *         @arg @ref LL_RCC_SYSCLK_DIV_8
 711:Drivers/STM32F2xx_HAL_Driver/Inc/stm32f2xx_ll_rcc.h ****   *         @arg @ref LL_RCC_SYSCLK_DIV_16
 712:Drivers/STM32F2xx_HAL_Driver/Inc/stm32f2xx_ll_rcc.h ****   *         @arg @ref LL_RCC_SYSCLK_DIV_64
 713:Drivers/STM32F2xx_HAL_Driver/Inc/stm32f2xx_ll_rcc.h ****   *         @arg @ref LL_RCC_SYSCLK_DIV_128
 714:Drivers/STM32F2xx_HAL_Driver/Inc/stm32f2xx_ll_rcc.h ****   *         @arg @ref LL_RCC_SYSCLK_DIV_256
 715:Drivers/STM32F2xx_HAL_Driver/Inc/stm32f2xx_ll_rcc.h ****   *         @arg @ref LL_RCC_SYSCLK_DIV_512
 716:Drivers/STM32F2xx_HAL_Driver/Inc/stm32f2xx_ll_rcc.h ****   * @retval HCLK clock frequency (in Hz)
 717:Drivers/STM32F2xx_HAL_Driver/Inc/stm32f2xx_ll_rcc.h ****   */
 718:Drivers/STM32F2xx_HAL_Driver/Inc/stm32f2xx_ll_rcc.h **** #define __LL_RCC_CALC_HCLK_FREQ(__SYSCLKFREQ__, __AHBPRESCALER__) ((__SYSCLKFREQ__) >> AHBPrescTabl
 719:Drivers/STM32F2xx_HAL_Driver/Inc/stm32f2xx_ll_rcc.h **** 
 720:Drivers/STM32F2xx_HAL_Driver/Inc/stm32f2xx_ll_rcc.h **** /**
 721:Drivers/STM32F2xx_HAL_Driver/Inc/stm32f2xx_ll_rcc.h ****   * @brief  Helper macro to calculate the PCLK1 frequency (ABP1)
 722:Drivers/STM32F2xx_HAL_Driver/Inc/stm32f2xx_ll_rcc.h ****   * @param  __HCLKFREQ__ HCLK frequency
 723:Drivers/STM32F2xx_HAL_Driver/Inc/stm32f2xx_ll_rcc.h ****   * @param  __APB1PRESCALER__ This parameter can be one of the following values:
 724:Drivers/STM32F2xx_HAL_Driver/Inc/stm32f2xx_ll_rcc.h ****   *         @arg @ref LL_RCC_APB1_DIV_1
 725:Drivers/STM32F2xx_HAL_Driver/Inc/stm32f2xx_ll_rcc.h ****   *         @arg @ref LL_RCC_APB1_DIV_2
 726:Drivers/STM32F2xx_HAL_Driver/Inc/stm32f2xx_ll_rcc.h ****   *         @arg @ref LL_RCC_APB1_DIV_4
 727:Drivers/STM32F2xx_HAL_Driver/Inc/stm32f2xx_ll_rcc.h ****   *         @arg @ref LL_RCC_APB1_DIV_8
 728:Drivers/STM32F2xx_HAL_Driver/Inc/stm32f2xx_ll_rcc.h ****   *         @arg @ref LL_RCC_APB1_DIV_16
 729:Drivers/STM32F2xx_HAL_Driver/Inc/stm32f2xx_ll_rcc.h ****   * @retval PCLK1 clock frequency (in Hz)
 730:Drivers/STM32F2xx_HAL_Driver/Inc/stm32f2xx_ll_rcc.h ****   */
 731:Drivers/STM32F2xx_HAL_Driver/Inc/stm32f2xx_ll_rcc.h **** #define __LL_RCC_CALC_PCLK1_FREQ(__HCLKFREQ__, __APB1PRESCALER__) ((__HCLKFREQ__) >> APBPrescTable[
 732:Drivers/STM32F2xx_HAL_Driver/Inc/stm32f2xx_ll_rcc.h **** 
 733:Drivers/STM32F2xx_HAL_Driver/Inc/stm32f2xx_ll_rcc.h **** /**
 734:Drivers/STM32F2xx_HAL_Driver/Inc/stm32f2xx_ll_rcc.h ****   * @brief  Helper macro to calculate the PCLK2 frequency (ABP2)
 735:Drivers/STM32F2xx_HAL_Driver/Inc/stm32f2xx_ll_rcc.h ****   * @param  __HCLKFREQ__ HCLK frequency
 736:Drivers/STM32F2xx_HAL_Driver/Inc/stm32f2xx_ll_rcc.h ****   * @param  __APB2PRESCALER__ This parameter can be one of the following values:
 737:Drivers/STM32F2xx_HAL_Driver/Inc/stm32f2xx_ll_rcc.h ****   *         @arg @ref LL_RCC_APB2_DIV_1
 738:Drivers/STM32F2xx_HAL_Driver/Inc/stm32f2xx_ll_rcc.h ****   *         @arg @ref LL_RCC_APB2_DIV_2
 739:Drivers/STM32F2xx_HAL_Driver/Inc/stm32f2xx_ll_rcc.h ****   *         @arg @ref LL_RCC_APB2_DIV_4
 740:Drivers/STM32F2xx_HAL_Driver/Inc/stm32f2xx_ll_rcc.h ****   *         @arg @ref LL_RCC_APB2_DIV_8
 741:Drivers/STM32F2xx_HAL_Driver/Inc/stm32f2xx_ll_rcc.h ****   *         @arg @ref LL_RCC_APB2_DIV_16
 742:Drivers/STM32F2xx_HAL_Driver/Inc/stm32f2xx_ll_rcc.h ****   * @retval PCLK2 clock frequency (in Hz)
 743:Drivers/STM32F2xx_HAL_Driver/Inc/stm32f2xx_ll_rcc.h ****   */
 744:Drivers/STM32F2xx_HAL_Driver/Inc/stm32f2xx_ll_rcc.h **** #define __LL_RCC_CALC_PCLK2_FREQ(__HCLKFREQ__, __APB2PRESCALER__) ((__HCLKFREQ__) >> APBPrescTable[
 745:Drivers/STM32F2xx_HAL_Driver/Inc/stm32f2xx_ll_rcc.h **** 
 746:Drivers/STM32F2xx_HAL_Driver/Inc/stm32f2xx_ll_rcc.h **** /**
 747:Drivers/STM32F2xx_HAL_Driver/Inc/stm32f2xx_ll_rcc.h ****   * @}
 748:Drivers/STM32F2xx_HAL_Driver/Inc/stm32f2xx_ll_rcc.h ****   */
 749:Drivers/STM32F2xx_HAL_Driver/Inc/stm32f2xx_ll_rcc.h **** 
 750:Drivers/STM32F2xx_HAL_Driver/Inc/stm32f2xx_ll_rcc.h **** /**
 751:Drivers/STM32F2xx_HAL_Driver/Inc/stm32f2xx_ll_rcc.h ****   * @}
 752:Drivers/STM32F2xx_HAL_Driver/Inc/stm32f2xx_ll_rcc.h ****   */
 753:Drivers/STM32F2xx_HAL_Driver/Inc/stm32f2xx_ll_rcc.h **** 
 754:Drivers/STM32F2xx_HAL_Driver/Inc/stm32f2xx_ll_rcc.h **** /* Exported functions --------------------------------------------------------*/
 755:Drivers/STM32F2xx_HAL_Driver/Inc/stm32f2xx_ll_rcc.h **** /** @defgroup RCC_LL_Exported_Functions RCC Exported Functions
ARM GAS  C:\Users\Artem\AppData\Local\Temp\cc8fbasp.s 			page 40


 756:Drivers/STM32F2xx_HAL_Driver/Inc/stm32f2xx_ll_rcc.h ****   * @{
 757:Drivers/STM32F2xx_HAL_Driver/Inc/stm32f2xx_ll_rcc.h ****   */
 758:Drivers/STM32F2xx_HAL_Driver/Inc/stm32f2xx_ll_rcc.h **** 
 759:Drivers/STM32F2xx_HAL_Driver/Inc/stm32f2xx_ll_rcc.h **** /** @defgroup RCC_LL_EF_HSE HSE
 760:Drivers/STM32F2xx_HAL_Driver/Inc/stm32f2xx_ll_rcc.h ****   * @{
 761:Drivers/STM32F2xx_HAL_Driver/Inc/stm32f2xx_ll_rcc.h ****   */
 762:Drivers/STM32F2xx_HAL_Driver/Inc/stm32f2xx_ll_rcc.h **** 
 763:Drivers/STM32F2xx_HAL_Driver/Inc/stm32f2xx_ll_rcc.h **** /**
 764:Drivers/STM32F2xx_HAL_Driver/Inc/stm32f2xx_ll_rcc.h ****   * @brief  Enable the Clock Security System.
 765:Drivers/STM32F2xx_HAL_Driver/Inc/stm32f2xx_ll_rcc.h ****   * @rmtoll CR           CSSON         LL_RCC_HSE_EnableCSS
 766:Drivers/STM32F2xx_HAL_Driver/Inc/stm32f2xx_ll_rcc.h ****   * @retval None
 767:Drivers/STM32F2xx_HAL_Driver/Inc/stm32f2xx_ll_rcc.h ****   */
 768:Drivers/STM32F2xx_HAL_Driver/Inc/stm32f2xx_ll_rcc.h **** __STATIC_INLINE void LL_RCC_HSE_EnableCSS(void)
 769:Drivers/STM32F2xx_HAL_Driver/Inc/stm32f2xx_ll_rcc.h **** {
 770:Drivers/STM32F2xx_HAL_Driver/Inc/stm32f2xx_ll_rcc.h ****   SET_BIT(RCC->CR, RCC_CR_CSSON);
 771:Drivers/STM32F2xx_HAL_Driver/Inc/stm32f2xx_ll_rcc.h **** }
 772:Drivers/STM32F2xx_HAL_Driver/Inc/stm32f2xx_ll_rcc.h **** 
 773:Drivers/STM32F2xx_HAL_Driver/Inc/stm32f2xx_ll_rcc.h **** /**
 774:Drivers/STM32F2xx_HAL_Driver/Inc/stm32f2xx_ll_rcc.h ****   * @brief  Enable HSE external oscillator (HSE Bypass)
 775:Drivers/STM32F2xx_HAL_Driver/Inc/stm32f2xx_ll_rcc.h ****   * @rmtoll CR           HSEBYP        LL_RCC_HSE_EnableBypass
 776:Drivers/STM32F2xx_HAL_Driver/Inc/stm32f2xx_ll_rcc.h ****   * @retval None
 777:Drivers/STM32F2xx_HAL_Driver/Inc/stm32f2xx_ll_rcc.h ****   */
 778:Drivers/STM32F2xx_HAL_Driver/Inc/stm32f2xx_ll_rcc.h **** __STATIC_INLINE void LL_RCC_HSE_EnableBypass(void)
 779:Drivers/STM32F2xx_HAL_Driver/Inc/stm32f2xx_ll_rcc.h **** {
 780:Drivers/STM32F2xx_HAL_Driver/Inc/stm32f2xx_ll_rcc.h ****   SET_BIT(RCC->CR, RCC_CR_HSEBYP);
 781:Drivers/STM32F2xx_HAL_Driver/Inc/stm32f2xx_ll_rcc.h **** }
 782:Drivers/STM32F2xx_HAL_Driver/Inc/stm32f2xx_ll_rcc.h **** 
 783:Drivers/STM32F2xx_HAL_Driver/Inc/stm32f2xx_ll_rcc.h **** /**
 784:Drivers/STM32F2xx_HAL_Driver/Inc/stm32f2xx_ll_rcc.h ****   * @brief  Disable HSE external oscillator (HSE Bypass)
 785:Drivers/STM32F2xx_HAL_Driver/Inc/stm32f2xx_ll_rcc.h ****   * @rmtoll CR           HSEBYP        LL_RCC_HSE_DisableBypass
 786:Drivers/STM32F2xx_HAL_Driver/Inc/stm32f2xx_ll_rcc.h ****   * @retval None
 787:Drivers/STM32F2xx_HAL_Driver/Inc/stm32f2xx_ll_rcc.h ****   */
 788:Drivers/STM32F2xx_HAL_Driver/Inc/stm32f2xx_ll_rcc.h **** __STATIC_INLINE void LL_RCC_HSE_DisableBypass(void)
 789:Drivers/STM32F2xx_HAL_Driver/Inc/stm32f2xx_ll_rcc.h **** {
 790:Drivers/STM32F2xx_HAL_Driver/Inc/stm32f2xx_ll_rcc.h ****   CLEAR_BIT(RCC->CR, RCC_CR_HSEBYP);
 791:Drivers/STM32F2xx_HAL_Driver/Inc/stm32f2xx_ll_rcc.h **** }
 792:Drivers/STM32F2xx_HAL_Driver/Inc/stm32f2xx_ll_rcc.h **** 
 793:Drivers/STM32F2xx_HAL_Driver/Inc/stm32f2xx_ll_rcc.h **** /**
 794:Drivers/STM32F2xx_HAL_Driver/Inc/stm32f2xx_ll_rcc.h ****   * @brief  Enable HSE crystal oscillator (HSE ON)
 795:Drivers/STM32F2xx_HAL_Driver/Inc/stm32f2xx_ll_rcc.h ****   * @rmtoll CR           HSEON         LL_RCC_HSE_Enable
 796:Drivers/STM32F2xx_HAL_Driver/Inc/stm32f2xx_ll_rcc.h ****   * @retval None
 797:Drivers/STM32F2xx_HAL_Driver/Inc/stm32f2xx_ll_rcc.h ****   */
 798:Drivers/STM32F2xx_HAL_Driver/Inc/stm32f2xx_ll_rcc.h **** __STATIC_INLINE void LL_RCC_HSE_Enable(void)
 189              		.loc 5 798 22 view .LVU40
 190              	.LBB45:
 799:Drivers/STM32F2xx_HAL_Driver/Inc/stm32f2xx_ll_rcc.h **** {
 800:Drivers/STM32F2xx_HAL_Driver/Inc/stm32f2xx_ll_rcc.h ****   SET_BIT(RCC->CR, RCC_CR_HSEON);
 191              		.loc 5 800 3 view .LVU41
 192 001c 244A     		ldr	r2, .L15+4
 193 001e 1368     		ldr	r3, [r2]
 194 0020 43F48033 		orr	r3, r3, #65536
 195 0024 1360     		str	r3, [r2]
 196              	.L9:
 197              	.LBE45:
 198              	.LBE44:
 120:Core/Src/main.c ****   LL_RCC_PLL_ConfigDomain_SYS(LL_RCC_PLLSOURCE_HSE, LL_RCC_PLLM_DIV_20, 192, LL_RCC_PLLP_DIV_2);
 199              		.loc 1 120 3 discriminator 1 view .LVU42
ARM GAS  C:\Users\Artem\AppData\Local\Temp\cc8fbasp.s 			page 41


 117:Core/Src/main.c ****   {
 200              		.loc 1 117 8 discriminator 1 view .LVU43
 201              	.LBB46:
 202              	.LBI46:
 801:Drivers/STM32F2xx_HAL_Driver/Inc/stm32f2xx_ll_rcc.h **** }
 802:Drivers/STM32F2xx_HAL_Driver/Inc/stm32f2xx_ll_rcc.h **** 
 803:Drivers/STM32F2xx_HAL_Driver/Inc/stm32f2xx_ll_rcc.h **** /**
 804:Drivers/STM32F2xx_HAL_Driver/Inc/stm32f2xx_ll_rcc.h ****   * @brief  Disable HSE crystal oscillator (HSE ON)
 805:Drivers/STM32F2xx_HAL_Driver/Inc/stm32f2xx_ll_rcc.h ****   * @rmtoll CR           HSEON         LL_RCC_HSE_Disable
 806:Drivers/STM32F2xx_HAL_Driver/Inc/stm32f2xx_ll_rcc.h ****   * @retval None
 807:Drivers/STM32F2xx_HAL_Driver/Inc/stm32f2xx_ll_rcc.h ****   */
 808:Drivers/STM32F2xx_HAL_Driver/Inc/stm32f2xx_ll_rcc.h **** __STATIC_INLINE void LL_RCC_HSE_Disable(void)
 809:Drivers/STM32F2xx_HAL_Driver/Inc/stm32f2xx_ll_rcc.h **** {
 810:Drivers/STM32F2xx_HAL_Driver/Inc/stm32f2xx_ll_rcc.h ****   CLEAR_BIT(RCC->CR, RCC_CR_HSEON);
 811:Drivers/STM32F2xx_HAL_Driver/Inc/stm32f2xx_ll_rcc.h **** }
 812:Drivers/STM32F2xx_HAL_Driver/Inc/stm32f2xx_ll_rcc.h **** 
 813:Drivers/STM32F2xx_HAL_Driver/Inc/stm32f2xx_ll_rcc.h **** /**
 814:Drivers/STM32F2xx_HAL_Driver/Inc/stm32f2xx_ll_rcc.h ****   * @brief  Check if HSE oscillator Ready
 815:Drivers/STM32F2xx_HAL_Driver/Inc/stm32f2xx_ll_rcc.h ****   * @rmtoll CR           HSERDY        LL_RCC_HSE_IsReady
 816:Drivers/STM32F2xx_HAL_Driver/Inc/stm32f2xx_ll_rcc.h ****   * @retval State of bit (1 or 0).
 817:Drivers/STM32F2xx_HAL_Driver/Inc/stm32f2xx_ll_rcc.h ****   */
 818:Drivers/STM32F2xx_HAL_Driver/Inc/stm32f2xx_ll_rcc.h **** __STATIC_INLINE uint32_t LL_RCC_HSE_IsReady(void)
 203              		.loc 5 818 26 discriminator 1 view .LVU44
 204              	.LBB47:
 819:Drivers/STM32F2xx_HAL_Driver/Inc/stm32f2xx_ll_rcc.h **** {
 820:Drivers/STM32F2xx_HAL_Driver/Inc/stm32f2xx_ll_rcc.h ****   return (READ_BIT(RCC->CR, RCC_CR_HSERDY) == (RCC_CR_HSERDY));
 205              		.loc 5 820 3 discriminator 1 view .LVU45
 206              		.loc 5 820 11 is_stmt 0 discriminator 1 view .LVU46
 207 0026 224B     		ldr	r3, .L15+4
 208 0028 1B68     		ldr	r3, [r3]
 209              	.LBE47:
 210              	.LBE46:
 117:Core/Src/main.c ****   {
 211              		.loc 1 117 8 discriminator 1 view .LVU47
 212 002a 13F4003F 		tst	r3, #131072
 213 002e FAD0     		beq	.L9
 121:Core/Src/main.c ****   LL_RCC_PLL_ConfigDomain_48M(LL_RCC_PLLSOURCE_HSE, LL_RCC_PLLM_DIV_20, 192, LL_RCC_PLLQ_DIV_5);
 214              		.loc 1 121 3 is_stmt 1 view .LVU48
 215              	.LVL5:
 216              	.LBB48:
 217              	.LBI48:
 821:Drivers/STM32F2xx_HAL_Driver/Inc/stm32f2xx_ll_rcc.h **** }
 822:Drivers/STM32F2xx_HAL_Driver/Inc/stm32f2xx_ll_rcc.h **** 
 823:Drivers/STM32F2xx_HAL_Driver/Inc/stm32f2xx_ll_rcc.h **** /**
 824:Drivers/STM32F2xx_HAL_Driver/Inc/stm32f2xx_ll_rcc.h ****   * @}
 825:Drivers/STM32F2xx_HAL_Driver/Inc/stm32f2xx_ll_rcc.h ****   */
 826:Drivers/STM32F2xx_HAL_Driver/Inc/stm32f2xx_ll_rcc.h **** 
 827:Drivers/STM32F2xx_HAL_Driver/Inc/stm32f2xx_ll_rcc.h **** /** @defgroup RCC_LL_EF_HSI HSI
 828:Drivers/STM32F2xx_HAL_Driver/Inc/stm32f2xx_ll_rcc.h ****   * @{
 829:Drivers/STM32F2xx_HAL_Driver/Inc/stm32f2xx_ll_rcc.h ****   */
 830:Drivers/STM32F2xx_HAL_Driver/Inc/stm32f2xx_ll_rcc.h **** 
 831:Drivers/STM32F2xx_HAL_Driver/Inc/stm32f2xx_ll_rcc.h **** /**
 832:Drivers/STM32F2xx_HAL_Driver/Inc/stm32f2xx_ll_rcc.h ****   * @brief  Enable HSI oscillator
 833:Drivers/STM32F2xx_HAL_Driver/Inc/stm32f2xx_ll_rcc.h ****   * @rmtoll CR           HSION         LL_RCC_HSI_Enable
 834:Drivers/STM32F2xx_HAL_Driver/Inc/stm32f2xx_ll_rcc.h ****   * @retval None
 835:Drivers/STM32F2xx_HAL_Driver/Inc/stm32f2xx_ll_rcc.h ****   */
 836:Drivers/STM32F2xx_HAL_Driver/Inc/stm32f2xx_ll_rcc.h **** __STATIC_INLINE void LL_RCC_HSI_Enable(void)
ARM GAS  C:\Users\Artem\AppData\Local\Temp\cc8fbasp.s 			page 42


 837:Drivers/STM32F2xx_HAL_Driver/Inc/stm32f2xx_ll_rcc.h **** {
 838:Drivers/STM32F2xx_HAL_Driver/Inc/stm32f2xx_ll_rcc.h ****   SET_BIT(RCC->CR, RCC_CR_HSION);
 839:Drivers/STM32F2xx_HAL_Driver/Inc/stm32f2xx_ll_rcc.h **** }
 840:Drivers/STM32F2xx_HAL_Driver/Inc/stm32f2xx_ll_rcc.h **** 
 841:Drivers/STM32F2xx_HAL_Driver/Inc/stm32f2xx_ll_rcc.h **** /**
 842:Drivers/STM32F2xx_HAL_Driver/Inc/stm32f2xx_ll_rcc.h ****   * @brief  Disable HSI oscillator
 843:Drivers/STM32F2xx_HAL_Driver/Inc/stm32f2xx_ll_rcc.h ****   * @rmtoll CR           HSION         LL_RCC_HSI_Disable
 844:Drivers/STM32F2xx_HAL_Driver/Inc/stm32f2xx_ll_rcc.h ****   * @retval None
 845:Drivers/STM32F2xx_HAL_Driver/Inc/stm32f2xx_ll_rcc.h ****   */
 846:Drivers/STM32F2xx_HAL_Driver/Inc/stm32f2xx_ll_rcc.h **** __STATIC_INLINE void LL_RCC_HSI_Disable(void)
 847:Drivers/STM32F2xx_HAL_Driver/Inc/stm32f2xx_ll_rcc.h **** {
 848:Drivers/STM32F2xx_HAL_Driver/Inc/stm32f2xx_ll_rcc.h ****   CLEAR_BIT(RCC->CR, RCC_CR_HSION);
 849:Drivers/STM32F2xx_HAL_Driver/Inc/stm32f2xx_ll_rcc.h **** }
 850:Drivers/STM32F2xx_HAL_Driver/Inc/stm32f2xx_ll_rcc.h **** 
 851:Drivers/STM32F2xx_HAL_Driver/Inc/stm32f2xx_ll_rcc.h **** /**
 852:Drivers/STM32F2xx_HAL_Driver/Inc/stm32f2xx_ll_rcc.h ****   * @brief  Check if HSI clock is ready
 853:Drivers/STM32F2xx_HAL_Driver/Inc/stm32f2xx_ll_rcc.h ****   * @rmtoll CR           HSIRDY        LL_RCC_HSI_IsReady
 854:Drivers/STM32F2xx_HAL_Driver/Inc/stm32f2xx_ll_rcc.h ****   * @retval State of bit (1 or 0).
 855:Drivers/STM32F2xx_HAL_Driver/Inc/stm32f2xx_ll_rcc.h ****   */
 856:Drivers/STM32F2xx_HAL_Driver/Inc/stm32f2xx_ll_rcc.h **** __STATIC_INLINE uint32_t LL_RCC_HSI_IsReady(void)
 857:Drivers/STM32F2xx_HAL_Driver/Inc/stm32f2xx_ll_rcc.h **** {
 858:Drivers/STM32F2xx_HAL_Driver/Inc/stm32f2xx_ll_rcc.h ****   return (READ_BIT(RCC->CR, RCC_CR_HSIRDY) == (RCC_CR_HSIRDY));
 859:Drivers/STM32F2xx_HAL_Driver/Inc/stm32f2xx_ll_rcc.h **** }
 860:Drivers/STM32F2xx_HAL_Driver/Inc/stm32f2xx_ll_rcc.h **** 
 861:Drivers/STM32F2xx_HAL_Driver/Inc/stm32f2xx_ll_rcc.h **** /**
 862:Drivers/STM32F2xx_HAL_Driver/Inc/stm32f2xx_ll_rcc.h ****   * @brief  Get HSI Calibration value
 863:Drivers/STM32F2xx_HAL_Driver/Inc/stm32f2xx_ll_rcc.h ****   * @note When HSITRIM is written, HSICAL is updated with the sum of
 864:Drivers/STM32F2xx_HAL_Driver/Inc/stm32f2xx_ll_rcc.h ****   *       HSITRIM and the factory trim value
 865:Drivers/STM32F2xx_HAL_Driver/Inc/stm32f2xx_ll_rcc.h ****   * @rmtoll CR        HSICAL        LL_RCC_HSI_GetCalibration
 866:Drivers/STM32F2xx_HAL_Driver/Inc/stm32f2xx_ll_rcc.h ****   * @retval Between Min_Data = 0x00 and Max_Data = 0xFF
 867:Drivers/STM32F2xx_HAL_Driver/Inc/stm32f2xx_ll_rcc.h ****   */
 868:Drivers/STM32F2xx_HAL_Driver/Inc/stm32f2xx_ll_rcc.h **** __STATIC_INLINE uint32_t LL_RCC_HSI_GetCalibration(void)
 869:Drivers/STM32F2xx_HAL_Driver/Inc/stm32f2xx_ll_rcc.h **** {
 870:Drivers/STM32F2xx_HAL_Driver/Inc/stm32f2xx_ll_rcc.h ****   return (uint32_t)(READ_BIT(RCC->CR, RCC_CR_HSICAL) >> RCC_CR_HSICAL_Pos);
 871:Drivers/STM32F2xx_HAL_Driver/Inc/stm32f2xx_ll_rcc.h **** }
 872:Drivers/STM32F2xx_HAL_Driver/Inc/stm32f2xx_ll_rcc.h **** 
 873:Drivers/STM32F2xx_HAL_Driver/Inc/stm32f2xx_ll_rcc.h **** /**
 874:Drivers/STM32F2xx_HAL_Driver/Inc/stm32f2xx_ll_rcc.h ****   * @brief  Set HSI Calibration trimming
 875:Drivers/STM32F2xx_HAL_Driver/Inc/stm32f2xx_ll_rcc.h ****   * @note user-programmable trimming value that is added to the HSICAL
 876:Drivers/STM32F2xx_HAL_Driver/Inc/stm32f2xx_ll_rcc.h ****   * @note Default value is 16, which, when added to the HSICAL value,
 877:Drivers/STM32F2xx_HAL_Driver/Inc/stm32f2xx_ll_rcc.h ****   *       should trim the HSI to 16 MHz +/- 1 %
 878:Drivers/STM32F2xx_HAL_Driver/Inc/stm32f2xx_ll_rcc.h ****   * @rmtoll CR        HSITRIM       LL_RCC_HSI_SetCalibTrimming
 879:Drivers/STM32F2xx_HAL_Driver/Inc/stm32f2xx_ll_rcc.h ****   * @param  Value Between Min_Data = 0 and Max_Data = 31
 880:Drivers/STM32F2xx_HAL_Driver/Inc/stm32f2xx_ll_rcc.h ****   * @retval None
 881:Drivers/STM32F2xx_HAL_Driver/Inc/stm32f2xx_ll_rcc.h ****   */
 882:Drivers/STM32F2xx_HAL_Driver/Inc/stm32f2xx_ll_rcc.h **** __STATIC_INLINE void LL_RCC_HSI_SetCalibTrimming(uint32_t Value)
 883:Drivers/STM32F2xx_HAL_Driver/Inc/stm32f2xx_ll_rcc.h **** {
 884:Drivers/STM32F2xx_HAL_Driver/Inc/stm32f2xx_ll_rcc.h ****   MODIFY_REG(RCC->CR, RCC_CR_HSITRIM, Value << RCC_CR_HSITRIM_Pos);
 885:Drivers/STM32F2xx_HAL_Driver/Inc/stm32f2xx_ll_rcc.h **** }
 886:Drivers/STM32F2xx_HAL_Driver/Inc/stm32f2xx_ll_rcc.h **** 
 887:Drivers/STM32F2xx_HAL_Driver/Inc/stm32f2xx_ll_rcc.h **** /**
 888:Drivers/STM32F2xx_HAL_Driver/Inc/stm32f2xx_ll_rcc.h ****   * @brief  Get HSI Calibration trimming
 889:Drivers/STM32F2xx_HAL_Driver/Inc/stm32f2xx_ll_rcc.h ****   * @rmtoll CR        HSITRIM       LL_RCC_HSI_GetCalibTrimming
 890:Drivers/STM32F2xx_HAL_Driver/Inc/stm32f2xx_ll_rcc.h ****   * @retval Between Min_Data = 0 and Max_Data = 31
 891:Drivers/STM32F2xx_HAL_Driver/Inc/stm32f2xx_ll_rcc.h ****   */
 892:Drivers/STM32F2xx_HAL_Driver/Inc/stm32f2xx_ll_rcc.h **** __STATIC_INLINE uint32_t LL_RCC_HSI_GetCalibTrimming(void)
 893:Drivers/STM32F2xx_HAL_Driver/Inc/stm32f2xx_ll_rcc.h **** {
ARM GAS  C:\Users\Artem\AppData\Local\Temp\cc8fbasp.s 			page 43


 894:Drivers/STM32F2xx_HAL_Driver/Inc/stm32f2xx_ll_rcc.h ****   return (uint32_t)(READ_BIT(RCC->CR, RCC_CR_HSITRIM) >> RCC_CR_HSITRIM_Pos);
 895:Drivers/STM32F2xx_HAL_Driver/Inc/stm32f2xx_ll_rcc.h **** }
 896:Drivers/STM32F2xx_HAL_Driver/Inc/stm32f2xx_ll_rcc.h **** 
 897:Drivers/STM32F2xx_HAL_Driver/Inc/stm32f2xx_ll_rcc.h **** /**
 898:Drivers/STM32F2xx_HAL_Driver/Inc/stm32f2xx_ll_rcc.h ****   * @}
 899:Drivers/STM32F2xx_HAL_Driver/Inc/stm32f2xx_ll_rcc.h ****   */
 900:Drivers/STM32F2xx_HAL_Driver/Inc/stm32f2xx_ll_rcc.h **** 
 901:Drivers/STM32F2xx_HAL_Driver/Inc/stm32f2xx_ll_rcc.h **** /** @defgroup RCC_LL_EF_LSE LSE
 902:Drivers/STM32F2xx_HAL_Driver/Inc/stm32f2xx_ll_rcc.h ****   * @{
 903:Drivers/STM32F2xx_HAL_Driver/Inc/stm32f2xx_ll_rcc.h ****   */
 904:Drivers/STM32F2xx_HAL_Driver/Inc/stm32f2xx_ll_rcc.h **** 
 905:Drivers/STM32F2xx_HAL_Driver/Inc/stm32f2xx_ll_rcc.h **** /**
 906:Drivers/STM32F2xx_HAL_Driver/Inc/stm32f2xx_ll_rcc.h ****   * @brief  Enable  Low Speed External (LSE) crystal.
 907:Drivers/STM32F2xx_HAL_Driver/Inc/stm32f2xx_ll_rcc.h ****   * @rmtoll BDCR         LSEON         LL_RCC_LSE_Enable
 908:Drivers/STM32F2xx_HAL_Driver/Inc/stm32f2xx_ll_rcc.h ****   * @retval None
 909:Drivers/STM32F2xx_HAL_Driver/Inc/stm32f2xx_ll_rcc.h ****   */
 910:Drivers/STM32F2xx_HAL_Driver/Inc/stm32f2xx_ll_rcc.h **** __STATIC_INLINE void LL_RCC_LSE_Enable(void)
 911:Drivers/STM32F2xx_HAL_Driver/Inc/stm32f2xx_ll_rcc.h **** {
 912:Drivers/STM32F2xx_HAL_Driver/Inc/stm32f2xx_ll_rcc.h ****   SET_BIT(RCC->BDCR, RCC_BDCR_LSEON);
 913:Drivers/STM32F2xx_HAL_Driver/Inc/stm32f2xx_ll_rcc.h **** }
 914:Drivers/STM32F2xx_HAL_Driver/Inc/stm32f2xx_ll_rcc.h **** 
 915:Drivers/STM32F2xx_HAL_Driver/Inc/stm32f2xx_ll_rcc.h **** /**
 916:Drivers/STM32F2xx_HAL_Driver/Inc/stm32f2xx_ll_rcc.h ****   * @brief  Disable  Low Speed External (LSE) crystal.
 917:Drivers/STM32F2xx_HAL_Driver/Inc/stm32f2xx_ll_rcc.h ****   * @rmtoll BDCR         LSEON         LL_RCC_LSE_Disable
 918:Drivers/STM32F2xx_HAL_Driver/Inc/stm32f2xx_ll_rcc.h ****   * @retval None
 919:Drivers/STM32F2xx_HAL_Driver/Inc/stm32f2xx_ll_rcc.h ****   */
 920:Drivers/STM32F2xx_HAL_Driver/Inc/stm32f2xx_ll_rcc.h **** __STATIC_INLINE void LL_RCC_LSE_Disable(void)
 921:Drivers/STM32F2xx_HAL_Driver/Inc/stm32f2xx_ll_rcc.h **** {
 922:Drivers/STM32F2xx_HAL_Driver/Inc/stm32f2xx_ll_rcc.h ****   CLEAR_BIT(RCC->BDCR, RCC_BDCR_LSEON);
 923:Drivers/STM32F2xx_HAL_Driver/Inc/stm32f2xx_ll_rcc.h **** }
 924:Drivers/STM32F2xx_HAL_Driver/Inc/stm32f2xx_ll_rcc.h **** 
 925:Drivers/STM32F2xx_HAL_Driver/Inc/stm32f2xx_ll_rcc.h **** /**
 926:Drivers/STM32F2xx_HAL_Driver/Inc/stm32f2xx_ll_rcc.h ****   * @brief  Enable external clock source (LSE bypass).
 927:Drivers/STM32F2xx_HAL_Driver/Inc/stm32f2xx_ll_rcc.h ****   * @rmtoll BDCR         LSEBYP        LL_RCC_LSE_EnableBypass
 928:Drivers/STM32F2xx_HAL_Driver/Inc/stm32f2xx_ll_rcc.h ****   * @retval None
 929:Drivers/STM32F2xx_HAL_Driver/Inc/stm32f2xx_ll_rcc.h ****   */
 930:Drivers/STM32F2xx_HAL_Driver/Inc/stm32f2xx_ll_rcc.h **** __STATIC_INLINE void LL_RCC_LSE_EnableBypass(void)
 931:Drivers/STM32F2xx_HAL_Driver/Inc/stm32f2xx_ll_rcc.h **** {
 932:Drivers/STM32F2xx_HAL_Driver/Inc/stm32f2xx_ll_rcc.h ****   SET_BIT(RCC->BDCR, RCC_BDCR_LSEBYP);
 933:Drivers/STM32F2xx_HAL_Driver/Inc/stm32f2xx_ll_rcc.h **** }
 934:Drivers/STM32F2xx_HAL_Driver/Inc/stm32f2xx_ll_rcc.h **** 
 935:Drivers/STM32F2xx_HAL_Driver/Inc/stm32f2xx_ll_rcc.h **** /**
 936:Drivers/STM32F2xx_HAL_Driver/Inc/stm32f2xx_ll_rcc.h ****   * @brief  Disable external clock source (LSE bypass).
 937:Drivers/STM32F2xx_HAL_Driver/Inc/stm32f2xx_ll_rcc.h ****   * @rmtoll BDCR         LSEBYP        LL_RCC_LSE_DisableBypass
 938:Drivers/STM32F2xx_HAL_Driver/Inc/stm32f2xx_ll_rcc.h ****   * @retval None
 939:Drivers/STM32F2xx_HAL_Driver/Inc/stm32f2xx_ll_rcc.h ****   */
 940:Drivers/STM32F2xx_HAL_Driver/Inc/stm32f2xx_ll_rcc.h **** __STATIC_INLINE void LL_RCC_LSE_DisableBypass(void)
 941:Drivers/STM32F2xx_HAL_Driver/Inc/stm32f2xx_ll_rcc.h **** {
 942:Drivers/STM32F2xx_HAL_Driver/Inc/stm32f2xx_ll_rcc.h ****   CLEAR_BIT(RCC->BDCR, RCC_BDCR_LSEBYP);
 943:Drivers/STM32F2xx_HAL_Driver/Inc/stm32f2xx_ll_rcc.h **** }
 944:Drivers/STM32F2xx_HAL_Driver/Inc/stm32f2xx_ll_rcc.h **** 
 945:Drivers/STM32F2xx_HAL_Driver/Inc/stm32f2xx_ll_rcc.h **** /**
 946:Drivers/STM32F2xx_HAL_Driver/Inc/stm32f2xx_ll_rcc.h ****   * @brief  Check if LSE oscillator Ready
 947:Drivers/STM32F2xx_HAL_Driver/Inc/stm32f2xx_ll_rcc.h ****   * @rmtoll BDCR         LSERDY        LL_RCC_LSE_IsReady
 948:Drivers/STM32F2xx_HAL_Driver/Inc/stm32f2xx_ll_rcc.h ****   * @retval State of bit (1 or 0).
 949:Drivers/STM32F2xx_HAL_Driver/Inc/stm32f2xx_ll_rcc.h ****   */
 950:Drivers/STM32F2xx_HAL_Driver/Inc/stm32f2xx_ll_rcc.h **** __STATIC_INLINE uint32_t LL_RCC_LSE_IsReady(void)
ARM GAS  C:\Users\Artem\AppData\Local\Temp\cc8fbasp.s 			page 44


 951:Drivers/STM32F2xx_HAL_Driver/Inc/stm32f2xx_ll_rcc.h **** {
 952:Drivers/STM32F2xx_HAL_Driver/Inc/stm32f2xx_ll_rcc.h ****   return (READ_BIT(RCC->BDCR, RCC_BDCR_LSERDY) == (RCC_BDCR_LSERDY));
 953:Drivers/STM32F2xx_HAL_Driver/Inc/stm32f2xx_ll_rcc.h **** }
 954:Drivers/STM32F2xx_HAL_Driver/Inc/stm32f2xx_ll_rcc.h **** 
 955:Drivers/STM32F2xx_HAL_Driver/Inc/stm32f2xx_ll_rcc.h **** /**
 956:Drivers/STM32F2xx_HAL_Driver/Inc/stm32f2xx_ll_rcc.h ****   * @}
 957:Drivers/STM32F2xx_HAL_Driver/Inc/stm32f2xx_ll_rcc.h ****   */
 958:Drivers/STM32F2xx_HAL_Driver/Inc/stm32f2xx_ll_rcc.h **** 
 959:Drivers/STM32F2xx_HAL_Driver/Inc/stm32f2xx_ll_rcc.h **** /** @defgroup RCC_LL_EF_LSI LSI
 960:Drivers/STM32F2xx_HAL_Driver/Inc/stm32f2xx_ll_rcc.h ****   * @{
 961:Drivers/STM32F2xx_HAL_Driver/Inc/stm32f2xx_ll_rcc.h ****   */
 962:Drivers/STM32F2xx_HAL_Driver/Inc/stm32f2xx_ll_rcc.h **** 
 963:Drivers/STM32F2xx_HAL_Driver/Inc/stm32f2xx_ll_rcc.h **** /**
 964:Drivers/STM32F2xx_HAL_Driver/Inc/stm32f2xx_ll_rcc.h ****   * @brief  Enable LSI Oscillator
 965:Drivers/STM32F2xx_HAL_Driver/Inc/stm32f2xx_ll_rcc.h ****   * @rmtoll CSR          LSION         LL_RCC_LSI_Enable
 966:Drivers/STM32F2xx_HAL_Driver/Inc/stm32f2xx_ll_rcc.h ****   * @retval None
 967:Drivers/STM32F2xx_HAL_Driver/Inc/stm32f2xx_ll_rcc.h ****   */
 968:Drivers/STM32F2xx_HAL_Driver/Inc/stm32f2xx_ll_rcc.h **** __STATIC_INLINE void LL_RCC_LSI_Enable(void)
 969:Drivers/STM32F2xx_HAL_Driver/Inc/stm32f2xx_ll_rcc.h **** {
 970:Drivers/STM32F2xx_HAL_Driver/Inc/stm32f2xx_ll_rcc.h ****   SET_BIT(RCC->CSR, RCC_CSR_LSION);
 971:Drivers/STM32F2xx_HAL_Driver/Inc/stm32f2xx_ll_rcc.h **** }
 972:Drivers/STM32F2xx_HAL_Driver/Inc/stm32f2xx_ll_rcc.h **** 
 973:Drivers/STM32F2xx_HAL_Driver/Inc/stm32f2xx_ll_rcc.h **** /**
 974:Drivers/STM32F2xx_HAL_Driver/Inc/stm32f2xx_ll_rcc.h ****   * @brief  Disable LSI Oscillator
 975:Drivers/STM32F2xx_HAL_Driver/Inc/stm32f2xx_ll_rcc.h ****   * @rmtoll CSR          LSION         LL_RCC_LSI_Disable
 976:Drivers/STM32F2xx_HAL_Driver/Inc/stm32f2xx_ll_rcc.h ****   * @retval None
 977:Drivers/STM32F2xx_HAL_Driver/Inc/stm32f2xx_ll_rcc.h ****   */
 978:Drivers/STM32F2xx_HAL_Driver/Inc/stm32f2xx_ll_rcc.h **** __STATIC_INLINE void LL_RCC_LSI_Disable(void)
 979:Drivers/STM32F2xx_HAL_Driver/Inc/stm32f2xx_ll_rcc.h **** {
 980:Drivers/STM32F2xx_HAL_Driver/Inc/stm32f2xx_ll_rcc.h ****   CLEAR_BIT(RCC->CSR, RCC_CSR_LSION);
 981:Drivers/STM32F2xx_HAL_Driver/Inc/stm32f2xx_ll_rcc.h **** }
 982:Drivers/STM32F2xx_HAL_Driver/Inc/stm32f2xx_ll_rcc.h **** 
 983:Drivers/STM32F2xx_HAL_Driver/Inc/stm32f2xx_ll_rcc.h **** /**
 984:Drivers/STM32F2xx_HAL_Driver/Inc/stm32f2xx_ll_rcc.h ****   * @brief  Check if LSI is Ready
 985:Drivers/STM32F2xx_HAL_Driver/Inc/stm32f2xx_ll_rcc.h ****   * @rmtoll CSR          LSIRDY        LL_RCC_LSI_IsReady
 986:Drivers/STM32F2xx_HAL_Driver/Inc/stm32f2xx_ll_rcc.h ****   * @retval State of bit (1 or 0).
 987:Drivers/STM32F2xx_HAL_Driver/Inc/stm32f2xx_ll_rcc.h ****   */
 988:Drivers/STM32F2xx_HAL_Driver/Inc/stm32f2xx_ll_rcc.h **** __STATIC_INLINE uint32_t LL_RCC_LSI_IsReady(void)
 989:Drivers/STM32F2xx_HAL_Driver/Inc/stm32f2xx_ll_rcc.h **** {
 990:Drivers/STM32F2xx_HAL_Driver/Inc/stm32f2xx_ll_rcc.h ****   return (READ_BIT(RCC->CSR, RCC_CSR_LSIRDY) == (RCC_CSR_LSIRDY));
 991:Drivers/STM32F2xx_HAL_Driver/Inc/stm32f2xx_ll_rcc.h **** }
 992:Drivers/STM32F2xx_HAL_Driver/Inc/stm32f2xx_ll_rcc.h **** 
 993:Drivers/STM32F2xx_HAL_Driver/Inc/stm32f2xx_ll_rcc.h **** /**
 994:Drivers/STM32F2xx_HAL_Driver/Inc/stm32f2xx_ll_rcc.h ****   * @}
 995:Drivers/STM32F2xx_HAL_Driver/Inc/stm32f2xx_ll_rcc.h ****   */
 996:Drivers/STM32F2xx_HAL_Driver/Inc/stm32f2xx_ll_rcc.h **** 
 997:Drivers/STM32F2xx_HAL_Driver/Inc/stm32f2xx_ll_rcc.h **** /** @defgroup RCC_LL_EF_System System
 998:Drivers/STM32F2xx_HAL_Driver/Inc/stm32f2xx_ll_rcc.h ****   * @{
 999:Drivers/STM32F2xx_HAL_Driver/Inc/stm32f2xx_ll_rcc.h ****   */
1000:Drivers/STM32F2xx_HAL_Driver/Inc/stm32f2xx_ll_rcc.h **** 
1001:Drivers/STM32F2xx_HAL_Driver/Inc/stm32f2xx_ll_rcc.h **** /**
1002:Drivers/STM32F2xx_HAL_Driver/Inc/stm32f2xx_ll_rcc.h ****   * @brief  Configure the system clock source
1003:Drivers/STM32F2xx_HAL_Driver/Inc/stm32f2xx_ll_rcc.h ****   * @rmtoll CFGR         SW            LL_RCC_SetSysClkSource
1004:Drivers/STM32F2xx_HAL_Driver/Inc/stm32f2xx_ll_rcc.h ****   * @param  Source This parameter can be one of the following values:
1005:Drivers/STM32F2xx_HAL_Driver/Inc/stm32f2xx_ll_rcc.h ****   *         @arg @ref LL_RCC_SYS_CLKSOURCE_HSI
1006:Drivers/STM32F2xx_HAL_Driver/Inc/stm32f2xx_ll_rcc.h ****   *         @arg @ref LL_RCC_SYS_CLKSOURCE_HSE
1007:Drivers/STM32F2xx_HAL_Driver/Inc/stm32f2xx_ll_rcc.h ****   *         @arg @ref LL_RCC_SYS_CLKSOURCE_PLL
ARM GAS  C:\Users\Artem\AppData\Local\Temp\cc8fbasp.s 			page 45


1008:Drivers/STM32F2xx_HAL_Driver/Inc/stm32f2xx_ll_rcc.h ****   * @retval None
1009:Drivers/STM32F2xx_HAL_Driver/Inc/stm32f2xx_ll_rcc.h ****   */
1010:Drivers/STM32F2xx_HAL_Driver/Inc/stm32f2xx_ll_rcc.h **** __STATIC_INLINE void LL_RCC_SetSysClkSource(uint32_t Source)
1011:Drivers/STM32F2xx_HAL_Driver/Inc/stm32f2xx_ll_rcc.h **** {
1012:Drivers/STM32F2xx_HAL_Driver/Inc/stm32f2xx_ll_rcc.h ****   MODIFY_REG(RCC->CFGR, RCC_CFGR_SW, Source);
1013:Drivers/STM32F2xx_HAL_Driver/Inc/stm32f2xx_ll_rcc.h **** }
1014:Drivers/STM32F2xx_HAL_Driver/Inc/stm32f2xx_ll_rcc.h **** 
1015:Drivers/STM32F2xx_HAL_Driver/Inc/stm32f2xx_ll_rcc.h **** /**
1016:Drivers/STM32F2xx_HAL_Driver/Inc/stm32f2xx_ll_rcc.h ****   * @brief  Get the system clock source
1017:Drivers/STM32F2xx_HAL_Driver/Inc/stm32f2xx_ll_rcc.h ****   * @rmtoll CFGR         SWS           LL_RCC_GetSysClkSource
1018:Drivers/STM32F2xx_HAL_Driver/Inc/stm32f2xx_ll_rcc.h ****   * @retval Returned value can be one of the following values:
1019:Drivers/STM32F2xx_HAL_Driver/Inc/stm32f2xx_ll_rcc.h ****   *         @arg @ref LL_RCC_SYS_CLKSOURCE_STATUS_HSI
1020:Drivers/STM32F2xx_HAL_Driver/Inc/stm32f2xx_ll_rcc.h ****   *         @arg @ref LL_RCC_SYS_CLKSOURCE_STATUS_HSE
1021:Drivers/STM32F2xx_HAL_Driver/Inc/stm32f2xx_ll_rcc.h ****   *         @arg @ref LL_RCC_SYS_CLKSOURCE_STATUS_PLL
1022:Drivers/STM32F2xx_HAL_Driver/Inc/stm32f2xx_ll_rcc.h ****   */
1023:Drivers/STM32F2xx_HAL_Driver/Inc/stm32f2xx_ll_rcc.h **** __STATIC_INLINE uint32_t LL_RCC_GetSysClkSource(void)
1024:Drivers/STM32F2xx_HAL_Driver/Inc/stm32f2xx_ll_rcc.h **** {
1025:Drivers/STM32F2xx_HAL_Driver/Inc/stm32f2xx_ll_rcc.h ****   return (uint32_t)(READ_BIT(RCC->CFGR, RCC_CFGR_SWS));
1026:Drivers/STM32F2xx_HAL_Driver/Inc/stm32f2xx_ll_rcc.h **** }
1027:Drivers/STM32F2xx_HAL_Driver/Inc/stm32f2xx_ll_rcc.h **** 
1028:Drivers/STM32F2xx_HAL_Driver/Inc/stm32f2xx_ll_rcc.h **** /**
1029:Drivers/STM32F2xx_HAL_Driver/Inc/stm32f2xx_ll_rcc.h ****   * @brief  Set AHB prescaler
1030:Drivers/STM32F2xx_HAL_Driver/Inc/stm32f2xx_ll_rcc.h ****   * @rmtoll CFGR         HPRE          LL_RCC_SetAHBPrescaler
1031:Drivers/STM32F2xx_HAL_Driver/Inc/stm32f2xx_ll_rcc.h ****   * @param  Prescaler This parameter can be one of the following values:
1032:Drivers/STM32F2xx_HAL_Driver/Inc/stm32f2xx_ll_rcc.h ****   *         @arg @ref LL_RCC_SYSCLK_DIV_1
1033:Drivers/STM32F2xx_HAL_Driver/Inc/stm32f2xx_ll_rcc.h ****   *         @arg @ref LL_RCC_SYSCLK_DIV_2
1034:Drivers/STM32F2xx_HAL_Driver/Inc/stm32f2xx_ll_rcc.h ****   *         @arg @ref LL_RCC_SYSCLK_DIV_4
1035:Drivers/STM32F2xx_HAL_Driver/Inc/stm32f2xx_ll_rcc.h ****   *         @arg @ref LL_RCC_SYSCLK_DIV_8
1036:Drivers/STM32F2xx_HAL_Driver/Inc/stm32f2xx_ll_rcc.h ****   *         @arg @ref LL_RCC_SYSCLK_DIV_16
1037:Drivers/STM32F2xx_HAL_Driver/Inc/stm32f2xx_ll_rcc.h ****   *         @arg @ref LL_RCC_SYSCLK_DIV_64
1038:Drivers/STM32F2xx_HAL_Driver/Inc/stm32f2xx_ll_rcc.h ****   *         @arg @ref LL_RCC_SYSCLK_DIV_128
1039:Drivers/STM32F2xx_HAL_Driver/Inc/stm32f2xx_ll_rcc.h ****   *         @arg @ref LL_RCC_SYSCLK_DIV_256
1040:Drivers/STM32F2xx_HAL_Driver/Inc/stm32f2xx_ll_rcc.h ****   *         @arg @ref LL_RCC_SYSCLK_DIV_512
1041:Drivers/STM32F2xx_HAL_Driver/Inc/stm32f2xx_ll_rcc.h ****   * @retval None
1042:Drivers/STM32F2xx_HAL_Driver/Inc/stm32f2xx_ll_rcc.h ****   */
1043:Drivers/STM32F2xx_HAL_Driver/Inc/stm32f2xx_ll_rcc.h **** __STATIC_INLINE void LL_RCC_SetAHBPrescaler(uint32_t Prescaler)
1044:Drivers/STM32F2xx_HAL_Driver/Inc/stm32f2xx_ll_rcc.h **** {
1045:Drivers/STM32F2xx_HAL_Driver/Inc/stm32f2xx_ll_rcc.h ****   MODIFY_REG(RCC->CFGR, RCC_CFGR_HPRE, Prescaler);
1046:Drivers/STM32F2xx_HAL_Driver/Inc/stm32f2xx_ll_rcc.h **** }
1047:Drivers/STM32F2xx_HAL_Driver/Inc/stm32f2xx_ll_rcc.h **** 
1048:Drivers/STM32F2xx_HAL_Driver/Inc/stm32f2xx_ll_rcc.h **** /**
1049:Drivers/STM32F2xx_HAL_Driver/Inc/stm32f2xx_ll_rcc.h ****   * @brief  Set APB1 prescaler
1050:Drivers/STM32F2xx_HAL_Driver/Inc/stm32f2xx_ll_rcc.h ****   * @rmtoll CFGR         PPRE1         LL_RCC_SetAPB1Prescaler
1051:Drivers/STM32F2xx_HAL_Driver/Inc/stm32f2xx_ll_rcc.h ****   * @param  Prescaler This parameter can be one of the following values:
1052:Drivers/STM32F2xx_HAL_Driver/Inc/stm32f2xx_ll_rcc.h ****   *         @arg @ref LL_RCC_APB1_DIV_1
1053:Drivers/STM32F2xx_HAL_Driver/Inc/stm32f2xx_ll_rcc.h ****   *         @arg @ref LL_RCC_APB1_DIV_2
1054:Drivers/STM32F2xx_HAL_Driver/Inc/stm32f2xx_ll_rcc.h ****   *         @arg @ref LL_RCC_APB1_DIV_4
1055:Drivers/STM32F2xx_HAL_Driver/Inc/stm32f2xx_ll_rcc.h ****   *         @arg @ref LL_RCC_APB1_DIV_8
1056:Drivers/STM32F2xx_HAL_Driver/Inc/stm32f2xx_ll_rcc.h ****   *         @arg @ref LL_RCC_APB1_DIV_16
1057:Drivers/STM32F2xx_HAL_Driver/Inc/stm32f2xx_ll_rcc.h ****   * @retval None
1058:Drivers/STM32F2xx_HAL_Driver/Inc/stm32f2xx_ll_rcc.h ****   */
1059:Drivers/STM32F2xx_HAL_Driver/Inc/stm32f2xx_ll_rcc.h **** __STATIC_INLINE void LL_RCC_SetAPB1Prescaler(uint32_t Prescaler)
1060:Drivers/STM32F2xx_HAL_Driver/Inc/stm32f2xx_ll_rcc.h **** {
1061:Drivers/STM32F2xx_HAL_Driver/Inc/stm32f2xx_ll_rcc.h ****   MODIFY_REG(RCC->CFGR, RCC_CFGR_PPRE1, Prescaler);
1062:Drivers/STM32F2xx_HAL_Driver/Inc/stm32f2xx_ll_rcc.h **** }
1063:Drivers/STM32F2xx_HAL_Driver/Inc/stm32f2xx_ll_rcc.h **** 
1064:Drivers/STM32F2xx_HAL_Driver/Inc/stm32f2xx_ll_rcc.h **** /**
ARM GAS  C:\Users\Artem\AppData\Local\Temp\cc8fbasp.s 			page 46


1065:Drivers/STM32F2xx_HAL_Driver/Inc/stm32f2xx_ll_rcc.h ****   * @brief  Set APB2 prescaler
1066:Drivers/STM32F2xx_HAL_Driver/Inc/stm32f2xx_ll_rcc.h ****   * @rmtoll CFGR         PPRE2         LL_RCC_SetAPB2Prescaler
1067:Drivers/STM32F2xx_HAL_Driver/Inc/stm32f2xx_ll_rcc.h ****   * @param  Prescaler This parameter can be one of the following values:
1068:Drivers/STM32F2xx_HAL_Driver/Inc/stm32f2xx_ll_rcc.h ****   *         @arg @ref LL_RCC_APB2_DIV_1
1069:Drivers/STM32F2xx_HAL_Driver/Inc/stm32f2xx_ll_rcc.h ****   *         @arg @ref LL_RCC_APB2_DIV_2
1070:Drivers/STM32F2xx_HAL_Driver/Inc/stm32f2xx_ll_rcc.h ****   *         @arg @ref LL_RCC_APB2_DIV_4
1071:Drivers/STM32F2xx_HAL_Driver/Inc/stm32f2xx_ll_rcc.h ****   *         @arg @ref LL_RCC_APB2_DIV_8
1072:Drivers/STM32F2xx_HAL_Driver/Inc/stm32f2xx_ll_rcc.h ****   *         @arg @ref LL_RCC_APB2_DIV_16
1073:Drivers/STM32F2xx_HAL_Driver/Inc/stm32f2xx_ll_rcc.h ****   * @retval None
1074:Drivers/STM32F2xx_HAL_Driver/Inc/stm32f2xx_ll_rcc.h ****   */
1075:Drivers/STM32F2xx_HAL_Driver/Inc/stm32f2xx_ll_rcc.h **** __STATIC_INLINE void LL_RCC_SetAPB2Prescaler(uint32_t Prescaler)
1076:Drivers/STM32F2xx_HAL_Driver/Inc/stm32f2xx_ll_rcc.h **** {
1077:Drivers/STM32F2xx_HAL_Driver/Inc/stm32f2xx_ll_rcc.h ****   MODIFY_REG(RCC->CFGR, RCC_CFGR_PPRE2, Prescaler);
1078:Drivers/STM32F2xx_HAL_Driver/Inc/stm32f2xx_ll_rcc.h **** }
1079:Drivers/STM32F2xx_HAL_Driver/Inc/stm32f2xx_ll_rcc.h **** 
1080:Drivers/STM32F2xx_HAL_Driver/Inc/stm32f2xx_ll_rcc.h **** /**
1081:Drivers/STM32F2xx_HAL_Driver/Inc/stm32f2xx_ll_rcc.h ****   * @brief  Get AHB prescaler
1082:Drivers/STM32F2xx_HAL_Driver/Inc/stm32f2xx_ll_rcc.h ****   * @rmtoll CFGR         HPRE          LL_RCC_GetAHBPrescaler
1083:Drivers/STM32F2xx_HAL_Driver/Inc/stm32f2xx_ll_rcc.h ****   * @retval Returned value can be one of the following values:
1084:Drivers/STM32F2xx_HAL_Driver/Inc/stm32f2xx_ll_rcc.h ****   *         @arg @ref LL_RCC_SYSCLK_DIV_1
1085:Drivers/STM32F2xx_HAL_Driver/Inc/stm32f2xx_ll_rcc.h ****   *         @arg @ref LL_RCC_SYSCLK_DIV_2
1086:Drivers/STM32F2xx_HAL_Driver/Inc/stm32f2xx_ll_rcc.h ****   *         @arg @ref LL_RCC_SYSCLK_DIV_4
1087:Drivers/STM32F2xx_HAL_Driver/Inc/stm32f2xx_ll_rcc.h ****   *         @arg @ref LL_RCC_SYSCLK_DIV_8
1088:Drivers/STM32F2xx_HAL_Driver/Inc/stm32f2xx_ll_rcc.h ****   *         @arg @ref LL_RCC_SYSCLK_DIV_16
1089:Drivers/STM32F2xx_HAL_Driver/Inc/stm32f2xx_ll_rcc.h ****   *         @arg @ref LL_RCC_SYSCLK_DIV_64
1090:Drivers/STM32F2xx_HAL_Driver/Inc/stm32f2xx_ll_rcc.h ****   *         @arg @ref LL_RCC_SYSCLK_DIV_128
1091:Drivers/STM32F2xx_HAL_Driver/Inc/stm32f2xx_ll_rcc.h ****   *         @arg @ref LL_RCC_SYSCLK_DIV_256
1092:Drivers/STM32F2xx_HAL_Driver/Inc/stm32f2xx_ll_rcc.h ****   *         @arg @ref LL_RCC_SYSCLK_DIV_512
1093:Drivers/STM32F2xx_HAL_Driver/Inc/stm32f2xx_ll_rcc.h ****   */
1094:Drivers/STM32F2xx_HAL_Driver/Inc/stm32f2xx_ll_rcc.h **** __STATIC_INLINE uint32_t LL_RCC_GetAHBPrescaler(void)
1095:Drivers/STM32F2xx_HAL_Driver/Inc/stm32f2xx_ll_rcc.h **** {
1096:Drivers/STM32F2xx_HAL_Driver/Inc/stm32f2xx_ll_rcc.h ****   return (uint32_t)(READ_BIT(RCC->CFGR, RCC_CFGR_HPRE));
1097:Drivers/STM32F2xx_HAL_Driver/Inc/stm32f2xx_ll_rcc.h **** }
1098:Drivers/STM32F2xx_HAL_Driver/Inc/stm32f2xx_ll_rcc.h **** 
1099:Drivers/STM32F2xx_HAL_Driver/Inc/stm32f2xx_ll_rcc.h **** /**
1100:Drivers/STM32F2xx_HAL_Driver/Inc/stm32f2xx_ll_rcc.h ****   * @brief  Get APB1 prescaler
1101:Drivers/STM32F2xx_HAL_Driver/Inc/stm32f2xx_ll_rcc.h ****   * @rmtoll CFGR         PPRE1         LL_RCC_GetAPB1Prescaler
1102:Drivers/STM32F2xx_HAL_Driver/Inc/stm32f2xx_ll_rcc.h ****   * @retval Returned value can be one of the following values:
1103:Drivers/STM32F2xx_HAL_Driver/Inc/stm32f2xx_ll_rcc.h ****   *         @arg @ref LL_RCC_APB1_DIV_1
1104:Drivers/STM32F2xx_HAL_Driver/Inc/stm32f2xx_ll_rcc.h ****   *         @arg @ref LL_RCC_APB1_DIV_2
1105:Drivers/STM32F2xx_HAL_Driver/Inc/stm32f2xx_ll_rcc.h ****   *         @arg @ref LL_RCC_APB1_DIV_4
1106:Drivers/STM32F2xx_HAL_Driver/Inc/stm32f2xx_ll_rcc.h ****   *         @arg @ref LL_RCC_APB1_DIV_8
1107:Drivers/STM32F2xx_HAL_Driver/Inc/stm32f2xx_ll_rcc.h ****   *         @arg @ref LL_RCC_APB1_DIV_16
1108:Drivers/STM32F2xx_HAL_Driver/Inc/stm32f2xx_ll_rcc.h ****   */
1109:Drivers/STM32F2xx_HAL_Driver/Inc/stm32f2xx_ll_rcc.h **** __STATIC_INLINE uint32_t LL_RCC_GetAPB1Prescaler(void)
1110:Drivers/STM32F2xx_HAL_Driver/Inc/stm32f2xx_ll_rcc.h **** {
1111:Drivers/STM32F2xx_HAL_Driver/Inc/stm32f2xx_ll_rcc.h ****   return (uint32_t)(READ_BIT(RCC->CFGR, RCC_CFGR_PPRE1));
1112:Drivers/STM32F2xx_HAL_Driver/Inc/stm32f2xx_ll_rcc.h **** }
1113:Drivers/STM32F2xx_HAL_Driver/Inc/stm32f2xx_ll_rcc.h **** 
1114:Drivers/STM32F2xx_HAL_Driver/Inc/stm32f2xx_ll_rcc.h **** /**
1115:Drivers/STM32F2xx_HAL_Driver/Inc/stm32f2xx_ll_rcc.h ****   * @brief  Get APB2 prescaler
1116:Drivers/STM32F2xx_HAL_Driver/Inc/stm32f2xx_ll_rcc.h ****   * @rmtoll CFGR         PPRE2         LL_RCC_GetAPB2Prescaler
1117:Drivers/STM32F2xx_HAL_Driver/Inc/stm32f2xx_ll_rcc.h ****   * @retval Returned value can be one of the following values:
1118:Drivers/STM32F2xx_HAL_Driver/Inc/stm32f2xx_ll_rcc.h ****   *         @arg @ref LL_RCC_APB2_DIV_1
1119:Drivers/STM32F2xx_HAL_Driver/Inc/stm32f2xx_ll_rcc.h ****   *         @arg @ref LL_RCC_APB2_DIV_2
1120:Drivers/STM32F2xx_HAL_Driver/Inc/stm32f2xx_ll_rcc.h ****   *         @arg @ref LL_RCC_APB2_DIV_4
1121:Drivers/STM32F2xx_HAL_Driver/Inc/stm32f2xx_ll_rcc.h ****   *         @arg @ref LL_RCC_APB2_DIV_8
ARM GAS  C:\Users\Artem\AppData\Local\Temp\cc8fbasp.s 			page 47


1122:Drivers/STM32F2xx_HAL_Driver/Inc/stm32f2xx_ll_rcc.h ****   *         @arg @ref LL_RCC_APB2_DIV_16
1123:Drivers/STM32F2xx_HAL_Driver/Inc/stm32f2xx_ll_rcc.h ****   */
1124:Drivers/STM32F2xx_HAL_Driver/Inc/stm32f2xx_ll_rcc.h **** __STATIC_INLINE uint32_t LL_RCC_GetAPB2Prescaler(void)
1125:Drivers/STM32F2xx_HAL_Driver/Inc/stm32f2xx_ll_rcc.h **** {
