ARM GAS  C:\Users\Artem\AppData\Local\Temp\cc9eXbmh.s 			page 1


   1              		.cpu cortex-m3
   2              		.arch armv7-m
   3              		.fpu softvfp
   4              		.eabi_attribute 20, 1
   5              		.eabi_attribute 21, 1
   6              		.eabi_attribute 23, 3
   7              		.eabi_attribute 24, 1
   8              		.eabi_attribute 25, 1
   9              		.eabi_attribute 26, 1
  10              		.eabi_attribute 30, 1
  11              		.eabi_attribute 34, 1
  12              		.eabi_attribute 18, 4
  13              		.file	"stm32f2xx_hal_dma_ex.c"
  14              		.text
  15              	.Ltext0:
  16              		.cfi_sections	.debug_frame
  17              		.section	.text.DMA_MultiBufferSetConfig,"ax",%progbits
  18              		.align	1
  19              		.syntax unified
  20              		.thumb
  21              		.thumb_func
  23              	DMA_MultiBufferSetConfig:
  24              	.LVL0:
  25              	.LFB75:
  26              		.file 1 "Drivers/STM32F2xx_HAL_Driver/Src/stm32f2xx_hal_dma_ex.c"
   1:Drivers/STM32F2xx_HAL_Driver/Src/stm32f2xx_hal_dma_ex.c **** /**
   2:Drivers/STM32F2xx_HAL_Driver/Src/stm32f2xx_hal_dma_ex.c ****   ******************************************************************************
   3:Drivers/STM32F2xx_HAL_Driver/Src/stm32f2xx_hal_dma_ex.c ****   * @file    stm32f2xx_hal_dma_ex.c
   4:Drivers/STM32F2xx_HAL_Driver/Src/stm32f2xx_hal_dma_ex.c ****   * @author  MCD Application Team
   5:Drivers/STM32F2xx_HAL_Driver/Src/stm32f2xx_hal_dma_ex.c ****   * @brief   DMA Extension HAL module driver
   6:Drivers/STM32F2xx_HAL_Driver/Src/stm32f2xx_hal_dma_ex.c ****   *         This file provides firmware functions to manage the following 
   7:Drivers/STM32F2xx_HAL_Driver/Src/stm32f2xx_hal_dma_ex.c ****   *         functionalities of the DMA Extension peripheral:
   8:Drivers/STM32F2xx_HAL_Driver/Src/stm32f2xx_hal_dma_ex.c ****   *           + Extended features functions
   9:Drivers/STM32F2xx_HAL_Driver/Src/stm32f2xx_hal_dma_ex.c ****   *
  10:Drivers/STM32F2xx_HAL_Driver/Src/stm32f2xx_hal_dma_ex.c ****   @verbatim
  11:Drivers/STM32F2xx_HAL_Driver/Src/stm32f2xx_hal_dma_ex.c ****   ==============================================================================
  12:Drivers/STM32F2xx_HAL_Driver/Src/stm32f2xx_hal_dma_ex.c ****                         ##### How to use this driver #####
  13:Drivers/STM32F2xx_HAL_Driver/Src/stm32f2xx_hal_dma_ex.c ****   ==============================================================================
  14:Drivers/STM32F2xx_HAL_Driver/Src/stm32f2xx_hal_dma_ex.c ****   [..]
  15:Drivers/STM32F2xx_HAL_Driver/Src/stm32f2xx_hal_dma_ex.c ****   The DMA Extension HAL driver can be used as follows:
  16:Drivers/STM32F2xx_HAL_Driver/Src/stm32f2xx_hal_dma_ex.c ****    (#) Start a multi buffer transfer using the HAL_DMA_MultiBufferStart() function
  17:Drivers/STM32F2xx_HAL_Driver/Src/stm32f2xx_hal_dma_ex.c ****        for polling mode or HAL_DMA_MultiBufferStart_IT() for interrupt mode.
  18:Drivers/STM32F2xx_HAL_Driver/Src/stm32f2xx_hal_dma_ex.c ****                    
  19:Drivers/STM32F2xx_HAL_Driver/Src/stm32f2xx_hal_dma_ex.c ****      -@-  In Memory-to-Memory transfer mode, Multi (Double) Buffer mode is not allowed.
  20:Drivers/STM32F2xx_HAL_Driver/Src/stm32f2xx_hal_dma_ex.c ****      -@-  When Multi (Double) Buffer mode is enabled the, transfer is circular by default.
  21:Drivers/STM32F2xx_HAL_Driver/Src/stm32f2xx_hal_dma_ex.c ****      -@-  In Multi (Double) buffer mode, it is possible to update the base address for 
  22:Drivers/STM32F2xx_HAL_Driver/Src/stm32f2xx_hal_dma_ex.c ****           the AHB memory port on the fly (DMA_SxM0AR or DMA_SxM1AR) when the stream is enabled. 
  23:Drivers/STM32F2xx_HAL_Driver/Src/stm32f2xx_hal_dma_ex.c ****   
  24:Drivers/STM32F2xx_HAL_Driver/Src/stm32f2xx_hal_dma_ex.c ****   @endverbatim
  25:Drivers/STM32F2xx_HAL_Driver/Src/stm32f2xx_hal_dma_ex.c ****   ******************************************************************************
  26:Drivers/STM32F2xx_HAL_Driver/Src/stm32f2xx_hal_dma_ex.c ****   * @attention
  27:Drivers/STM32F2xx_HAL_Driver/Src/stm32f2xx_hal_dma_ex.c ****   *
  28:Drivers/STM32F2xx_HAL_Driver/Src/stm32f2xx_hal_dma_ex.c ****   * <h2><center>&copy; Copyright (c) 2016 STMicroelectronics.
  29:Drivers/STM32F2xx_HAL_Driver/Src/stm32f2xx_hal_dma_ex.c ****   * All rights reserved.</center></h2>
  30:Drivers/STM32F2xx_HAL_Driver/Src/stm32f2xx_hal_dma_ex.c ****   *
  31:Drivers/STM32F2xx_HAL_Driver/Src/stm32f2xx_hal_dma_ex.c ****   * This software component is licensed by ST under BSD 3-Clause license,
  32:Drivers/STM32F2xx_HAL_Driver/Src/stm32f2xx_hal_dma_ex.c ****   * the "License"; You may not use this file except in compliance with the
ARM GAS  C:\Users\Artem\AppData\Local\Temp\cc9eXbmh.s 			page 2


  33:Drivers/STM32F2xx_HAL_Driver/Src/stm32f2xx_hal_dma_ex.c ****   * License. You may obtain a copy of the License at:
  34:Drivers/STM32F2xx_HAL_Driver/Src/stm32f2xx_hal_dma_ex.c ****   *                        opensource.org/licenses/BSD-3-Clause
  35:Drivers/STM32F2xx_HAL_Driver/Src/stm32f2xx_hal_dma_ex.c ****   *
  36:Drivers/STM32F2xx_HAL_Driver/Src/stm32f2xx_hal_dma_ex.c ****   ******************************************************************************
  37:Drivers/STM32F2xx_HAL_Driver/Src/stm32f2xx_hal_dma_ex.c ****   */
  38:Drivers/STM32F2xx_HAL_Driver/Src/stm32f2xx_hal_dma_ex.c **** 
  39:Drivers/STM32F2xx_HAL_Driver/Src/stm32f2xx_hal_dma_ex.c **** /* Includes ------------------------------------------------------------------*/
  40:Drivers/STM32F2xx_HAL_Driver/Src/stm32f2xx_hal_dma_ex.c **** #include "stm32f2xx_hal.h"
  41:Drivers/STM32F2xx_HAL_Driver/Src/stm32f2xx_hal_dma_ex.c **** 
  42:Drivers/STM32F2xx_HAL_Driver/Src/stm32f2xx_hal_dma_ex.c **** /** @addtogroup STM32F2xx_HAL_Driver
  43:Drivers/STM32F2xx_HAL_Driver/Src/stm32f2xx_hal_dma_ex.c ****   * @{
  44:Drivers/STM32F2xx_HAL_Driver/Src/stm32f2xx_hal_dma_ex.c ****   */
  45:Drivers/STM32F2xx_HAL_Driver/Src/stm32f2xx_hal_dma_ex.c **** 
  46:Drivers/STM32F2xx_HAL_Driver/Src/stm32f2xx_hal_dma_ex.c **** /** @defgroup DMAEx DMAEx
  47:Drivers/STM32F2xx_HAL_Driver/Src/stm32f2xx_hal_dma_ex.c ****   * @brief DMA Extended HAL module driver
  48:Drivers/STM32F2xx_HAL_Driver/Src/stm32f2xx_hal_dma_ex.c ****   * @{
  49:Drivers/STM32F2xx_HAL_Driver/Src/stm32f2xx_hal_dma_ex.c ****   */
  50:Drivers/STM32F2xx_HAL_Driver/Src/stm32f2xx_hal_dma_ex.c **** 
  51:Drivers/STM32F2xx_HAL_Driver/Src/stm32f2xx_hal_dma_ex.c **** #ifdef HAL_DMA_MODULE_ENABLED
  52:Drivers/STM32F2xx_HAL_Driver/Src/stm32f2xx_hal_dma_ex.c **** 
  53:Drivers/STM32F2xx_HAL_Driver/Src/stm32f2xx_hal_dma_ex.c **** /* Private types -------------------------------------------------------------*/
  54:Drivers/STM32F2xx_HAL_Driver/Src/stm32f2xx_hal_dma_ex.c **** /* Private variables ---------------------------------------------------------*/
  55:Drivers/STM32F2xx_HAL_Driver/Src/stm32f2xx_hal_dma_ex.c **** /* Private Constants ---------------------------------------------------------*/
  56:Drivers/STM32F2xx_HAL_Driver/Src/stm32f2xx_hal_dma_ex.c **** /* Private macros ------------------------------------------------------------*/
  57:Drivers/STM32F2xx_HAL_Driver/Src/stm32f2xx_hal_dma_ex.c **** /* Private functions ---------------------------------------------------------*/
  58:Drivers/STM32F2xx_HAL_Driver/Src/stm32f2xx_hal_dma_ex.c **** /** @addtogroup DMAEx_Private_Functions
  59:Drivers/STM32F2xx_HAL_Driver/Src/stm32f2xx_hal_dma_ex.c ****   * @{
  60:Drivers/STM32F2xx_HAL_Driver/Src/stm32f2xx_hal_dma_ex.c ****   */
  61:Drivers/STM32F2xx_HAL_Driver/Src/stm32f2xx_hal_dma_ex.c **** static void DMA_MultiBufferSetConfig(DMA_HandleTypeDef *hdma, uint32_t SrcAddress, uint32_t DstAddr
  62:Drivers/STM32F2xx_HAL_Driver/Src/stm32f2xx_hal_dma_ex.c **** /**
  63:Drivers/STM32F2xx_HAL_Driver/Src/stm32f2xx_hal_dma_ex.c ****   * @}
  64:Drivers/STM32F2xx_HAL_Driver/Src/stm32f2xx_hal_dma_ex.c ****   */
  65:Drivers/STM32F2xx_HAL_Driver/Src/stm32f2xx_hal_dma_ex.c **** 
  66:Drivers/STM32F2xx_HAL_Driver/Src/stm32f2xx_hal_dma_ex.c **** /* Exported functions ---------------------------------------------------------*/
  67:Drivers/STM32F2xx_HAL_Driver/Src/stm32f2xx_hal_dma_ex.c **** 
  68:Drivers/STM32F2xx_HAL_Driver/Src/stm32f2xx_hal_dma_ex.c **** /** @addtogroup DMAEx_Exported_Functions
  69:Drivers/STM32F2xx_HAL_Driver/Src/stm32f2xx_hal_dma_ex.c ****   * @{
  70:Drivers/STM32F2xx_HAL_Driver/Src/stm32f2xx_hal_dma_ex.c ****   */
  71:Drivers/STM32F2xx_HAL_Driver/Src/stm32f2xx_hal_dma_ex.c **** 
  72:Drivers/STM32F2xx_HAL_Driver/Src/stm32f2xx_hal_dma_ex.c **** 
  73:Drivers/STM32F2xx_HAL_Driver/Src/stm32f2xx_hal_dma_ex.c **** /** @addtogroup DMAEx_Exported_Functions_Group1
  74:Drivers/STM32F2xx_HAL_Driver/Src/stm32f2xx_hal_dma_ex.c ****   *
  75:Drivers/STM32F2xx_HAL_Driver/Src/stm32f2xx_hal_dma_ex.c **** @verbatim   
  76:Drivers/STM32F2xx_HAL_Driver/Src/stm32f2xx_hal_dma_ex.c ****  ===============================================================================
  77:Drivers/STM32F2xx_HAL_Driver/Src/stm32f2xx_hal_dma_ex.c ****                 #####  Extended features functions  #####
  78:Drivers/STM32F2xx_HAL_Driver/Src/stm32f2xx_hal_dma_ex.c ****  ===============================================================================  
  79:Drivers/STM32F2xx_HAL_Driver/Src/stm32f2xx_hal_dma_ex.c ****     [..]  This section provides functions allowing to:
  80:Drivers/STM32F2xx_HAL_Driver/Src/stm32f2xx_hal_dma_ex.c ****       (+) Configure the source, destination address and data length and 
  81:Drivers/STM32F2xx_HAL_Driver/Src/stm32f2xx_hal_dma_ex.c ****           Start MultiBuffer DMA transfer
  82:Drivers/STM32F2xx_HAL_Driver/Src/stm32f2xx_hal_dma_ex.c ****       (+) Configure the source, destination address and data length and 
  83:Drivers/STM32F2xx_HAL_Driver/Src/stm32f2xx_hal_dma_ex.c ****           Start MultiBuffer DMA transfer with interrupt
  84:Drivers/STM32F2xx_HAL_Driver/Src/stm32f2xx_hal_dma_ex.c ****       (+) Change on the fly the memory0 or memory1 address.
  85:Drivers/STM32F2xx_HAL_Driver/Src/stm32f2xx_hal_dma_ex.c ****       
  86:Drivers/STM32F2xx_HAL_Driver/Src/stm32f2xx_hal_dma_ex.c **** @endverbatim
  87:Drivers/STM32F2xx_HAL_Driver/Src/stm32f2xx_hal_dma_ex.c ****   * @{
  88:Drivers/STM32F2xx_HAL_Driver/Src/stm32f2xx_hal_dma_ex.c ****   */
  89:Drivers/STM32F2xx_HAL_Driver/Src/stm32f2xx_hal_dma_ex.c **** 
ARM GAS  C:\Users\Artem\AppData\Local\Temp\cc9eXbmh.s 			page 3


  90:Drivers/STM32F2xx_HAL_Driver/Src/stm32f2xx_hal_dma_ex.c **** 
  91:Drivers/STM32F2xx_HAL_Driver/Src/stm32f2xx_hal_dma_ex.c **** /**
  92:Drivers/STM32F2xx_HAL_Driver/Src/stm32f2xx_hal_dma_ex.c ****   * @brief  Starts the multi_buffer DMA Transfer.
  93:Drivers/STM32F2xx_HAL_Driver/Src/stm32f2xx_hal_dma_ex.c ****   * @param  hdma pointer to a DMA_HandleTypeDef structure that contains
  94:Drivers/STM32F2xx_HAL_Driver/Src/stm32f2xx_hal_dma_ex.c ****   *              the configuration information for the specified DMA Stream.  
  95:Drivers/STM32F2xx_HAL_Driver/Src/stm32f2xx_hal_dma_ex.c ****   * @param  SrcAddress The source memory Buffer address
  96:Drivers/STM32F2xx_HAL_Driver/Src/stm32f2xx_hal_dma_ex.c ****   * @param  DstAddress The destination memory Buffer address
  97:Drivers/STM32F2xx_HAL_Driver/Src/stm32f2xx_hal_dma_ex.c ****   * @param  SecondMemAddress The second memory Buffer address in case of multi buffer Transfer  
  98:Drivers/STM32F2xx_HAL_Driver/Src/stm32f2xx_hal_dma_ex.c ****   * @param  DataLength The length of data to be transferred from source to destination
  99:Drivers/STM32F2xx_HAL_Driver/Src/stm32f2xx_hal_dma_ex.c ****   * @retval HAL status
 100:Drivers/STM32F2xx_HAL_Driver/Src/stm32f2xx_hal_dma_ex.c ****   */
 101:Drivers/STM32F2xx_HAL_Driver/Src/stm32f2xx_hal_dma_ex.c **** HAL_StatusTypeDef HAL_DMAEx_MultiBufferStart(DMA_HandleTypeDef *hdma, uint32_t SrcAddress, uint32_t
 102:Drivers/STM32F2xx_HAL_Driver/Src/stm32f2xx_hal_dma_ex.c **** {
 103:Drivers/STM32F2xx_HAL_Driver/Src/stm32f2xx_hal_dma_ex.c ****   HAL_StatusTypeDef status = HAL_OK;
 104:Drivers/STM32F2xx_HAL_Driver/Src/stm32f2xx_hal_dma_ex.c ****   
 105:Drivers/STM32F2xx_HAL_Driver/Src/stm32f2xx_hal_dma_ex.c ****   /* Check the parameters */
 106:Drivers/STM32F2xx_HAL_Driver/Src/stm32f2xx_hal_dma_ex.c ****   assert_param(IS_DMA_BUFFER_SIZE(DataLength));
 107:Drivers/STM32F2xx_HAL_Driver/Src/stm32f2xx_hal_dma_ex.c ****   
 108:Drivers/STM32F2xx_HAL_Driver/Src/stm32f2xx_hal_dma_ex.c ****   /* Memory-to-memory transfer not supported in double buffering mode */
 109:Drivers/STM32F2xx_HAL_Driver/Src/stm32f2xx_hal_dma_ex.c ****   if (hdma->Init.Direction == DMA_MEMORY_TO_MEMORY)
 110:Drivers/STM32F2xx_HAL_Driver/Src/stm32f2xx_hal_dma_ex.c ****   {
 111:Drivers/STM32F2xx_HAL_Driver/Src/stm32f2xx_hal_dma_ex.c ****     hdma->ErrorCode = HAL_DMA_ERROR_NOT_SUPPORTED;
 112:Drivers/STM32F2xx_HAL_Driver/Src/stm32f2xx_hal_dma_ex.c ****     status = HAL_ERROR;
 113:Drivers/STM32F2xx_HAL_Driver/Src/stm32f2xx_hal_dma_ex.c ****   }
 114:Drivers/STM32F2xx_HAL_Driver/Src/stm32f2xx_hal_dma_ex.c ****   else
 115:Drivers/STM32F2xx_HAL_Driver/Src/stm32f2xx_hal_dma_ex.c ****   {
 116:Drivers/STM32F2xx_HAL_Driver/Src/stm32f2xx_hal_dma_ex.c ****     /* Process Locked */
 117:Drivers/STM32F2xx_HAL_Driver/Src/stm32f2xx_hal_dma_ex.c ****     __HAL_LOCK(hdma);
 118:Drivers/STM32F2xx_HAL_Driver/Src/stm32f2xx_hal_dma_ex.c ****     
 119:Drivers/STM32F2xx_HAL_Driver/Src/stm32f2xx_hal_dma_ex.c ****     if(HAL_DMA_STATE_READY == hdma->State)
 120:Drivers/STM32F2xx_HAL_Driver/Src/stm32f2xx_hal_dma_ex.c ****     {
 121:Drivers/STM32F2xx_HAL_Driver/Src/stm32f2xx_hal_dma_ex.c ****       /* Change DMA peripheral state */
 122:Drivers/STM32F2xx_HAL_Driver/Src/stm32f2xx_hal_dma_ex.c ****       hdma->State = HAL_DMA_STATE_BUSY; 
 123:Drivers/STM32F2xx_HAL_Driver/Src/stm32f2xx_hal_dma_ex.c ****       
 124:Drivers/STM32F2xx_HAL_Driver/Src/stm32f2xx_hal_dma_ex.c ****       /* Enable the double buffer mode */
 125:Drivers/STM32F2xx_HAL_Driver/Src/stm32f2xx_hal_dma_ex.c ****       hdma->Instance->CR |= (uint32_t)DMA_SxCR_DBM;
 126:Drivers/STM32F2xx_HAL_Driver/Src/stm32f2xx_hal_dma_ex.c ****       
 127:Drivers/STM32F2xx_HAL_Driver/Src/stm32f2xx_hal_dma_ex.c ****       /* Configure DMA Stream destination address */
 128:Drivers/STM32F2xx_HAL_Driver/Src/stm32f2xx_hal_dma_ex.c ****       hdma->Instance->M1AR = SecondMemAddress;
 129:Drivers/STM32F2xx_HAL_Driver/Src/stm32f2xx_hal_dma_ex.c ****       
 130:Drivers/STM32F2xx_HAL_Driver/Src/stm32f2xx_hal_dma_ex.c ****       /* Configure the source, destination address and the data length */
 131:Drivers/STM32F2xx_HAL_Driver/Src/stm32f2xx_hal_dma_ex.c ****       DMA_MultiBufferSetConfig(hdma, SrcAddress, DstAddress, DataLength);
 132:Drivers/STM32F2xx_HAL_Driver/Src/stm32f2xx_hal_dma_ex.c ****       
 133:Drivers/STM32F2xx_HAL_Driver/Src/stm32f2xx_hal_dma_ex.c ****       /* Enable the peripheral */
 134:Drivers/STM32F2xx_HAL_Driver/Src/stm32f2xx_hal_dma_ex.c ****       __HAL_DMA_ENABLE(hdma);
 135:Drivers/STM32F2xx_HAL_Driver/Src/stm32f2xx_hal_dma_ex.c ****     }
 136:Drivers/STM32F2xx_HAL_Driver/Src/stm32f2xx_hal_dma_ex.c ****     else
 137:Drivers/STM32F2xx_HAL_Driver/Src/stm32f2xx_hal_dma_ex.c ****     {
 138:Drivers/STM32F2xx_HAL_Driver/Src/stm32f2xx_hal_dma_ex.c ****       /* Return error status */
 139:Drivers/STM32F2xx_HAL_Driver/Src/stm32f2xx_hal_dma_ex.c ****       status = HAL_BUSY;
 140:Drivers/STM32F2xx_HAL_Driver/Src/stm32f2xx_hal_dma_ex.c ****     }
 141:Drivers/STM32F2xx_HAL_Driver/Src/stm32f2xx_hal_dma_ex.c ****   }
 142:Drivers/STM32F2xx_HAL_Driver/Src/stm32f2xx_hal_dma_ex.c ****   return status;
 143:Drivers/STM32F2xx_HAL_Driver/Src/stm32f2xx_hal_dma_ex.c **** }
 144:Drivers/STM32F2xx_HAL_Driver/Src/stm32f2xx_hal_dma_ex.c **** 
 145:Drivers/STM32F2xx_HAL_Driver/Src/stm32f2xx_hal_dma_ex.c **** /**
 146:Drivers/STM32F2xx_HAL_Driver/Src/stm32f2xx_hal_dma_ex.c ****   * @brief  Starts the multi_buffer DMA Transfer with interrupt enabled.
ARM GAS  C:\Users\Artem\AppData\Local\Temp\cc9eXbmh.s 			page 4


 147:Drivers/STM32F2xx_HAL_Driver/Src/stm32f2xx_hal_dma_ex.c ****   * @param  hdma       pointer to a DMA_HandleTypeDef structure that contains
 148:Drivers/STM32F2xx_HAL_Driver/Src/stm32f2xx_hal_dma_ex.c ****   *                     the configuration information for the specified DMA Stream.  
 149:Drivers/STM32F2xx_HAL_Driver/Src/stm32f2xx_hal_dma_ex.c ****   * @param  SrcAddress The source memory Buffer address
 150:Drivers/STM32F2xx_HAL_Driver/Src/stm32f2xx_hal_dma_ex.c ****   * @param  DstAddress The destination memory Buffer address
 151:Drivers/STM32F2xx_HAL_Driver/Src/stm32f2xx_hal_dma_ex.c ****   * @param  SecondMemAddress The second memory Buffer address in case of multi buffer Transfer  
 152:Drivers/STM32F2xx_HAL_Driver/Src/stm32f2xx_hal_dma_ex.c ****   * @param  DataLength The length of data to be transferred from source to destination
 153:Drivers/STM32F2xx_HAL_Driver/Src/stm32f2xx_hal_dma_ex.c ****   * @retval HAL status
 154:Drivers/STM32F2xx_HAL_Driver/Src/stm32f2xx_hal_dma_ex.c ****   */
 155:Drivers/STM32F2xx_HAL_Driver/Src/stm32f2xx_hal_dma_ex.c **** HAL_StatusTypeDef HAL_DMAEx_MultiBufferStart_IT(DMA_HandleTypeDef *hdma, uint32_t SrcAddress, uint3
 156:Drivers/STM32F2xx_HAL_Driver/Src/stm32f2xx_hal_dma_ex.c **** {
 157:Drivers/STM32F2xx_HAL_Driver/Src/stm32f2xx_hal_dma_ex.c ****   HAL_StatusTypeDef status = HAL_OK;
 158:Drivers/STM32F2xx_HAL_Driver/Src/stm32f2xx_hal_dma_ex.c ****   
 159:Drivers/STM32F2xx_HAL_Driver/Src/stm32f2xx_hal_dma_ex.c ****   /* Check the parameters */
 160:Drivers/STM32F2xx_HAL_Driver/Src/stm32f2xx_hal_dma_ex.c ****   assert_param(IS_DMA_BUFFER_SIZE(DataLength));
 161:Drivers/STM32F2xx_HAL_Driver/Src/stm32f2xx_hal_dma_ex.c ****   
 162:Drivers/STM32F2xx_HAL_Driver/Src/stm32f2xx_hal_dma_ex.c ****   /* Memory-to-memory transfer not supported in double buffering mode */
 163:Drivers/STM32F2xx_HAL_Driver/Src/stm32f2xx_hal_dma_ex.c ****   if (hdma->Init.Direction == DMA_MEMORY_TO_MEMORY)
 164:Drivers/STM32F2xx_HAL_Driver/Src/stm32f2xx_hal_dma_ex.c ****   {
 165:Drivers/STM32F2xx_HAL_Driver/Src/stm32f2xx_hal_dma_ex.c ****     hdma->ErrorCode = HAL_DMA_ERROR_NOT_SUPPORTED;
 166:Drivers/STM32F2xx_HAL_Driver/Src/stm32f2xx_hal_dma_ex.c ****     return HAL_ERROR;
 167:Drivers/STM32F2xx_HAL_Driver/Src/stm32f2xx_hal_dma_ex.c ****   }
 168:Drivers/STM32F2xx_HAL_Driver/Src/stm32f2xx_hal_dma_ex.c ****   
 169:Drivers/STM32F2xx_HAL_Driver/Src/stm32f2xx_hal_dma_ex.c ****   /* Check callback functions */
 170:Drivers/STM32F2xx_HAL_Driver/Src/stm32f2xx_hal_dma_ex.c ****   if ((NULL == hdma->XferCpltCallback) || (NULL == hdma->XferM1CpltCallback) || (NULL == hdma->Xfer
 171:Drivers/STM32F2xx_HAL_Driver/Src/stm32f2xx_hal_dma_ex.c ****   {
 172:Drivers/STM32F2xx_HAL_Driver/Src/stm32f2xx_hal_dma_ex.c ****     hdma->ErrorCode = HAL_DMA_ERROR_PARAM;
 173:Drivers/STM32F2xx_HAL_Driver/Src/stm32f2xx_hal_dma_ex.c ****     return HAL_ERROR;
 174:Drivers/STM32F2xx_HAL_Driver/Src/stm32f2xx_hal_dma_ex.c ****   }
 175:Drivers/STM32F2xx_HAL_Driver/Src/stm32f2xx_hal_dma_ex.c ****   
 176:Drivers/STM32F2xx_HAL_Driver/Src/stm32f2xx_hal_dma_ex.c ****   /* Process locked */
 177:Drivers/STM32F2xx_HAL_Driver/Src/stm32f2xx_hal_dma_ex.c ****   __HAL_LOCK(hdma);
 178:Drivers/STM32F2xx_HAL_Driver/Src/stm32f2xx_hal_dma_ex.c ****   
 179:Drivers/STM32F2xx_HAL_Driver/Src/stm32f2xx_hal_dma_ex.c ****   if(HAL_DMA_STATE_READY == hdma->State)
 180:Drivers/STM32F2xx_HAL_Driver/Src/stm32f2xx_hal_dma_ex.c ****   {
 181:Drivers/STM32F2xx_HAL_Driver/Src/stm32f2xx_hal_dma_ex.c ****     /* Change DMA peripheral state */
 182:Drivers/STM32F2xx_HAL_Driver/Src/stm32f2xx_hal_dma_ex.c ****     hdma->State = HAL_DMA_STATE_BUSY;
 183:Drivers/STM32F2xx_HAL_Driver/Src/stm32f2xx_hal_dma_ex.c ****     
 184:Drivers/STM32F2xx_HAL_Driver/Src/stm32f2xx_hal_dma_ex.c ****     /* Initialize the error code */
 185:Drivers/STM32F2xx_HAL_Driver/Src/stm32f2xx_hal_dma_ex.c ****     hdma->ErrorCode = HAL_DMA_ERROR_NONE;
 186:Drivers/STM32F2xx_HAL_Driver/Src/stm32f2xx_hal_dma_ex.c ****     
 187:Drivers/STM32F2xx_HAL_Driver/Src/stm32f2xx_hal_dma_ex.c ****     /* Enable the Double buffer mode */
 188:Drivers/STM32F2xx_HAL_Driver/Src/stm32f2xx_hal_dma_ex.c ****     hdma->Instance->CR |= (uint32_t)DMA_SxCR_DBM;
 189:Drivers/STM32F2xx_HAL_Driver/Src/stm32f2xx_hal_dma_ex.c ****     
 190:Drivers/STM32F2xx_HAL_Driver/Src/stm32f2xx_hal_dma_ex.c ****     /* Configure DMA Stream destination address */
 191:Drivers/STM32F2xx_HAL_Driver/Src/stm32f2xx_hal_dma_ex.c ****     hdma->Instance->M1AR = SecondMemAddress;
 192:Drivers/STM32F2xx_HAL_Driver/Src/stm32f2xx_hal_dma_ex.c ****     
 193:Drivers/STM32F2xx_HAL_Driver/Src/stm32f2xx_hal_dma_ex.c ****     /* Configure the source, destination address and the data length */
 194:Drivers/STM32F2xx_HAL_Driver/Src/stm32f2xx_hal_dma_ex.c ****     DMA_MultiBufferSetConfig(hdma, SrcAddress, DstAddress, DataLength); 
 195:Drivers/STM32F2xx_HAL_Driver/Src/stm32f2xx_hal_dma_ex.c ****     
 196:Drivers/STM32F2xx_HAL_Driver/Src/stm32f2xx_hal_dma_ex.c ****     /* Clear all flags */
 197:Drivers/STM32F2xx_HAL_Driver/Src/stm32f2xx_hal_dma_ex.c ****     __HAL_DMA_CLEAR_FLAG (hdma, __HAL_DMA_GET_TC_FLAG_INDEX(hdma));
 198:Drivers/STM32F2xx_HAL_Driver/Src/stm32f2xx_hal_dma_ex.c ****     __HAL_DMA_CLEAR_FLAG (hdma, __HAL_DMA_GET_HT_FLAG_INDEX(hdma));
 199:Drivers/STM32F2xx_HAL_Driver/Src/stm32f2xx_hal_dma_ex.c ****     __HAL_DMA_CLEAR_FLAG (hdma, __HAL_DMA_GET_TE_FLAG_INDEX(hdma));
 200:Drivers/STM32F2xx_HAL_Driver/Src/stm32f2xx_hal_dma_ex.c ****     __HAL_DMA_CLEAR_FLAG (hdma, __HAL_DMA_GET_DME_FLAG_INDEX(hdma));
 201:Drivers/STM32F2xx_HAL_Driver/Src/stm32f2xx_hal_dma_ex.c ****     __HAL_DMA_CLEAR_FLAG (hdma, __HAL_DMA_GET_FE_FLAG_INDEX(hdma));
 202:Drivers/STM32F2xx_HAL_Driver/Src/stm32f2xx_hal_dma_ex.c **** 
 203:Drivers/STM32F2xx_HAL_Driver/Src/stm32f2xx_hal_dma_ex.c ****     /* Enable Common interrupts*/
ARM GAS  C:\Users\Artem\AppData\Local\Temp\cc9eXbmh.s 			page 5


 204:Drivers/STM32F2xx_HAL_Driver/Src/stm32f2xx_hal_dma_ex.c ****     hdma->Instance->CR  |= DMA_IT_TC | DMA_IT_TE | DMA_IT_DME;
 205:Drivers/STM32F2xx_HAL_Driver/Src/stm32f2xx_hal_dma_ex.c ****     hdma->Instance->FCR |= DMA_IT_FE;
 206:Drivers/STM32F2xx_HAL_Driver/Src/stm32f2xx_hal_dma_ex.c ****     
 207:Drivers/STM32F2xx_HAL_Driver/Src/stm32f2xx_hal_dma_ex.c ****     if((hdma->XferHalfCpltCallback != NULL) || (hdma->XferM1HalfCpltCallback != NULL))
 208:Drivers/STM32F2xx_HAL_Driver/Src/stm32f2xx_hal_dma_ex.c ****     {
 209:Drivers/STM32F2xx_HAL_Driver/Src/stm32f2xx_hal_dma_ex.c ****       hdma->Instance->CR  |= DMA_IT_HT;
 210:Drivers/STM32F2xx_HAL_Driver/Src/stm32f2xx_hal_dma_ex.c ****     }
 211:Drivers/STM32F2xx_HAL_Driver/Src/stm32f2xx_hal_dma_ex.c ****     
 212:Drivers/STM32F2xx_HAL_Driver/Src/stm32f2xx_hal_dma_ex.c ****     /* Enable the peripheral */
 213:Drivers/STM32F2xx_HAL_Driver/Src/stm32f2xx_hal_dma_ex.c ****     __HAL_DMA_ENABLE(hdma); 
 214:Drivers/STM32F2xx_HAL_Driver/Src/stm32f2xx_hal_dma_ex.c ****   }
 215:Drivers/STM32F2xx_HAL_Driver/Src/stm32f2xx_hal_dma_ex.c ****   else
 216:Drivers/STM32F2xx_HAL_Driver/Src/stm32f2xx_hal_dma_ex.c ****   {     
 217:Drivers/STM32F2xx_HAL_Driver/Src/stm32f2xx_hal_dma_ex.c ****     /* Process unlocked */
 218:Drivers/STM32F2xx_HAL_Driver/Src/stm32f2xx_hal_dma_ex.c ****     __HAL_UNLOCK(hdma);	  
 219:Drivers/STM32F2xx_HAL_Driver/Src/stm32f2xx_hal_dma_ex.c ****     
 220:Drivers/STM32F2xx_HAL_Driver/Src/stm32f2xx_hal_dma_ex.c ****     /* Return error status */
 221:Drivers/STM32F2xx_HAL_Driver/Src/stm32f2xx_hal_dma_ex.c ****     status = HAL_BUSY;
 222:Drivers/STM32F2xx_HAL_Driver/Src/stm32f2xx_hal_dma_ex.c ****   }  
 223:Drivers/STM32F2xx_HAL_Driver/Src/stm32f2xx_hal_dma_ex.c ****   return status; 
 224:Drivers/STM32F2xx_HAL_Driver/Src/stm32f2xx_hal_dma_ex.c **** }
 225:Drivers/STM32F2xx_HAL_Driver/Src/stm32f2xx_hal_dma_ex.c **** 
 226:Drivers/STM32F2xx_HAL_Driver/Src/stm32f2xx_hal_dma_ex.c **** /**
 227:Drivers/STM32F2xx_HAL_Driver/Src/stm32f2xx_hal_dma_ex.c ****   * @brief  Change the memory0 or memory1 address on the fly.
 228:Drivers/STM32F2xx_HAL_Driver/Src/stm32f2xx_hal_dma_ex.c ****   * @param  hdma       pointer to a DMA_HandleTypeDef structure that contains
 229:Drivers/STM32F2xx_HAL_Driver/Src/stm32f2xx_hal_dma_ex.c ****   *                     the configuration information for the specified DMA Stream.  
 230:Drivers/STM32F2xx_HAL_Driver/Src/stm32f2xx_hal_dma_ex.c ****   * @param  Address    The new address
 231:Drivers/STM32F2xx_HAL_Driver/Src/stm32f2xx_hal_dma_ex.c ****   * @param  memory     the memory to be changed, This parameter can be one of 
 232:Drivers/STM32F2xx_HAL_Driver/Src/stm32f2xx_hal_dma_ex.c ****   *                     the following values:
 233:Drivers/STM32F2xx_HAL_Driver/Src/stm32f2xx_hal_dma_ex.c ****   *                      MEMORY0 /
 234:Drivers/STM32F2xx_HAL_Driver/Src/stm32f2xx_hal_dma_ex.c ****   *                      MEMORY1
 235:Drivers/STM32F2xx_HAL_Driver/Src/stm32f2xx_hal_dma_ex.c ****   * @note   The MEMORY0 address can be changed only when the current transfer use
 236:Drivers/STM32F2xx_HAL_Driver/Src/stm32f2xx_hal_dma_ex.c ****   *         MEMORY1 and the MEMORY1 address can be changed only when the current 
 237:Drivers/STM32F2xx_HAL_Driver/Src/stm32f2xx_hal_dma_ex.c ****   *         transfer use MEMORY0.
 238:Drivers/STM32F2xx_HAL_Driver/Src/stm32f2xx_hal_dma_ex.c ****   * @retval HAL status
 239:Drivers/STM32F2xx_HAL_Driver/Src/stm32f2xx_hal_dma_ex.c ****   */
 240:Drivers/STM32F2xx_HAL_Driver/Src/stm32f2xx_hal_dma_ex.c **** HAL_StatusTypeDef HAL_DMAEx_ChangeMemory(DMA_HandleTypeDef *hdma, uint32_t Address, HAL_DMA_MemoryT
 241:Drivers/STM32F2xx_HAL_Driver/Src/stm32f2xx_hal_dma_ex.c **** {
 242:Drivers/STM32F2xx_HAL_Driver/Src/stm32f2xx_hal_dma_ex.c ****   if(memory == MEMORY0)
 243:Drivers/STM32F2xx_HAL_Driver/Src/stm32f2xx_hal_dma_ex.c ****   {
 244:Drivers/STM32F2xx_HAL_Driver/Src/stm32f2xx_hal_dma_ex.c ****     /* change the memory0 address */
 245:Drivers/STM32F2xx_HAL_Driver/Src/stm32f2xx_hal_dma_ex.c ****     hdma->Instance->M0AR = Address;
 246:Drivers/STM32F2xx_HAL_Driver/Src/stm32f2xx_hal_dma_ex.c ****   }
 247:Drivers/STM32F2xx_HAL_Driver/Src/stm32f2xx_hal_dma_ex.c ****   else
 248:Drivers/STM32F2xx_HAL_Driver/Src/stm32f2xx_hal_dma_ex.c ****   {
 249:Drivers/STM32F2xx_HAL_Driver/Src/stm32f2xx_hal_dma_ex.c ****     /* change the memory1 address */
 250:Drivers/STM32F2xx_HAL_Driver/Src/stm32f2xx_hal_dma_ex.c ****     hdma->Instance->M1AR = Address;
 251:Drivers/STM32F2xx_HAL_Driver/Src/stm32f2xx_hal_dma_ex.c ****   }
 252:Drivers/STM32F2xx_HAL_Driver/Src/stm32f2xx_hal_dma_ex.c **** 
 253:Drivers/STM32F2xx_HAL_Driver/Src/stm32f2xx_hal_dma_ex.c ****   return HAL_OK;
 254:Drivers/STM32F2xx_HAL_Driver/Src/stm32f2xx_hal_dma_ex.c **** }
 255:Drivers/STM32F2xx_HAL_Driver/Src/stm32f2xx_hal_dma_ex.c **** 
 256:Drivers/STM32F2xx_HAL_Driver/Src/stm32f2xx_hal_dma_ex.c **** /**
 257:Drivers/STM32F2xx_HAL_Driver/Src/stm32f2xx_hal_dma_ex.c ****   * @}
 258:Drivers/STM32F2xx_HAL_Driver/Src/stm32f2xx_hal_dma_ex.c ****   */
 259:Drivers/STM32F2xx_HAL_Driver/Src/stm32f2xx_hal_dma_ex.c **** 
 260:Drivers/STM32F2xx_HAL_Driver/Src/stm32f2xx_hal_dma_ex.c **** /**
ARM GAS  C:\Users\Artem\AppData\Local\Temp\cc9eXbmh.s 			page 6


 261:Drivers/STM32F2xx_HAL_Driver/Src/stm32f2xx_hal_dma_ex.c ****   * @}
 262:Drivers/STM32F2xx_HAL_Driver/Src/stm32f2xx_hal_dma_ex.c ****   */
 263:Drivers/STM32F2xx_HAL_Driver/Src/stm32f2xx_hal_dma_ex.c **** 
 264:Drivers/STM32F2xx_HAL_Driver/Src/stm32f2xx_hal_dma_ex.c **** /** @addtogroup DMAEx_Private_Functions
 265:Drivers/STM32F2xx_HAL_Driver/Src/stm32f2xx_hal_dma_ex.c ****   * @{
 266:Drivers/STM32F2xx_HAL_Driver/Src/stm32f2xx_hal_dma_ex.c ****   */
 267:Drivers/STM32F2xx_HAL_Driver/Src/stm32f2xx_hal_dma_ex.c **** 
 268:Drivers/STM32F2xx_HAL_Driver/Src/stm32f2xx_hal_dma_ex.c **** /**
 269:Drivers/STM32F2xx_HAL_Driver/Src/stm32f2xx_hal_dma_ex.c ****   * @brief  Set the DMA Transfer parameter.
 270:Drivers/STM32F2xx_HAL_Driver/Src/stm32f2xx_hal_dma_ex.c ****   * @param  hdma       pointer to a DMA_HandleTypeDef structure that contains
 271:Drivers/STM32F2xx_HAL_Driver/Src/stm32f2xx_hal_dma_ex.c ****   *                     the configuration information for the specified DMA Stream.  
 272:Drivers/STM32F2xx_HAL_Driver/Src/stm32f2xx_hal_dma_ex.c ****   * @param  SrcAddress The source memory Buffer address
 273:Drivers/STM32F2xx_HAL_Driver/Src/stm32f2xx_hal_dma_ex.c ****   * @param  DstAddress The destination memory Buffer address
 274:Drivers/STM32F2xx_HAL_Driver/Src/stm32f2xx_hal_dma_ex.c ****   * @param  DataLength The length of data to be transferred from source to destination
 275:Drivers/STM32F2xx_HAL_Driver/Src/stm32f2xx_hal_dma_ex.c ****   * @retval HAL status
 276:Drivers/STM32F2xx_HAL_Driver/Src/stm32f2xx_hal_dma_ex.c ****   */
 277:Drivers/STM32F2xx_HAL_Driver/Src/stm32f2xx_hal_dma_ex.c **** static void DMA_MultiBufferSetConfig(DMA_HandleTypeDef *hdma, uint32_t SrcAddress, uint32_t DstAddr
 278:Drivers/STM32F2xx_HAL_Driver/Src/stm32f2xx_hal_dma_ex.c **** {  
  27              		.loc 1 278 1 view -0
  28              		.cfi_startproc
  29              		@ args = 0, pretend = 0, frame = 0
  30              		@ frame_needed = 0, uses_anonymous_args = 0
  31              		@ link register save eliminated.
 279:Drivers/STM32F2xx_HAL_Driver/Src/stm32f2xx_hal_dma_ex.c ****   /* Configure DMA Stream data length */
 280:Drivers/STM32F2xx_HAL_Driver/Src/stm32f2xx_hal_dma_ex.c ****   hdma->Instance->NDTR = DataLength;
  32              		.loc 1 280 3 view .LVU1
  33              		.loc 1 280 24 is_stmt 0 view .LVU2
  34 0000 D0F800C0 		ldr	ip, [r0]
  35 0004 CCF80430 		str	r3, [ip, #4]
 281:Drivers/STM32F2xx_HAL_Driver/Src/stm32f2xx_hal_dma_ex.c ****   
 282:Drivers/STM32F2xx_HAL_Driver/Src/stm32f2xx_hal_dma_ex.c ****   /* Peripheral to Memory */
 283:Drivers/STM32F2xx_HAL_Driver/Src/stm32f2xx_hal_dma_ex.c ****   if((hdma->Init.Direction) == DMA_MEMORY_TO_PERIPH)
  36              		.loc 1 283 3 is_stmt 1 view .LVU3
  37              		.loc 1 283 17 is_stmt 0 view .LVU4
  38 0008 8368     		ldr	r3, [r0, #8]
  39              	.LVL1:
  40              		.loc 1 283 5 view .LVU5
  41 000a 402B     		cmp	r3, #64
  42 000c 04D0     		beq	.L4
 284:Drivers/STM32F2xx_HAL_Driver/Src/stm32f2xx_hal_dma_ex.c ****   {   
 285:Drivers/STM32F2xx_HAL_Driver/Src/stm32f2xx_hal_dma_ex.c ****     /* Configure DMA Stream destination address */
 286:Drivers/STM32F2xx_HAL_Driver/Src/stm32f2xx_hal_dma_ex.c ****     hdma->Instance->PAR = DstAddress;
 287:Drivers/STM32F2xx_HAL_Driver/Src/stm32f2xx_hal_dma_ex.c ****     
 288:Drivers/STM32F2xx_HAL_Driver/Src/stm32f2xx_hal_dma_ex.c ****     /* Configure DMA Stream source address */
 289:Drivers/STM32F2xx_HAL_Driver/Src/stm32f2xx_hal_dma_ex.c ****     hdma->Instance->M0AR = SrcAddress;
 290:Drivers/STM32F2xx_HAL_Driver/Src/stm32f2xx_hal_dma_ex.c ****   }
 291:Drivers/STM32F2xx_HAL_Driver/Src/stm32f2xx_hal_dma_ex.c ****   /* Memory to Peripheral */
 292:Drivers/STM32F2xx_HAL_Driver/Src/stm32f2xx_hal_dma_ex.c ****   else
 293:Drivers/STM32F2xx_HAL_Driver/Src/stm32f2xx_hal_dma_ex.c ****   {
 294:Drivers/STM32F2xx_HAL_Driver/Src/stm32f2xx_hal_dma_ex.c ****     /* Configure DMA Stream source address */
 295:Drivers/STM32F2xx_HAL_Driver/Src/stm32f2xx_hal_dma_ex.c ****     hdma->Instance->PAR = SrcAddress;
  43              		.loc 1 295 5 is_stmt 1 view .LVU6
  44              		.loc 1 295 9 is_stmt 0 view .LVU7
  45 000e 0368     		ldr	r3, [r0]
  46              		.loc 1 295 25 view .LVU8
  47 0010 9960     		str	r1, [r3, #8]
  48              	.LVL2:
ARM GAS  C:\Users\Artem\AppData\Local\Temp\cc9eXbmh.s 			page 7


 296:Drivers/STM32F2xx_HAL_Driver/Src/stm32f2xx_hal_dma_ex.c ****     
 297:Drivers/STM32F2xx_HAL_Driver/Src/stm32f2xx_hal_dma_ex.c ****     /* Configure DMA Stream destination address */
 298:Drivers/STM32F2xx_HAL_Driver/Src/stm32f2xx_hal_dma_ex.c ****     hdma->Instance->M0AR = DstAddress;
  49              		.loc 1 298 5 is_stmt 1 view .LVU9
  50              		.loc 1 298 9 is_stmt 0 view .LVU10
  51 0012 0368     		ldr	r3, [r0]
  52              		.loc 1 298 26 view .LVU11
  53 0014 DA60     		str	r2, [r3, #12]
 299:Drivers/STM32F2xx_HAL_Driver/Src/stm32f2xx_hal_dma_ex.c ****   }
 300:Drivers/STM32F2xx_HAL_Driver/Src/stm32f2xx_hal_dma_ex.c **** }
  54              		.loc 1 300 1 view .LVU12
  55 0016 7047     		bx	lr
  56              	.LVL3:
  57              	.L4:
 286:Drivers/STM32F2xx_HAL_Driver/Src/stm32f2xx_hal_dma_ex.c ****     
  58              		.loc 1 286 5 is_stmt 1 view .LVU13
 286:Drivers/STM32F2xx_HAL_Driver/Src/stm32f2xx_hal_dma_ex.c ****     
  59              		.loc 1 286 9 is_stmt 0 view .LVU14
  60 0018 0368     		ldr	r3, [r0]
 286:Drivers/STM32F2xx_HAL_Driver/Src/stm32f2xx_hal_dma_ex.c ****     
  61              		.loc 1 286 25 view .LVU15
  62 001a 9A60     		str	r2, [r3, #8]
  63              	.LVL4:
 289:Drivers/STM32F2xx_HAL_Driver/Src/stm32f2xx_hal_dma_ex.c ****   }
  64              		.loc 1 289 5 is_stmt 1 view .LVU16
 289:Drivers/STM32F2xx_HAL_Driver/Src/stm32f2xx_hal_dma_ex.c ****   }
  65              		.loc 1 289 9 is_stmt 0 view .LVU17
  66 001c 0368     		ldr	r3, [r0]
 289:Drivers/STM32F2xx_HAL_Driver/Src/stm32f2xx_hal_dma_ex.c ****   }
  67              		.loc 1 289 26 view .LVU18
  68 001e D960     		str	r1, [r3, #12]
  69 0020 7047     		bx	lr
  70              		.cfi_endproc
  71              	.LFE75:
  73              		.section	.text.HAL_DMAEx_MultiBufferStart,"ax",%progbits
  74              		.align	1
  75              		.global	HAL_DMAEx_MultiBufferStart
  76              		.syntax unified
  77              		.thumb
  78              		.thumb_func
  80              	HAL_DMAEx_MultiBufferStart:
  81              	.LVL5:
  82              	.LFB72:
 102:Drivers/STM32F2xx_HAL_Driver/Src/stm32f2xx_hal_dma_ex.c ****   HAL_StatusTypeDef status = HAL_OK;
  83              		.loc 1 102 1 is_stmt 1 view -0
  84              		.cfi_startproc
  85              		@ args = 4, pretend = 0, frame = 0
  86              		@ frame_needed = 0, uses_anonymous_args = 0
 102:Drivers/STM32F2xx_HAL_Driver/Src/stm32f2xx_hal_dma_ex.c ****   HAL_StatusTypeDef status = HAL_OK;
  87              		.loc 1 102 1 is_stmt 0 view .LVU20
  88 0000 38B5     		push	{r3, r4, r5, lr}
  89              	.LCFI0:
  90              		.cfi_def_cfa_offset 16
  91              		.cfi_offset 3, -16
  92              		.cfi_offset 4, -12
  93              		.cfi_offset 5, -8
  94              		.cfi_offset 14, -4
ARM GAS  C:\Users\Artem\AppData\Local\Temp\cc9eXbmh.s 			page 8


  95 0002 0446     		mov	r4, r0
 103:Drivers/STM32F2xx_HAL_Driver/Src/stm32f2xx_hal_dma_ex.c ****   
  96              		.loc 1 103 3 is_stmt 1 view .LVU21
  97              	.LVL6:
 106:Drivers/STM32F2xx_HAL_Driver/Src/stm32f2xx_hal_dma_ex.c ****   
  98              		.loc 1 106 3 view .LVU22
 109:Drivers/STM32F2xx_HAL_Driver/Src/stm32f2xx_hal_dma_ex.c ****   {
  99              		.loc 1 109 3 view .LVU23
 109:Drivers/STM32F2xx_HAL_Driver/Src/stm32f2xx_hal_dma_ex.c ****   {
 100              		.loc 1 109 17 is_stmt 0 view .LVU24
 101 0004 8068     		ldr	r0, [r0, #8]
 102              	.LVL7:
 109:Drivers/STM32F2xx_HAL_Driver/Src/stm32f2xx_hal_dma_ex.c ****   {
 103              		.loc 1 109 6 view .LVU25
 104 0006 8028     		cmp	r0, #128
 105 0008 0DD0     		beq	.L11
 117:Drivers/STM32F2xx_HAL_Driver/Src/stm32f2xx_hal_dma_ex.c ****     
 106              		.loc 1 117 5 is_stmt 1 view .LVU26
 117:Drivers/STM32F2xx_HAL_Driver/Src/stm32f2xx_hal_dma_ex.c ****     
 107              		.loc 1 117 5 view .LVU27
 108 000a 94F83400 		ldrb	r0, [r4, #52]	@ zero_extendqisi2
 109 000e 0128     		cmp	r0, #1
 110 0010 23D0     		beq	.L8
 117:Drivers/STM32F2xx_HAL_Driver/Src/stm32f2xx_hal_dma_ex.c ****     
 111              		.loc 1 117 5 discriminator 2 view .LVU28
 112 0012 0120     		movs	r0, #1
 113 0014 84F83400 		strb	r0, [r4, #52]
 117:Drivers/STM32F2xx_HAL_Driver/Src/stm32f2xx_hal_dma_ex.c ****     
 114              		.loc 1 117 5 discriminator 2 view .LVU29
 119:Drivers/STM32F2xx_HAL_Driver/Src/stm32f2xx_hal_dma_ex.c ****     {
 115              		.loc 1 119 5 discriminator 2 view .LVU30
 119:Drivers/STM32F2xx_HAL_Driver/Src/stm32f2xx_hal_dma_ex.c ****     {
 116              		.loc 1 119 35 is_stmt 0 discriminator 2 view .LVU31
 117 0018 94F83500 		ldrb	r0, [r4, #53]	@ zero_extendqisi2
 118 001c C0B2     		uxtb	r0, r0
 119:Drivers/STM32F2xx_HAL_Driver/Src/stm32f2xx_hal_dma_ex.c ****     {
 119              		.loc 1 119 7 discriminator 2 view .LVU32
 120 001e 0128     		cmp	r0, #1
 121 0020 06D0     		beq	.L12
 139:Drivers/STM32F2xx_HAL_Driver/Src/stm32f2xx_hal_dma_ex.c ****     }
 122              		.loc 1 139 14 view .LVU33
 123 0022 0220     		movs	r0, #2
 124              	.LVL8:
 125              	.L7:
 143:Drivers/STM32F2xx_HAL_Driver/Src/stm32f2xx_hal_dma_ex.c **** 
 126              		.loc 1 143 1 view .LVU34
 127 0024 38BD     		pop	{r3, r4, r5, pc}
 128              	.LVL9:
 129              	.L11:
 111:Drivers/STM32F2xx_HAL_Driver/Src/stm32f2xx_hal_dma_ex.c ****     status = HAL_ERROR;
 130              		.loc 1 111 5 is_stmt 1 view .LVU35
 111:Drivers/STM32F2xx_HAL_Driver/Src/stm32f2xx_hal_dma_ex.c ****     status = HAL_ERROR;
 131              		.loc 1 111 21 is_stmt 0 view .LVU36
 132 0026 4FF48073 		mov	r3, #256
 133              	.LVL10:
 111:Drivers/STM32F2xx_HAL_Driver/Src/stm32f2xx_hal_dma_ex.c ****     status = HAL_ERROR;
 134              		.loc 1 111 21 view .LVU37
ARM GAS  C:\Users\Artem\AppData\Local\Temp\cc9eXbmh.s 			page 9


 135 002a 6365     		str	r3, [r4, #84]
 112:Drivers/STM32F2xx_HAL_Driver/Src/stm32f2xx_hal_dma_ex.c ****   }
 136              		.loc 1 112 5 is_stmt 1 view .LVU38
 137              	.LVL11:
 112:Drivers/STM32F2xx_HAL_Driver/Src/stm32f2xx_hal_dma_ex.c ****   }
 138              		.loc 1 112 12 is_stmt 0 view .LVU39
 139 002c 0120     		movs	r0, #1
 140 002e F9E7     		b	.L7
 141              	.LVL12:
 142              	.L12:
 122:Drivers/STM32F2xx_HAL_Driver/Src/stm32f2xx_hal_dma_ex.c ****       
 143              		.loc 1 122 7 is_stmt 1 view .LVU40
 122:Drivers/STM32F2xx_HAL_Driver/Src/stm32f2xx_hal_dma_ex.c ****       
 144              		.loc 1 122 19 is_stmt 0 view .LVU41
 145 0030 0220     		movs	r0, #2
 146 0032 84F83500 		strb	r0, [r4, #53]
 125:Drivers/STM32F2xx_HAL_Driver/Src/stm32f2xx_hal_dma_ex.c ****       
 147              		.loc 1 125 7 is_stmt 1 view .LVU42
 125:Drivers/STM32F2xx_HAL_Driver/Src/stm32f2xx_hal_dma_ex.c ****       
 148              		.loc 1 125 11 is_stmt 0 view .LVU43
 149 0036 2568     		ldr	r5, [r4]
 125:Drivers/STM32F2xx_HAL_Driver/Src/stm32f2xx_hal_dma_ex.c ****       
 150              		.loc 1 125 26 view .LVU44
 151 0038 2868     		ldr	r0, [r5]
 152 003a 40F48020 		orr	r0, r0, #262144
 153 003e 2860     		str	r0, [r5]
 128:Drivers/STM32F2xx_HAL_Driver/Src/stm32f2xx_hal_dma_ex.c ****       
 154              		.loc 1 128 7 is_stmt 1 view .LVU45
 128:Drivers/STM32F2xx_HAL_Driver/Src/stm32f2xx_hal_dma_ex.c ****       
 155              		.loc 1 128 11 is_stmt 0 view .LVU46
 156 0040 2068     		ldr	r0, [r4]
 128:Drivers/STM32F2xx_HAL_Driver/Src/stm32f2xx_hal_dma_ex.c ****       
 157              		.loc 1 128 28 view .LVU47
 158 0042 0361     		str	r3, [r0, #16]
 131:Drivers/STM32F2xx_HAL_Driver/Src/stm32f2xx_hal_dma_ex.c ****       
 159              		.loc 1 131 7 is_stmt 1 view .LVU48
 160 0044 049B     		ldr	r3, [sp, #16]
 161              	.LVL13:
 131:Drivers/STM32F2xx_HAL_Driver/Src/stm32f2xx_hal_dma_ex.c ****       
 162              		.loc 1 131 7 is_stmt 0 view .LVU49
 163 0046 2046     		mov	r0, r4
 164              	.LVL14:
 131:Drivers/STM32F2xx_HAL_Driver/Src/stm32f2xx_hal_dma_ex.c ****       
 165              		.loc 1 131 7 view .LVU50
 166 0048 FFF7FEFF 		bl	DMA_MultiBufferSetConfig
 167              	.LVL15:
 134:Drivers/STM32F2xx_HAL_Driver/Src/stm32f2xx_hal_dma_ex.c ****     }
 168              		.loc 1 134 7 is_stmt 1 view .LVU51
 169 004c 2268     		ldr	r2, [r4]
 170 004e 1368     		ldr	r3, [r2]
 171 0050 43F00103 		orr	r3, r3, #1
 172 0054 1360     		str	r3, [r2]
 103:Drivers/STM32F2xx_HAL_Driver/Src/stm32f2xx_hal_dma_ex.c ****   
 173              		.loc 1 103 21 is_stmt 0 view .LVU52
 174 0056 0020     		movs	r0, #0
 175 0058 E4E7     		b	.L7
 176              	.LVL16:
ARM GAS  C:\Users\Artem\AppData\Local\Temp\cc9eXbmh.s 			page 10


 177              	.L8:
 117:Drivers/STM32F2xx_HAL_Driver/Src/stm32f2xx_hal_dma_ex.c ****     
 178              		.loc 1 117 5 view .LVU53
 179 005a 0220     		movs	r0, #2
 180 005c E2E7     		b	.L7
 181              		.cfi_endproc
 182              	.LFE72:
 184              		.section	.text.HAL_DMAEx_MultiBufferStart_IT,"ax",%progbits
 185              		.align	1
 186              		.global	HAL_DMAEx_MultiBufferStart_IT
 187              		.syntax unified
 188              		.thumb
 189              		.thumb_func
 191              	HAL_DMAEx_MultiBufferStart_IT:
 192              	.LVL17:
 193              	.LFB73:
 156:Drivers/STM32F2xx_HAL_Driver/Src/stm32f2xx_hal_dma_ex.c ****   HAL_StatusTypeDef status = HAL_OK;
 194              		.loc 1 156 1 is_stmt 1 view -0
 195              		.cfi_startproc
 196              		@ args = 4, pretend = 0, frame = 0
 197              		@ frame_needed = 0, uses_anonymous_args = 0
 156:Drivers/STM32F2xx_HAL_Driver/Src/stm32f2xx_hal_dma_ex.c ****   HAL_StatusTypeDef status = HAL_OK;
 198              		.loc 1 156 1 is_stmt 0 view .LVU55
 199 0000 38B5     		push	{r3, r4, r5, lr}
 200              	.LCFI1:
 201              		.cfi_def_cfa_offset 16
 202              		.cfi_offset 3, -16
 203              		.cfi_offset 4, -12
 204              		.cfi_offset 5, -8
 205              		.cfi_offset 14, -4
 206 0002 0446     		mov	r4, r0
 157:Drivers/STM32F2xx_HAL_Driver/Src/stm32f2xx_hal_dma_ex.c ****   
 207              		.loc 1 157 3 is_stmt 1 view .LVU56
 208              	.LVL18:
 160:Drivers/STM32F2xx_HAL_Driver/Src/stm32f2xx_hal_dma_ex.c ****   
 209              		.loc 1 160 3 view .LVU57
 163:Drivers/STM32F2xx_HAL_Driver/Src/stm32f2xx_hal_dma_ex.c ****   {
 210              		.loc 1 163 3 view .LVU58
 163:Drivers/STM32F2xx_HAL_Driver/Src/stm32f2xx_hal_dma_ex.c ****   {
 211              		.loc 1 163 17 is_stmt 0 view .LVU59
 212 0004 8068     		ldr	r0, [r0, #8]
 213              	.LVL19:
 163:Drivers/STM32F2xx_HAL_Driver/Src/stm32f2xx_hal_dma_ex.c ****   {
 214              		.loc 1 163 6 view .LVU60
 215 0006 8028     		cmp	r0, #128
 216 0008 17D0     		beq	.L303
 170:Drivers/STM32F2xx_HAL_Driver/Src/stm32f2xx_hal_dma_ex.c ****   {
 217              		.loc 1 170 3 is_stmt 1 view .LVU61
 170:Drivers/STM32F2xx_HAL_Driver/Src/stm32f2xx_hal_dma_ex.c ****   {
 218              		.loc 1 170 20 is_stmt 0 view .LVU62
 219 000a E06B     		ldr	r0, [r4, #60]
 170:Drivers/STM32F2xx_HAL_Driver/Src/stm32f2xx_hal_dma_ex.c ****   {
 220              		.loc 1 170 6 view .LVU63
 221 000c D0B1     		cbz	r0, .L16
 170:Drivers/STM32F2xx_HAL_Driver/Src/stm32f2xx_hal_dma_ex.c ****   {
 222              		.loc 1 170 56 discriminator 1 view .LVU64
 223 000e 606C     		ldr	r0, [r4, #68]
ARM GAS  C:\Users\Artem\AppData\Local\Temp\cc9eXbmh.s 			page 11


 170:Drivers/STM32F2xx_HAL_Driver/Src/stm32f2xx_hal_dma_ex.c ****   {
 224              		.loc 1 170 40 discriminator 1 view .LVU65
 225 0010 C0B1     		cbz	r0, .L16
 170:Drivers/STM32F2xx_HAL_Driver/Src/stm32f2xx_hal_dma_ex.c ****   {
 226              		.loc 1 170 94 discriminator 2 view .LVU66
 227 0012 E06C     		ldr	r0, [r4, #76]
 170:Drivers/STM32F2xx_HAL_Driver/Src/stm32f2xx_hal_dma_ex.c ****   {
 228              		.loc 1 170 78 discriminator 2 view .LVU67
 229 0014 B0B1     		cbz	r0, .L16
 177:Drivers/STM32F2xx_HAL_Driver/Src/stm32f2xx_hal_dma_ex.c ****   
 230              		.loc 1 177 3 is_stmt 1 view .LVU68
 177:Drivers/STM32F2xx_HAL_Driver/Src/stm32f2xx_hal_dma_ex.c ****   
 231              		.loc 1 177 3 view .LVU69
 232 0016 94F83400 		ldrb	r0, [r4, #52]	@ zero_extendqisi2
 233 001a 0128     		cmp	r0, #1
 234 001c 00F06987 		beq	.L61
 177:Drivers/STM32F2xx_HAL_Driver/Src/stm32f2xx_hal_dma_ex.c ****   
 235              		.loc 1 177 3 discriminator 2 view .LVU70
 236 0020 0120     		movs	r0, #1
 237 0022 84F83400 		strb	r0, [r4, #52]
 177:Drivers/STM32F2xx_HAL_Driver/Src/stm32f2xx_hal_dma_ex.c ****   
 238              		.loc 1 177 3 discriminator 2 view .LVU71
 179:Drivers/STM32F2xx_HAL_Driver/Src/stm32f2xx_hal_dma_ex.c ****   {
 239              		.loc 1 179 3 discriminator 2 view .LVU72
 179:Drivers/STM32F2xx_HAL_Driver/Src/stm32f2xx_hal_dma_ex.c ****   {
 240              		.loc 1 179 33 is_stmt 0 discriminator 2 view .LVU73
 241 0026 94F83500 		ldrb	r0, [r4, #53]	@ zero_extendqisi2
 242 002a C0B2     		uxtb	r0, r0
 179:Drivers/STM32F2xx_HAL_Driver/Src/stm32f2xx_hal_dma_ex.c ****   {
 243              		.loc 1 179 5 discriminator 2 view .LVU74
 244 002c 0128     		cmp	r0, #1
 245 002e 0DD0     		beq	.L304
 218:Drivers/STM32F2xx_HAL_Driver/Src/stm32f2xx_hal_dma_ex.c ****     
 246              		.loc 1 218 5 is_stmt 1 view .LVU75
 218:Drivers/STM32F2xx_HAL_Driver/Src/stm32f2xx_hal_dma_ex.c ****     
 247              		.loc 1 218 5 view .LVU76
 248 0030 0023     		movs	r3, #0
 249              	.LVL20:
 218:Drivers/STM32F2xx_HAL_Driver/Src/stm32f2xx_hal_dma_ex.c ****     
 250              		.loc 1 218 5 is_stmt 0 view .LVU77
 251 0032 84F83430 		strb	r3, [r4, #52]
 218:Drivers/STM32F2xx_HAL_Driver/Src/stm32f2xx_hal_dma_ex.c ****     
 252              		.loc 1 218 5 is_stmt 1 view .LVU78
 221:Drivers/STM32F2xx_HAL_Driver/Src/stm32f2xx_hal_dma_ex.c ****   }  
 253              		.loc 1 221 5 view .LVU79
 254              	.LVL21:
 221:Drivers/STM32F2xx_HAL_Driver/Src/stm32f2xx_hal_dma_ex.c ****   }  
 255              		.loc 1 221 12 is_stmt 0 view .LVU80
 256 0036 0220     		movs	r0, #2
 257 0038 07E0     		b	.L15
 258              	.LVL22:
 259              	.L303:
 165:Drivers/STM32F2xx_HAL_Driver/Src/stm32f2xx_hal_dma_ex.c ****     return HAL_ERROR;
 260              		.loc 1 165 5 is_stmt 1 view .LVU81
 165:Drivers/STM32F2xx_HAL_Driver/Src/stm32f2xx_hal_dma_ex.c ****     return HAL_ERROR;
 261              		.loc 1 165 21 is_stmt 0 view .LVU82
 262 003a 4FF48073 		mov	r3, #256
ARM GAS  C:\Users\Artem\AppData\Local\Temp\cc9eXbmh.s 			page 12


 263              	.LVL23:
 165:Drivers/STM32F2xx_HAL_Driver/Src/stm32f2xx_hal_dma_ex.c ****     return HAL_ERROR;
 264              		.loc 1 165 21 view .LVU83
 265 003e 6365     		str	r3, [r4, #84]
 166:Drivers/STM32F2xx_HAL_Driver/Src/stm32f2xx_hal_dma_ex.c ****   }
 266              		.loc 1 166 5 is_stmt 1 view .LVU84
 166:Drivers/STM32F2xx_HAL_Driver/Src/stm32f2xx_hal_dma_ex.c ****   }
 267              		.loc 1 166 12 is_stmt 0 view .LVU85
 268 0040 0120     		movs	r0, #1
 269 0042 02E0     		b	.L15
 270              	.LVL24:
 271              	.L16:
 172:Drivers/STM32F2xx_HAL_Driver/Src/stm32f2xx_hal_dma_ex.c ****     return HAL_ERROR;
 272              		.loc 1 172 5 is_stmt 1 view .LVU86
 172:Drivers/STM32F2xx_HAL_Driver/Src/stm32f2xx_hal_dma_ex.c ****     return HAL_ERROR;
 273              		.loc 1 172 21 is_stmt 0 view .LVU87
 274 0044 4023     		movs	r3, #64
 275              	.LVL25:
 172:Drivers/STM32F2xx_HAL_Driver/Src/stm32f2xx_hal_dma_ex.c ****     return HAL_ERROR;
 276              		.loc 1 172 21 view .LVU88
 277 0046 6365     		str	r3, [r4, #84]
 173:Drivers/STM32F2xx_HAL_Driver/Src/stm32f2xx_hal_dma_ex.c ****   }
 278              		.loc 1 173 5 is_stmt 1 view .LVU89
 173:Drivers/STM32F2xx_HAL_Driver/Src/stm32f2xx_hal_dma_ex.c ****   }
 279              		.loc 1 173 12 is_stmt 0 view .LVU90
 280 0048 0120     		movs	r0, #1
 281              	.LVL26:
 282              	.L15:
 224:Drivers/STM32F2xx_HAL_Driver/Src/stm32f2xx_hal_dma_ex.c **** 
 283              		.loc 1 224 1 view .LVU91
 284 004a 38BD     		pop	{r3, r4, r5, pc}
 285              	.LVL27:
 286              	.L304:
 182:Drivers/STM32F2xx_HAL_Driver/Src/stm32f2xx_hal_dma_ex.c ****     
 287              		.loc 1 182 5 is_stmt 1 view .LVU92
 182:Drivers/STM32F2xx_HAL_Driver/Src/stm32f2xx_hal_dma_ex.c ****     
 288              		.loc 1 182 17 is_stmt 0 view .LVU93
 289 004c 0220     		movs	r0, #2
 290 004e 84F83500 		strb	r0, [r4, #53]
 185:Drivers/STM32F2xx_HAL_Driver/Src/stm32f2xx_hal_dma_ex.c ****     
 291              		.loc 1 185 5 is_stmt 1 view .LVU94
 185:Drivers/STM32F2xx_HAL_Driver/Src/stm32f2xx_hal_dma_ex.c ****     
 292              		.loc 1 185 21 is_stmt 0 view .LVU95
 293 0052 0020     		movs	r0, #0
 294 0054 6065     		str	r0, [r4, #84]
 188:Drivers/STM32F2xx_HAL_Driver/Src/stm32f2xx_hal_dma_ex.c ****     
 295              		.loc 1 188 5 is_stmt 1 view .LVU96
 188:Drivers/STM32F2xx_HAL_Driver/Src/stm32f2xx_hal_dma_ex.c ****     
 296              		.loc 1 188 9 is_stmt 0 view .LVU97
 297 0056 2568     		ldr	r5, [r4]
 188:Drivers/STM32F2xx_HAL_Driver/Src/stm32f2xx_hal_dma_ex.c ****     
 298              		.loc 1 188 24 view .LVU98
 299 0058 2868     		ldr	r0, [r5]
 300 005a 40F48020 		orr	r0, r0, #262144
 301 005e 2860     		str	r0, [r5]
 191:Drivers/STM32F2xx_HAL_Driver/Src/stm32f2xx_hal_dma_ex.c ****     
 302              		.loc 1 191 5 is_stmt 1 view .LVU99
ARM GAS  C:\Users\Artem\AppData\Local\Temp\cc9eXbmh.s 			page 13


 191:Drivers/STM32F2xx_HAL_Driver/Src/stm32f2xx_hal_dma_ex.c ****     
 303              		.loc 1 191 9 is_stmt 0 view .LVU100
 304 0060 2068     		ldr	r0, [r4]
 191:Drivers/STM32F2xx_HAL_Driver/Src/stm32f2xx_hal_dma_ex.c ****     
 305              		.loc 1 191 26 view .LVU101
 306 0062 0361     		str	r3, [r0, #16]
 194:Drivers/STM32F2xx_HAL_Driver/Src/stm32f2xx_hal_dma_ex.c ****     
 307              		.loc 1 194 5 is_stmt 1 view .LVU102
 308 0064 049B     		ldr	r3, [sp, #16]
 309              	.LVL28:
 194:Drivers/STM32F2xx_HAL_Driver/Src/stm32f2xx_hal_dma_ex.c ****     
 310              		.loc 1 194 5 is_stmt 0 view .LVU103
 311 0066 2046     		mov	r0, r4
 312              	.LVL29:
 194:Drivers/STM32F2xx_HAL_Driver/Src/stm32f2xx_hal_dma_ex.c ****     
 313              		.loc 1 194 5 view .LVU104
 314 0068 FFF7FEFF 		bl	DMA_MultiBufferSetConfig
 315              	.LVL30:
 197:Drivers/STM32F2xx_HAL_Driver/Src/stm32f2xx_hal_dma_ex.c ****     __HAL_DMA_CLEAR_FLAG (hdma, __HAL_DMA_GET_HT_FLAG_INDEX(hdma));
 316              		.loc 1 197 5 is_stmt 1 view .LVU105
 317 006c 2368     		ldr	r3, [r4]
 318 006e A54A     		ldr	r2, .L326
 319 0070 9342     		cmp	r3, r2
 320 0072 40F29880 		bls	.L19
 197:Drivers/STM32F2xx_HAL_Driver/Src/stm32f2xx_hal_dma_ex.c ****     __HAL_DMA_CLEAR_FLAG (hdma, __HAL_DMA_GET_HT_FLAG_INDEX(hdma));
 321              		.loc 1 197 5 is_stmt 0 discriminator 1 view .LVU106
 322 0076 A2F58962 		sub	r2, r2, #1096
 323 007a 9342     		cmp	r3, r2
 324 007c 31D0     		beq	.L62
 197:Drivers/STM32F2xx_HAL_Driver/Src/stm32f2xx_hal_dma_ex.c ****     __HAL_DMA_CLEAR_FLAG (hdma, __HAL_DMA_GET_HT_FLAG_INDEX(hdma));
 325              		.loc 1 197 5 discriminator 3 view .LVU107
 326 007e 02F58062 		add	r2, r2, #1024
 327 0082 9342     		cmp	r3, r2
 328 0084 74D0     		beq	.L63
 197:Drivers/STM32F2xx_HAL_Driver/Src/stm32f2xx_hal_dma_ex.c ****     __HAL_DMA_CLEAR_FLAG (hdma, __HAL_DMA_GET_HT_FLAG_INDEX(hdma));
 329              		.loc 1 197 5 discriminator 5 view .LVU108
 330 0086 A2F56872 		sub	r2, r2, #928
 331 008a 9342     		cmp	r3, r2
 332 008c 72D0     		beq	.L64
 197:Drivers/STM32F2xx_HAL_Driver/Src/stm32f2xx_hal_dma_ex.c ****     __HAL_DMA_CLEAR_FLAG (hdma, __HAL_DMA_GET_HT_FLAG_INDEX(hdma));
 333              		.loc 1 197 5 discriminator 7 view .LVU109
 334 008e 02F58062 		add	r2, r2, #1024
 335 0092 9342     		cmp	r3, r2
 336 0094 70D0     		beq	.L65
 197:Drivers/STM32F2xx_HAL_Driver/Src/stm32f2xx_hal_dma_ex.c ****     __HAL_DMA_CLEAR_FLAG (hdma, __HAL_DMA_GET_HT_FLAG_INDEX(hdma));
 337              		.loc 1 197 5 discriminator 9 view .LVU110
 338 0096 A2F58962 		sub	r2, r2, #1096
 339 009a 9342     		cmp	r3, r2
 340 009c 6ED0     		beq	.L66
 197:Drivers/STM32F2xx_HAL_Driver/Src/stm32f2xx_hal_dma_ex.c ****     __HAL_DMA_CLEAR_FLAG (hdma, __HAL_DMA_GET_HT_FLAG_INDEX(hdma));
 341              		.loc 1 197 5 discriminator 11 view .LVU111
 342 009e 02F58062 		add	r2, r2, #1024
 343 00a2 9342     		cmp	r3, r2
 344 00a4 6DD0     		beq	.L67
 197:Drivers/STM32F2xx_HAL_Driver/Src/stm32f2xx_hal_dma_ex.c ****     __HAL_DMA_CLEAR_FLAG (hdma, __HAL_DMA_GET_HT_FLAG_INDEX(hdma));
 345              		.loc 1 197 5 discriminator 13 view .LVU112
 346 00a6 A2F56872 		sub	r2, r2, #928
ARM GAS  C:\Users\Artem\AppData\Local\Temp\cc9eXbmh.s 			page 14


 347 00aa 9342     		cmp	r3, r2
 348 00ac 6CD0     		beq	.L68
 197:Drivers/STM32F2xx_HAL_Driver/Src/stm32f2xx_hal_dma_ex.c ****     __HAL_DMA_CLEAR_FLAG (hdma, __HAL_DMA_GET_HT_FLAG_INDEX(hdma));
 349              		.loc 1 197 5 discriminator 15 view .LVU113
 350 00ae 02F58062 		add	r2, r2, #1024
 351 00b2 9342     		cmp	r3, r2
 352 00b4 6BD0     		beq	.L69
 197:Drivers/STM32F2xx_HAL_Driver/Src/stm32f2xx_hal_dma_ex.c ****     __HAL_DMA_CLEAR_FLAG (hdma, __HAL_DMA_GET_HT_FLAG_INDEX(hdma));
 353              		.loc 1 197 5 discriminator 17 view .LVU114
 354 00b6 A2F58962 		sub	r2, r2, #1096
 355 00ba 9342     		cmp	r3, r2
 356 00bc 6AD0     		beq	.L70
 197:Drivers/STM32F2xx_HAL_Driver/Src/stm32f2xx_hal_dma_ex.c ****     __HAL_DMA_CLEAR_FLAG (hdma, __HAL_DMA_GET_HT_FLAG_INDEX(hdma));
 357              		.loc 1 197 5 discriminator 19 view .LVU115
 358 00be 02F58062 		add	r2, r2, #1024
 359 00c2 9342     		cmp	r3, r2
 360 00c4 69D0     		beq	.L71
 197:Drivers/STM32F2xx_HAL_Driver/Src/stm32f2xx_hal_dma_ex.c ****     __HAL_DMA_CLEAR_FLAG (hdma, __HAL_DMA_GET_HT_FLAG_INDEX(hdma));
 361              		.loc 1 197 5 discriminator 21 view .LVU116
 362 00c6 A2F56872 		sub	r2, r2, #928
 363 00ca 9342     		cmp	r3, r2
 364 00cc 68D0     		beq	.L72
 197:Drivers/STM32F2xx_HAL_Driver/Src/stm32f2xx_hal_dma_ex.c ****     __HAL_DMA_CLEAR_FLAG (hdma, __HAL_DMA_GET_HT_FLAG_INDEX(hdma));
 365              		.loc 1 197 5 discriminator 23 view .LVU117
 366 00ce 02F58062 		add	r2, r2, #1024
 367 00d2 9342     		cmp	r3, r2
 368 00d4 02D0     		beq	.L305
 197:Drivers/STM32F2xx_HAL_Driver/Src/stm32f2xx_hal_dma_ex.c ****     __HAL_DMA_CLEAR_FLAG (hdma, __HAL_DMA_GET_HT_FLAG_INDEX(hdma));
 369              		.loc 1 197 5 view .LVU118
 370 00d6 4FF00062 		mov	r2, #134217728
 371 00da 03E0     		b	.L20
 372              	.L305:
 373 00dc 4FF40012 		mov	r2, #2097152
 374 00e0 00E0     		b	.L20
 375              	.L62:
 376 00e2 2022     		movs	r2, #32
 377              	.L20:
 197:Drivers/STM32F2xx_HAL_Driver/Src/stm32f2xx_hal_dma_ex.c ****     __HAL_DMA_CLEAR_FLAG (hdma, __HAL_DMA_GET_HT_FLAG_INDEX(hdma));
 378              		.loc 1 197 5 discriminator 50 view .LVU119
 379 00e4 884B     		ldr	r3, .L326+4
 380 00e6 DA60     		str	r2, [r3, #12]
 381              	.LVL31:
 382              	.L21:
 198:Drivers/STM32F2xx_HAL_Driver/Src/stm32f2xx_hal_dma_ex.c ****     __HAL_DMA_CLEAR_FLAG (hdma, __HAL_DMA_GET_TE_FLAG_INDEX(hdma));
 383              		.loc 1 198 5 is_stmt 1 view .LVU120
 384 00e8 2368     		ldr	r3, [r4]
 385 00ea 864A     		ldr	r2, .L326
 386 00ec 9342     		cmp	r3, r2
 387 00ee 40F2CC81 		bls	.L27
 198:Drivers/STM32F2xx_HAL_Driver/Src/stm32f2xx_hal_dma_ex.c ****     __HAL_DMA_CLEAR_FLAG (hdma, __HAL_DMA_GET_TE_FLAG_INDEX(hdma));
 388              		.loc 1 198 5 is_stmt 0 discriminator 1 view .LVU121
 389 00f2 A2F58962 		sub	r2, r2, #1096
 390 00f6 9342     		cmp	r3, r2
 391 00f8 00F06581 		beq	.L110
 198:Drivers/STM32F2xx_HAL_Driver/Src/stm32f2xx_hal_dma_ex.c ****     __HAL_DMA_CLEAR_FLAG (hdma, __HAL_DMA_GET_TE_FLAG_INDEX(hdma));
 392              		.loc 1 198 5 discriminator 3 view .LVU122
 393 00fc 02F58062 		add	r2, r2, #1024
ARM GAS  C:\Users\Artem\AppData\Local\Temp\cc9eXbmh.s 			page 15


 394 0100 9342     		cmp	r3, r2
 395 0102 00F0A781 		beq	.L111
 198:Drivers/STM32F2xx_HAL_Driver/Src/stm32f2xx_hal_dma_ex.c ****     __HAL_DMA_CLEAR_FLAG (hdma, __HAL_DMA_GET_TE_FLAG_INDEX(hdma));
 396              		.loc 1 198 5 discriminator 5 view .LVU123
 397 0106 A2F56872 		sub	r2, r2, #928
 398 010a 9342     		cmp	r3, r2
 399 010c 00F0A481 		beq	.L112
 198:Drivers/STM32F2xx_HAL_Driver/Src/stm32f2xx_hal_dma_ex.c ****     __HAL_DMA_CLEAR_FLAG (hdma, __HAL_DMA_GET_TE_FLAG_INDEX(hdma));
 400              		.loc 1 198 5 discriminator 7 view .LVU124
 401 0110 02F58062 		add	r2, r2, #1024
 402 0114 9342     		cmp	r3, r2
 403 0116 00F0A181 		beq	.L113
 198:Drivers/STM32F2xx_HAL_Driver/Src/stm32f2xx_hal_dma_ex.c ****     __HAL_DMA_CLEAR_FLAG (hdma, __HAL_DMA_GET_TE_FLAG_INDEX(hdma));
 404              		.loc 1 198 5 discriminator 9 view .LVU125
 405 011a A2F58962 		sub	r2, r2, #1096
 406 011e 9342     		cmp	r3, r2
 407 0120 00F09E81 		beq	.L114
 198:Drivers/STM32F2xx_HAL_Driver/Src/stm32f2xx_hal_dma_ex.c ****     __HAL_DMA_CLEAR_FLAG (hdma, __HAL_DMA_GET_TE_FLAG_INDEX(hdma));
 408              		.loc 1 198 5 discriminator 11 view .LVU126
 409 0124 02F58062 		add	r2, r2, #1024
 410 0128 9342     		cmp	r3, r2
 411 012a 00F09C81 		beq	.L115
 198:Drivers/STM32F2xx_HAL_Driver/Src/stm32f2xx_hal_dma_ex.c ****     __HAL_DMA_CLEAR_FLAG (hdma, __HAL_DMA_GET_TE_FLAG_INDEX(hdma));
 412              		.loc 1 198 5 discriminator 13 view .LVU127
 413 012e A2F56872 		sub	r2, r2, #928
 414 0132 9342     		cmp	r3, r2
 415 0134 00F09A81 		beq	.L116
 198:Drivers/STM32F2xx_HAL_Driver/Src/stm32f2xx_hal_dma_ex.c ****     __HAL_DMA_CLEAR_FLAG (hdma, __HAL_DMA_GET_TE_FLAG_INDEX(hdma));
 416              		.loc 1 198 5 discriminator 15 view .LVU128
 417 0138 02F58062 		add	r2, r2, #1024
 418 013c 9342     		cmp	r3, r2
 419 013e 00F09881 		beq	.L117
 198:Drivers/STM32F2xx_HAL_Driver/Src/stm32f2xx_hal_dma_ex.c ****     __HAL_DMA_CLEAR_FLAG (hdma, __HAL_DMA_GET_TE_FLAG_INDEX(hdma));
 420              		.loc 1 198 5 discriminator 17 view .LVU129
 421 0142 A2F58962 		sub	r2, r2, #1096
 422 0146 9342     		cmp	r3, r2
 423 0148 00F09681 		beq	.L118
 198:Drivers/STM32F2xx_HAL_Driver/Src/stm32f2xx_hal_dma_ex.c ****     __HAL_DMA_CLEAR_FLAG (hdma, __HAL_DMA_GET_TE_FLAG_INDEX(hdma));
 424              		.loc 1 198 5 discriminator 19 view .LVU130
 425 014c 02F58062 		add	r2, r2, #1024
 426 0150 9342     		cmp	r3, r2
 427 0152 00F09481 		beq	.L119
 198:Drivers/STM32F2xx_HAL_Driver/Src/stm32f2xx_hal_dma_ex.c ****     __HAL_DMA_CLEAR_FLAG (hdma, __HAL_DMA_GET_TE_FLAG_INDEX(hdma));
 428              		.loc 1 198 5 discriminator 21 view .LVU131
 429 0156 A2F56872 		sub	r2, r2, #928
 430 015a 9342     		cmp	r3, r2
 431 015c 00F09281 		beq	.L120
 198:Drivers/STM32F2xx_HAL_Driver/Src/stm32f2xx_hal_dma_ex.c ****     __HAL_DMA_CLEAR_FLAG (hdma, __HAL_DMA_GET_TE_FLAG_INDEX(hdma));
 432              		.loc 1 198 5 discriminator 23 view .LVU132
 433 0160 02F58062 		add	r2, r2, #1024
 434 0164 9342     		cmp	r3, r2
 435 0166 00F02B81 		beq	.L306
 198:Drivers/STM32F2xx_HAL_Driver/Src/stm32f2xx_hal_dma_ex.c ****     __HAL_DMA_CLEAR_FLAG (hdma, __HAL_DMA_GET_TE_FLAG_INDEX(hdma));
 436              		.loc 1 198 5 view .LVU133
 437 016a 4FF08062 		mov	r2, #67108864
 438 016e 2BE1     		b	.L28
 439              	.LVL32:
ARM GAS  C:\Users\Artem\AppData\Local\Temp\cc9eXbmh.s 			page 16


 440              	.L63:
 197:Drivers/STM32F2xx_HAL_Driver/Src/stm32f2xx_hal_dma_ex.c ****     __HAL_DMA_CLEAR_FLAG (hdma, __HAL_DMA_GET_HT_FLAG_INDEX(hdma));
 441              		.loc 1 197 5 view .LVU134
 442 0170 2022     		movs	r2, #32
 443 0172 B7E7     		b	.L20
 444              	.L64:
 445 0174 2022     		movs	r2, #32
 446 0176 B5E7     		b	.L20
 447              	.L65:
 448 0178 2022     		movs	r2, #32
 449 017a B3E7     		b	.L20
 450              	.L66:
 451 017c 4FF40062 		mov	r2, #2048
 452 0180 B0E7     		b	.L20
 453              	.L67:
 454 0182 4FF40062 		mov	r2, #2048
 455 0186 ADE7     		b	.L20
 456              	.L68:
 457 0188 4FF40062 		mov	r2, #2048
 458 018c AAE7     		b	.L20
 459              	.L69:
 460 018e 4FF40062 		mov	r2, #2048
 461 0192 A7E7     		b	.L20
 462              	.L70:
 463 0194 4FF40012 		mov	r2, #2097152
 464 0198 A4E7     		b	.L20
 465              	.L71:
 466 019a 4FF40012 		mov	r2, #2097152
 467 019e A1E7     		b	.L20
 468              	.L72:
 469 01a0 4FF40012 		mov	r2, #2097152
 470 01a4 9EE7     		b	.L20
 471              	.L19:
 197:Drivers/STM32F2xx_HAL_Driver/Src/stm32f2xx_hal_dma_ex.c ****     __HAL_DMA_CLEAR_FLAG (hdma, __HAL_DMA_GET_HT_FLAG_INDEX(hdma));
 472              		.loc 1 197 5 discriminator 2 view .LVU135
 473 01a6 594A     		ldr	r2, .L326+8
 474 01a8 9342     		cmp	r3, r2
 475 01aa 53D9     		bls	.L22
 197:Drivers/STM32F2xx_HAL_Driver/Src/stm32f2xx_hal_dma_ex.c ****     __HAL_DMA_CLEAR_FLAG (hdma, __HAL_DMA_GET_HT_FLAG_INDEX(hdma));
 476              		.loc 1 197 5 discriminator 51 view .LVU136
 477 01ac A83A     		subs	r2, r2, #168
 478 01ae 9342     		cmp	r3, r2
 479 01b0 31D0     		beq	.L74
 197:Drivers/STM32F2xx_HAL_Driver/Src/stm32f2xx_hal_dma_ex.c ****     __HAL_DMA_CLEAR_FLAG (hdma, __HAL_DMA_GET_HT_FLAG_INDEX(hdma));
 480              		.loc 1 197 5 discriminator 53 view .LVU137
 481 01b2 02F58062 		add	r2, r2, #1024
 482 01b6 9342     		cmp	r3, r2
 483 01b8 31D0     		beq	.L75
 197:Drivers/STM32F2xx_HAL_Driver/Src/stm32f2xx_hal_dma_ex.c ****     __HAL_DMA_CLEAR_FLAG (hdma, __HAL_DMA_GET_HT_FLAG_INDEX(hdma));
 484              		.loc 1 197 5 discriminator 55 view .LVU138
 485 01ba A2F56872 		sub	r2, r2, #928
 486 01be 9342     		cmp	r3, r2
 487 01c0 2FD0     		beq	.L76
 197:Drivers/STM32F2xx_HAL_Driver/Src/stm32f2xx_hal_dma_ex.c ****     __HAL_DMA_CLEAR_FLAG (hdma, __HAL_DMA_GET_HT_FLAG_INDEX(hdma));
 488              		.loc 1 197 5 discriminator 57 view .LVU139
 489 01c2 02F58062 		add	r2, r2, #1024
 490 01c6 9342     		cmp	r3, r2
ARM GAS  C:\Users\Artem\AppData\Local\Temp\cc9eXbmh.s 			page 17


 491 01c8 2DD0     		beq	.L77
 197:Drivers/STM32F2xx_HAL_Driver/Src/stm32f2xx_hal_dma_ex.c ****     __HAL_DMA_CLEAR_FLAG (hdma, __HAL_DMA_GET_HT_FLAG_INDEX(hdma));
 492              		.loc 1 197 5 discriminator 59 view .LVU140
 493 01ca A2F58962 		sub	r2, r2, #1096
 494 01ce 9342     		cmp	r3, r2
 495 01d0 2BD0     		beq	.L78
 197:Drivers/STM32F2xx_HAL_Driver/Src/stm32f2xx_hal_dma_ex.c ****     __HAL_DMA_CLEAR_FLAG (hdma, __HAL_DMA_GET_HT_FLAG_INDEX(hdma));
 496              		.loc 1 197 5 discriminator 61 view .LVU141
 497 01d2 02F58062 		add	r2, r2, #1024
 498 01d6 9342     		cmp	r3, r2
 499 01d8 2AD0     		beq	.L79
 197:Drivers/STM32F2xx_HAL_Driver/Src/stm32f2xx_hal_dma_ex.c ****     __HAL_DMA_CLEAR_FLAG (hdma, __HAL_DMA_GET_HT_FLAG_INDEX(hdma));
 500              		.loc 1 197 5 discriminator 63 view .LVU142
 501 01da A2F56872 		sub	r2, r2, #928
 502 01de 9342     		cmp	r3, r2
 503 01e0 29D0     		beq	.L80
 197:Drivers/STM32F2xx_HAL_Driver/Src/stm32f2xx_hal_dma_ex.c ****     __HAL_DMA_CLEAR_FLAG (hdma, __HAL_DMA_GET_HT_FLAG_INDEX(hdma));
 504              		.loc 1 197 5 discriminator 65 view .LVU143
 505 01e2 02F58062 		add	r2, r2, #1024
 506 01e6 9342     		cmp	r3, r2
 507 01e8 28D0     		beq	.L81
 197:Drivers/STM32F2xx_HAL_Driver/Src/stm32f2xx_hal_dma_ex.c ****     __HAL_DMA_CLEAR_FLAG (hdma, __HAL_DMA_GET_HT_FLAG_INDEX(hdma));
 508              		.loc 1 197 5 discriminator 67 view .LVU144
 509 01ea A2F58962 		sub	r2, r2, #1096
 510 01ee 9342     		cmp	r3, r2
 511 01f0 27D0     		beq	.L82
 197:Drivers/STM32F2xx_HAL_Driver/Src/stm32f2xx_hal_dma_ex.c ****     __HAL_DMA_CLEAR_FLAG (hdma, __HAL_DMA_GET_HT_FLAG_INDEX(hdma));
 512              		.loc 1 197 5 discriminator 69 view .LVU145
 513 01f2 02F58062 		add	r2, r2, #1024
 514 01f6 9342     		cmp	r3, r2
 515 01f8 26D0     		beq	.L83
 197:Drivers/STM32F2xx_HAL_Driver/Src/stm32f2xx_hal_dma_ex.c ****     __HAL_DMA_CLEAR_FLAG (hdma, __HAL_DMA_GET_HT_FLAG_INDEX(hdma));
 516              		.loc 1 197 5 discriminator 71 view .LVU146
 517 01fa A2F56872 		sub	r2, r2, #928
 518 01fe 9342     		cmp	r3, r2
 519 0200 25D0     		beq	.L84
 197:Drivers/STM32F2xx_HAL_Driver/Src/stm32f2xx_hal_dma_ex.c ****     __HAL_DMA_CLEAR_FLAG (hdma, __HAL_DMA_GET_HT_FLAG_INDEX(hdma));
 520              		.loc 1 197 5 discriminator 73 view .LVU147
 521 0202 02F58062 		add	r2, r2, #1024
 522 0206 9342     		cmp	r3, r2
 523 0208 02D0     		beq	.L307
 197:Drivers/STM32F2xx_HAL_Driver/Src/stm32f2xx_hal_dma_ex.c ****     __HAL_DMA_CLEAR_FLAG (hdma, __HAL_DMA_GET_HT_FLAG_INDEX(hdma));
 524              		.loc 1 197 5 view .LVU148
 525 020a 4FF00063 		mov	r3, #134217728
 526 020e 03E0     		b	.L23
 527              	.L307:
 528 0210 4FF40013 		mov	r3, #2097152
 529 0214 00E0     		b	.L23
 530              	.L74:
 531 0216 2023     		movs	r3, #32
 532              	.L23:
 197:Drivers/STM32F2xx_HAL_Driver/Src/stm32f2xx_hal_dma_ex.c ****     __HAL_DMA_CLEAR_FLAG (hdma, __HAL_DMA_GET_HT_FLAG_INDEX(hdma));
 533              		.loc 1 197 5 discriminator 100 view .LVU149
 534 0218 3B4A     		ldr	r2, .L326+4
 535 021a 9360     		str	r3, [r2, #8]
 536              	.LVL33:
 197:Drivers/STM32F2xx_HAL_Driver/Src/stm32f2xx_hal_dma_ex.c ****     __HAL_DMA_CLEAR_FLAG (hdma, __HAL_DMA_GET_HT_FLAG_INDEX(hdma));
ARM GAS  C:\Users\Artem\AppData\Local\Temp\cc9eXbmh.s 			page 18


 537              		.loc 1 197 5 discriminator 100 view .LVU150
 538 021c 64E7     		b	.L21
 539              	.LVL34:
 540              	.L75:
 197:Drivers/STM32F2xx_HAL_Driver/Src/stm32f2xx_hal_dma_ex.c ****     __HAL_DMA_CLEAR_FLAG (hdma, __HAL_DMA_GET_HT_FLAG_INDEX(hdma));
 541              		.loc 1 197 5 view .LVU151
 542 021e 2023     		movs	r3, #32
 543 0220 FAE7     		b	.L23
 544              	.L76:
 545 0222 2023     		movs	r3, #32
 546 0224 F8E7     		b	.L23
 547              	.L77:
 548 0226 2023     		movs	r3, #32
 549 0228 F6E7     		b	.L23
 550              	.L78:
 551 022a 4FF40063 		mov	r3, #2048
 552 022e F3E7     		b	.L23
 553              	.L79:
 554 0230 4FF40063 		mov	r3, #2048
 555 0234 F0E7     		b	.L23
 556              	.L80:
 557 0236 4FF40063 		mov	r3, #2048
 558 023a EDE7     		b	.L23
 559              	.L81:
 560 023c 4FF40063 		mov	r3, #2048
 561 0240 EAE7     		b	.L23
 562              	.L82:
 563 0242 4FF40013 		mov	r3, #2097152
 564 0246 E7E7     		b	.L23
 565              	.L83:
 566 0248 4FF40013 		mov	r3, #2097152
 567 024c E4E7     		b	.L23
 568              	.L84:
 569 024e 4FF40013 		mov	r3, #2097152
 570 0252 E1E7     		b	.L23
 571              	.L22:
 197:Drivers/STM32F2xx_HAL_Driver/Src/stm32f2xx_hal_dma_ex.c ****     __HAL_DMA_CLEAR_FLAG (hdma, __HAL_DMA_GET_HT_FLAG_INDEX(hdma));
 572              		.loc 1 197 5 discriminator 52 view .LVU152
 573 0254 2E4A     		ldr	r2, .L326+12
 574 0256 9342     		cmp	r3, r2
 575 0258 5ED9     		bls	.L24
 197:Drivers/STM32F2xx_HAL_Driver/Src/stm32f2xx_hal_dma_ex.c ****     __HAL_DMA_CLEAR_FLAG (hdma, __HAL_DMA_GET_HT_FLAG_INDEX(hdma));
 576              		.loc 1 197 5 discriminator 102 view .LVU153
 577 025a 483A     		subs	r2, r2, #72
 578 025c 9342     		cmp	r3, r2
 579 025e 31D0     		beq	.L86
 197:Drivers/STM32F2xx_HAL_Driver/Src/stm32f2xx_hal_dma_ex.c ****     __HAL_DMA_CLEAR_FLAG (hdma, __HAL_DMA_GET_HT_FLAG_INDEX(hdma));
 580              		.loc 1 197 5 discriminator 104 view .LVU154
 581 0260 02F58062 		add	r2, r2, #1024
 582 0264 9342     		cmp	r3, r2
 583 0266 31D0     		beq	.L87
 197:Drivers/STM32F2xx_HAL_Driver/Src/stm32f2xx_hal_dma_ex.c ****     __HAL_DMA_CLEAR_FLAG (hdma, __HAL_DMA_GET_HT_FLAG_INDEX(hdma));
 584              		.loc 1 197 5 discriminator 106 view .LVU155
 585 0268 A2F56872 		sub	r2, r2, #928
 586 026c 9342     		cmp	r3, r2
 587 026e 2FD0     		beq	.L88
 197:Drivers/STM32F2xx_HAL_Driver/Src/stm32f2xx_hal_dma_ex.c ****     __HAL_DMA_CLEAR_FLAG (hdma, __HAL_DMA_GET_HT_FLAG_INDEX(hdma));
ARM GAS  C:\Users\Artem\AppData\Local\Temp\cc9eXbmh.s 			page 19


 588              		.loc 1 197 5 discriminator 108 view .LVU156
 589 0270 02F58062 		add	r2, r2, #1024
 590 0274 9342     		cmp	r3, r2
 591 0276 2DD0     		beq	.L89
 197:Drivers/STM32F2xx_HAL_Driver/Src/stm32f2xx_hal_dma_ex.c ****     __HAL_DMA_CLEAR_FLAG (hdma, __HAL_DMA_GET_HT_FLAG_INDEX(hdma));
 592              		.loc 1 197 5 discriminator 110 view .LVU157
 593 0278 A2F58962 		sub	r2, r2, #1096
 594 027c 9342     		cmp	r3, r2
 595 027e 2BD0     		beq	.L90
 197:Drivers/STM32F2xx_HAL_Driver/Src/stm32f2xx_hal_dma_ex.c ****     __HAL_DMA_CLEAR_FLAG (hdma, __HAL_DMA_GET_HT_FLAG_INDEX(hdma));
 596              		.loc 1 197 5 discriminator 112 view .LVU158
 597 0280 02F58062 		add	r2, r2, #1024
 598 0284 9342     		cmp	r3, r2
 599 0286 2AD0     		beq	.L91
 197:Drivers/STM32F2xx_HAL_Driver/Src/stm32f2xx_hal_dma_ex.c ****     __HAL_DMA_CLEAR_FLAG (hdma, __HAL_DMA_GET_HT_FLAG_INDEX(hdma));
 600              		.loc 1 197 5 discriminator 114 view .LVU159
 601 0288 A2F56872 		sub	r2, r2, #928
 602 028c 9342     		cmp	r3, r2
 603 028e 29D0     		beq	.L92
 197:Drivers/STM32F2xx_HAL_Driver/Src/stm32f2xx_hal_dma_ex.c ****     __HAL_DMA_CLEAR_FLAG (hdma, __HAL_DMA_GET_HT_FLAG_INDEX(hdma));
 604              		.loc 1 197 5 discriminator 116 view .LVU160
 605 0290 02F58062 		add	r2, r2, #1024
 606 0294 9342     		cmp	r3, r2
 607 0296 28D0     		beq	.L93
 197:Drivers/STM32F2xx_HAL_Driver/Src/stm32f2xx_hal_dma_ex.c ****     __HAL_DMA_CLEAR_FLAG (hdma, __HAL_DMA_GET_HT_FLAG_INDEX(hdma));
 608              		.loc 1 197 5 discriminator 118 view .LVU161
 609 0298 A2F58962 		sub	r2, r2, #1096
 610 029c 9342     		cmp	r3, r2
 611 029e 27D0     		beq	.L94
 197:Drivers/STM32F2xx_HAL_Driver/Src/stm32f2xx_hal_dma_ex.c ****     __HAL_DMA_CLEAR_FLAG (hdma, __HAL_DMA_GET_HT_FLAG_INDEX(hdma));
 612              		.loc 1 197 5 discriminator 120 view .LVU162
 613 02a0 02F58062 		add	r2, r2, #1024
 614 02a4 9342     		cmp	r3, r2
 615 02a6 26D0     		beq	.L95
 197:Drivers/STM32F2xx_HAL_Driver/Src/stm32f2xx_hal_dma_ex.c ****     __HAL_DMA_CLEAR_FLAG (hdma, __HAL_DMA_GET_HT_FLAG_INDEX(hdma));
 616              		.loc 1 197 5 discriminator 122 view .LVU163
 617 02a8 A2F56872 		sub	r2, r2, #928
 618 02ac 9342     		cmp	r3, r2
 619 02ae 25D0     		beq	.L96
 197:Drivers/STM32F2xx_HAL_Driver/Src/stm32f2xx_hal_dma_ex.c ****     __HAL_DMA_CLEAR_FLAG (hdma, __HAL_DMA_GET_HT_FLAG_INDEX(hdma));
 620              		.loc 1 197 5 discriminator 124 view .LVU164
 621 02b0 02F58062 		add	r2, r2, #1024
 622 02b4 9342     		cmp	r3, r2
 623 02b6 02D0     		beq	.L308
 197:Drivers/STM32F2xx_HAL_Driver/Src/stm32f2xx_hal_dma_ex.c ****     __HAL_DMA_CLEAR_FLAG (hdma, __HAL_DMA_GET_HT_FLAG_INDEX(hdma));
 624              		.loc 1 197 5 view .LVU165
 625 02b8 4FF00063 		mov	r3, #134217728
 626 02bc 03E0     		b	.L25
 627              	.L308:
 628 02be 4FF40013 		mov	r3, #2097152
 629 02c2 00E0     		b	.L25
 630              	.L86:
 631 02c4 2023     		movs	r3, #32
 632              	.L25:
 197:Drivers/STM32F2xx_HAL_Driver/Src/stm32f2xx_hal_dma_ex.c ****     __HAL_DMA_CLEAR_FLAG (hdma, __HAL_DMA_GET_HT_FLAG_INDEX(hdma));
 633              		.loc 1 197 5 discriminator 151 view .LVU166
 634 02c6 134A     		ldr	r2, .L326+16
ARM GAS  C:\Users\Artem\AppData\Local\Temp\cc9eXbmh.s 			page 20


 635 02c8 D360     		str	r3, [r2, #12]
 636              	.LVL35:
 197:Drivers/STM32F2xx_HAL_Driver/Src/stm32f2xx_hal_dma_ex.c ****     __HAL_DMA_CLEAR_FLAG (hdma, __HAL_DMA_GET_HT_FLAG_INDEX(hdma));
 637              		.loc 1 197 5 discriminator 151 view .LVU167
 638 02ca 0DE7     		b	.L21
 639              	.LVL36:
 640              	.L87:
 197:Drivers/STM32F2xx_HAL_Driver/Src/stm32f2xx_hal_dma_ex.c ****     __HAL_DMA_CLEAR_FLAG (hdma, __HAL_DMA_GET_HT_FLAG_INDEX(hdma));
 641              		.loc 1 197 5 view .LVU168
 642 02cc 2023     		movs	r3, #32
 643 02ce FAE7     		b	.L25
 644              	.L88:
 645 02d0 2023     		movs	r3, #32
 646 02d2 F8E7     		b	.L25
 647              	.L89:
 648 02d4 2023     		movs	r3, #32
 649 02d6 F6E7     		b	.L25
 650              	.L90:
 651 02d8 4FF40063 		mov	r3, #2048
 652 02dc F3E7     		b	.L25
 653              	.L91:
 654 02de 4FF40063 		mov	r3, #2048
 655 02e2 F0E7     		b	.L25
 656              	.L92:
 657 02e4 4FF40063 		mov	r3, #2048
 658 02e8 EDE7     		b	.L25
 659              	.L93:
 660 02ea 4FF40063 		mov	r3, #2048
 661 02ee EAE7     		b	.L25
 662              	.L94:
 663 02f0 4FF40013 		mov	r3, #2097152
 664 02f4 E7E7     		b	.L25
 665              	.L95:
 666 02f6 4FF40013 		mov	r3, #2097152
 667 02fa E4E7     		b	.L25
 668              	.L96:
 669 02fc 4FF40013 		mov	r3, #2097152
 670 0300 E1E7     		b	.L25
 671              	.L327:
 672 0302 00BF     		.align	2
 673              	.L326:
 674 0304 58640240 		.word	1073898584
 675 0308 00640240 		.word	1073898496
 676 030c B8600240 		.word	1073897656
 677 0310 58600240 		.word	1073897560
 678 0314 00600240 		.word	1073897472
 679              	.L24:
 197:Drivers/STM32F2xx_HAL_Driver/Src/stm32f2xx_hal_dma_ex.c ****     __HAL_DMA_CLEAR_FLAG (hdma, __HAL_DMA_GET_HT_FLAG_INDEX(hdma));
 680              		.loc 1 197 5 discriminator 103 view .LVU169
 681 0318 B14A     		ldr	r2, .L328
 682 031a 9342     		cmp	r3, r2
 683 031c 31D0     		beq	.L98
 197:Drivers/STM32F2xx_HAL_Driver/Src/stm32f2xx_hal_dma_ex.c ****     __HAL_DMA_CLEAR_FLAG (hdma, __HAL_DMA_GET_HT_FLAG_INDEX(hdma));
 684              		.loc 1 197 5 discriminator 153 view .LVU170
 685 031e 02F58062 		add	r2, r2, #1024
 686 0322 9342     		cmp	r3, r2
 687 0324 31D0     		beq	.L99
ARM GAS  C:\Users\Artem\AppData\Local\Temp\cc9eXbmh.s 			page 21


 197:Drivers/STM32F2xx_HAL_Driver/Src/stm32f2xx_hal_dma_ex.c ****     __HAL_DMA_CLEAR_FLAG (hdma, __HAL_DMA_GET_HT_FLAG_INDEX(hdma));
 688              		.loc 1 197 5 discriminator 155 view .LVU171
 689 0326 A2F56872 		sub	r2, r2, #928
 690 032a 9342     		cmp	r3, r2
 691 032c 2FD0     		beq	.L100
 197:Drivers/STM32F2xx_HAL_Driver/Src/stm32f2xx_hal_dma_ex.c ****     __HAL_DMA_CLEAR_FLAG (hdma, __HAL_DMA_GET_HT_FLAG_INDEX(hdma));
 692              		.loc 1 197 5 discriminator 157 view .LVU172
 693 032e 02F58062 		add	r2, r2, #1024
 694 0332 9342     		cmp	r3, r2
 695 0334 2DD0     		beq	.L101
 197:Drivers/STM32F2xx_HAL_Driver/Src/stm32f2xx_hal_dma_ex.c ****     __HAL_DMA_CLEAR_FLAG (hdma, __HAL_DMA_GET_HT_FLAG_INDEX(hdma));
 696              		.loc 1 197 5 discriminator 159 view .LVU173
 697 0336 A2F58962 		sub	r2, r2, #1096
 698 033a 9342     		cmp	r3, r2
 699 033c 2BD0     		beq	.L102
 197:Drivers/STM32F2xx_HAL_Driver/Src/stm32f2xx_hal_dma_ex.c ****     __HAL_DMA_CLEAR_FLAG (hdma, __HAL_DMA_GET_HT_FLAG_INDEX(hdma));
 700              		.loc 1 197 5 discriminator 161 view .LVU174
 701 033e 02F58062 		add	r2, r2, #1024
 702 0342 9342     		cmp	r3, r2
 703 0344 2AD0     		beq	.L103
 197:Drivers/STM32F2xx_HAL_Driver/Src/stm32f2xx_hal_dma_ex.c ****     __HAL_DMA_CLEAR_FLAG (hdma, __HAL_DMA_GET_HT_FLAG_INDEX(hdma));
 704              		.loc 1 197 5 discriminator 163 view .LVU175
 705 0346 A2F56872 		sub	r2, r2, #928
 706 034a 9342     		cmp	r3, r2
 707 034c 29D0     		beq	.L104
 197:Drivers/STM32F2xx_HAL_Driver/Src/stm32f2xx_hal_dma_ex.c ****     __HAL_DMA_CLEAR_FLAG (hdma, __HAL_DMA_GET_HT_FLAG_INDEX(hdma));
 708              		.loc 1 197 5 discriminator 165 view .LVU176
 709 034e 02F58062 		add	r2, r2, #1024
 710 0352 9342     		cmp	r3, r2
 711 0354 28D0     		beq	.L105
 197:Drivers/STM32F2xx_HAL_Driver/Src/stm32f2xx_hal_dma_ex.c ****     __HAL_DMA_CLEAR_FLAG (hdma, __HAL_DMA_GET_HT_FLAG_INDEX(hdma));
 712              		.loc 1 197 5 discriminator 167 view .LVU177
 713 0356 A2F58962 		sub	r2, r2, #1096
 714 035a 9342     		cmp	r3, r2
 715 035c 27D0     		beq	.L106
 197:Drivers/STM32F2xx_HAL_Driver/Src/stm32f2xx_hal_dma_ex.c ****     __HAL_DMA_CLEAR_FLAG (hdma, __HAL_DMA_GET_HT_FLAG_INDEX(hdma));
 716              		.loc 1 197 5 discriminator 169 view .LVU178
 717 035e 02F58062 		add	r2, r2, #1024
 718 0362 9342     		cmp	r3, r2
 719 0364 26D0     		beq	.L107
 197:Drivers/STM32F2xx_HAL_Driver/Src/stm32f2xx_hal_dma_ex.c ****     __HAL_DMA_CLEAR_FLAG (hdma, __HAL_DMA_GET_HT_FLAG_INDEX(hdma));
 720              		.loc 1 197 5 discriminator 171 view .LVU179
 721 0366 A2F56872 		sub	r2, r2, #928
 722 036a 9342     		cmp	r3, r2
 723 036c 25D0     		beq	.L108
 197:Drivers/STM32F2xx_HAL_Driver/Src/stm32f2xx_hal_dma_ex.c ****     __HAL_DMA_CLEAR_FLAG (hdma, __HAL_DMA_GET_HT_FLAG_INDEX(hdma));
 724              		.loc 1 197 5 discriminator 173 view .LVU180
 725 036e 02F58062 		add	r2, r2, #1024
 726 0372 9342     		cmp	r3, r2
 727 0374 02D0     		beq	.L309
 197:Drivers/STM32F2xx_HAL_Driver/Src/stm32f2xx_hal_dma_ex.c ****     __HAL_DMA_CLEAR_FLAG (hdma, __HAL_DMA_GET_HT_FLAG_INDEX(hdma));
 728              		.loc 1 197 5 view .LVU181
 729 0376 4FF00063 		mov	r3, #134217728
 730 037a 03E0     		b	.L26
 731              	.L309:
 732 037c 4FF40013 		mov	r3, #2097152
 733 0380 00E0     		b	.L26
ARM GAS  C:\Users\Artem\AppData\Local\Temp\cc9eXbmh.s 			page 22


 734              	.L98:
 735 0382 2023     		movs	r3, #32
 736              	.L26:
 197:Drivers/STM32F2xx_HAL_Driver/Src/stm32f2xx_hal_dma_ex.c ****     __HAL_DMA_CLEAR_FLAG (hdma, __HAL_DMA_GET_HT_FLAG_INDEX(hdma));
 737              		.loc 1 197 5 discriminator 200 view .LVU182
 738 0384 974A     		ldr	r2, .L328+4
 739 0386 9360     		str	r3, [r2, #8]
 740              	.LVL37:
 197:Drivers/STM32F2xx_HAL_Driver/Src/stm32f2xx_hal_dma_ex.c ****     __HAL_DMA_CLEAR_FLAG (hdma, __HAL_DMA_GET_HT_FLAG_INDEX(hdma));
 741              		.loc 1 197 5 discriminator 200 view .LVU183
 742 0388 AEE6     		b	.L21
 743              	.LVL38:
 744              	.L99:
 197:Drivers/STM32F2xx_HAL_Driver/Src/stm32f2xx_hal_dma_ex.c ****     __HAL_DMA_CLEAR_FLAG (hdma, __HAL_DMA_GET_HT_FLAG_INDEX(hdma));
 745              		.loc 1 197 5 view .LVU184
 746 038a 2023     		movs	r3, #32
 747 038c FAE7     		b	.L26
 748              	.L100:
 749 038e 2023     		movs	r3, #32
 750 0390 F8E7     		b	.L26
 751              	.L101:
 752 0392 2023     		movs	r3, #32
 753 0394 F6E7     		b	.L26
 754              	.L102:
 755 0396 4FF40063 		mov	r3, #2048
 756 039a F3E7     		b	.L26
 757              	.L103:
 758 039c 4FF40063 		mov	r3, #2048
 759 03a0 F0E7     		b	.L26
 760              	.L104:
 761 03a2 4FF40063 		mov	r3, #2048
 762 03a6 EDE7     		b	.L26
 763              	.L105:
 764 03a8 4FF40063 		mov	r3, #2048
 765 03ac EAE7     		b	.L26
 766              	.L106:
 767 03ae 4FF40013 		mov	r3, #2097152
 768 03b2 E7E7     		b	.L26
 769              	.L107:
 770 03b4 4FF40013 		mov	r3, #2097152
 771 03b8 E4E7     		b	.L26
 772              	.L108:
 773 03ba 4FF40013 		mov	r3, #2097152
 774 03be E1E7     		b	.L26
 775              	.LVL39:
 776              	.L306:
 198:Drivers/STM32F2xx_HAL_Driver/Src/stm32f2xx_hal_dma_ex.c ****     __HAL_DMA_CLEAR_FLAG (hdma, __HAL_DMA_GET_TE_FLAG_INDEX(hdma));
 777              		.loc 1 198 5 view .LVU185
 778 03c0 4FF48012 		mov	r2, #1048576
 779 03c4 00E0     		b	.L28
 780              	.L110:
 781 03c6 1022     		movs	r2, #16
 782              	.L28:
 198:Drivers/STM32F2xx_HAL_Driver/Src/stm32f2xx_hal_dma_ex.c ****     __HAL_DMA_CLEAR_FLAG (hdma, __HAL_DMA_GET_TE_FLAG_INDEX(hdma));
 783              		.loc 1 198 5 discriminator 50 view .LVU186
 784 03c8 874B     		ldr	r3, .L328+8
 785 03ca DA60     		str	r2, [r3, #12]
ARM GAS  C:\Users\Artem\AppData\Local\Temp\cc9eXbmh.s 			page 23


 786              	.L29:
 199:Drivers/STM32F2xx_HAL_Driver/Src/stm32f2xx_hal_dma_ex.c ****     __HAL_DMA_CLEAR_FLAG (hdma, __HAL_DMA_GET_DME_FLAG_INDEX(hdma));
 787              		.loc 1 199 5 is_stmt 1 view .LVU187
 788 03cc 2368     		ldr	r3, [r4]
 789 03ce 874A     		ldr	r2, .L328+12
 790 03d0 9342     		cmp	r3, r2
 791 03d2 40F2CD81 		bls	.L35
 199:Drivers/STM32F2xx_HAL_Driver/Src/stm32f2xx_hal_dma_ex.c ****     __HAL_DMA_CLEAR_FLAG (hdma, __HAL_DMA_GET_DME_FLAG_INDEX(hdma));
 792              		.loc 1 199 5 is_stmt 0 discriminator 1 view .LVU188
 793 03d6 A2F58962 		sub	r2, r2, #1096
 794 03da 9342     		cmp	r3, r2
 795 03dc 00F06681 		beq	.L158
 199:Drivers/STM32F2xx_HAL_Driver/Src/stm32f2xx_hal_dma_ex.c ****     __HAL_DMA_CLEAR_FLAG (hdma, __HAL_DMA_GET_DME_FLAG_INDEX(hdma));
 796              		.loc 1 199 5 discriminator 3 view .LVU189
 797 03e0 02F58062 		add	r2, r2, #1024
 798 03e4 9342     		cmp	r3, r2
 799 03e6 00F0A881 		beq	.L159
 199:Drivers/STM32F2xx_HAL_Driver/Src/stm32f2xx_hal_dma_ex.c ****     __HAL_DMA_CLEAR_FLAG (hdma, __HAL_DMA_GET_DME_FLAG_INDEX(hdma));
 800              		.loc 1 199 5 discriminator 5 view .LVU190
 801 03ea A2F56872 		sub	r2, r2, #928
 802 03ee 9342     		cmp	r3, r2
 803 03f0 00F0A581 		beq	.L160
 199:Drivers/STM32F2xx_HAL_Driver/Src/stm32f2xx_hal_dma_ex.c ****     __HAL_DMA_CLEAR_FLAG (hdma, __HAL_DMA_GET_DME_FLAG_INDEX(hdma));
 804              		.loc 1 199 5 discriminator 7 view .LVU191
 805 03f4 02F58062 		add	r2, r2, #1024
 806 03f8 9342     		cmp	r3, r2
 807 03fa 00F0A281 		beq	.L161
 199:Drivers/STM32F2xx_HAL_Driver/Src/stm32f2xx_hal_dma_ex.c ****     __HAL_DMA_CLEAR_FLAG (hdma, __HAL_DMA_GET_DME_FLAG_INDEX(hdma));
 808              		.loc 1 199 5 discriminator 9 view .LVU192
 809 03fe A2F58962 		sub	r2, r2, #1096
 810 0402 9342     		cmp	r3, r2
 811 0404 00F09F81 		beq	.L162
 199:Drivers/STM32F2xx_HAL_Driver/Src/stm32f2xx_hal_dma_ex.c ****     __HAL_DMA_CLEAR_FLAG (hdma, __HAL_DMA_GET_DME_FLAG_INDEX(hdma));
 812              		.loc 1 199 5 discriminator 11 view .LVU193
 813 0408 02F58062 		add	r2, r2, #1024
 814 040c 9342     		cmp	r3, r2
 815 040e 00F09D81 		beq	.L163
 199:Drivers/STM32F2xx_HAL_Driver/Src/stm32f2xx_hal_dma_ex.c ****     __HAL_DMA_CLEAR_FLAG (hdma, __HAL_DMA_GET_DME_FLAG_INDEX(hdma));
 816              		.loc 1 199 5 discriminator 13 view .LVU194
 817 0412 A2F56872 		sub	r2, r2, #928
 818 0416 9342     		cmp	r3, r2
 819 0418 00F09B81 		beq	.L164
 199:Drivers/STM32F2xx_HAL_Driver/Src/stm32f2xx_hal_dma_ex.c ****     __HAL_DMA_CLEAR_FLAG (hdma, __HAL_DMA_GET_DME_FLAG_INDEX(hdma));
 820              		.loc 1 199 5 discriminator 15 view .LVU195
 821 041c 02F58062 		add	r2, r2, #1024
 822 0420 9342     		cmp	r3, r2
 823 0422 00F09981 		beq	.L165
 199:Drivers/STM32F2xx_HAL_Driver/Src/stm32f2xx_hal_dma_ex.c ****     __HAL_DMA_CLEAR_FLAG (hdma, __HAL_DMA_GET_DME_FLAG_INDEX(hdma));
 824              		.loc 1 199 5 discriminator 17 view .LVU196
 825 0426 A2F58962 		sub	r2, r2, #1096
 826 042a 9342     		cmp	r3, r2
 827 042c 00F09781 		beq	.L166
 199:Drivers/STM32F2xx_HAL_Driver/Src/stm32f2xx_hal_dma_ex.c ****     __HAL_DMA_CLEAR_FLAG (hdma, __HAL_DMA_GET_DME_FLAG_INDEX(hdma));
 828              		.loc 1 199 5 discriminator 19 view .LVU197
 829 0430 02F58062 		add	r2, r2, #1024
 830 0434 9342     		cmp	r3, r2
 831 0436 00F09581 		beq	.L167
ARM GAS  C:\Users\Artem\AppData\Local\Temp\cc9eXbmh.s 			page 24


 199:Drivers/STM32F2xx_HAL_Driver/Src/stm32f2xx_hal_dma_ex.c ****     __HAL_DMA_CLEAR_FLAG (hdma, __HAL_DMA_GET_DME_FLAG_INDEX(hdma));
 832              		.loc 1 199 5 discriminator 21 view .LVU198
 833 043a A2F56872 		sub	r2, r2, #928
 834 043e 9342     		cmp	r3, r2
 835 0440 00F09381 		beq	.L168
 199:Drivers/STM32F2xx_HAL_Driver/Src/stm32f2xx_hal_dma_ex.c ****     __HAL_DMA_CLEAR_FLAG (hdma, __HAL_DMA_GET_DME_FLAG_INDEX(hdma));
 836              		.loc 1 199 5 discriminator 23 view .LVU199
 837 0444 02F58062 		add	r2, r2, #1024
 838 0448 9342     		cmp	r3, r2
 839 044a 00F02C81 		beq	.L310
 199:Drivers/STM32F2xx_HAL_Driver/Src/stm32f2xx_hal_dma_ex.c ****     __HAL_DMA_CLEAR_FLAG (hdma, __HAL_DMA_GET_DME_FLAG_INDEX(hdma));
 840              		.loc 1 199 5 view .LVU200
 841 044e 4FF00072 		mov	r2, #33554432
 842 0452 2CE1     		b	.L36
 843              	.L111:
 198:Drivers/STM32F2xx_HAL_Driver/Src/stm32f2xx_hal_dma_ex.c ****     __HAL_DMA_CLEAR_FLAG (hdma, __HAL_DMA_GET_TE_FLAG_INDEX(hdma));
 844              		.loc 1 198 5 view .LVU201
 845 0454 1022     		movs	r2, #16
 846 0456 B7E7     		b	.L28
 847              	.L112:
 848 0458 1022     		movs	r2, #16
 849 045a B5E7     		b	.L28
 850              	.L113:
 851 045c 1022     		movs	r2, #16
 852 045e B3E7     		b	.L28
 853              	.L114:
 854 0460 4FF48062 		mov	r2, #1024
 855 0464 B0E7     		b	.L28
 856              	.L115:
 857 0466 4FF48062 		mov	r2, #1024
 858 046a ADE7     		b	.L28
 859              	.L116:
 860 046c 4FF48062 		mov	r2, #1024
 861 0470 AAE7     		b	.L28
 862              	.L117:
 863 0472 4FF48062 		mov	r2, #1024
 864 0476 A7E7     		b	.L28
 865              	.L118:
 866 0478 4FF48012 		mov	r2, #1048576
 867 047c A4E7     		b	.L28
 868              	.L119:
 869 047e 4FF48012 		mov	r2, #1048576
 870 0482 A1E7     		b	.L28
 871              	.L120:
 872 0484 4FF48012 		mov	r2, #1048576
 873 0488 9EE7     		b	.L28
 874              	.L27:
 198:Drivers/STM32F2xx_HAL_Driver/Src/stm32f2xx_hal_dma_ex.c ****     __HAL_DMA_CLEAR_FLAG (hdma, __HAL_DMA_GET_TE_FLAG_INDEX(hdma));
 875              		.loc 1 198 5 discriminator 2 view .LVU202
 876 048a 594A     		ldr	r2, .L328+16
 877 048c 9342     		cmp	r3, r2
 878 048e 53D9     		bls	.L30
 198:Drivers/STM32F2xx_HAL_Driver/Src/stm32f2xx_hal_dma_ex.c ****     __HAL_DMA_CLEAR_FLAG (hdma, __HAL_DMA_GET_TE_FLAG_INDEX(hdma));
 879              		.loc 1 198 5 discriminator 51 view .LVU203
 880 0490 A83A     		subs	r2, r2, #168
 881 0492 9342     		cmp	r3, r2
 882 0494 31D0     		beq	.L122
ARM GAS  C:\Users\Artem\AppData\Local\Temp\cc9eXbmh.s 			page 25


 198:Drivers/STM32F2xx_HAL_Driver/Src/stm32f2xx_hal_dma_ex.c ****     __HAL_DMA_CLEAR_FLAG (hdma, __HAL_DMA_GET_TE_FLAG_INDEX(hdma));
 883              		.loc 1 198 5 discriminator 53 view .LVU204
 884 0496 02F58062 		add	r2, r2, #1024
 885 049a 9342     		cmp	r3, r2
 886 049c 31D0     		beq	.L123
 198:Drivers/STM32F2xx_HAL_Driver/Src/stm32f2xx_hal_dma_ex.c ****     __HAL_DMA_CLEAR_FLAG (hdma, __HAL_DMA_GET_TE_FLAG_INDEX(hdma));
 887              		.loc 1 198 5 discriminator 55 view .LVU205
 888 049e A2F56872 		sub	r2, r2, #928
 889 04a2 9342     		cmp	r3, r2
 890 04a4 2FD0     		beq	.L124
 198:Drivers/STM32F2xx_HAL_Driver/Src/stm32f2xx_hal_dma_ex.c ****     __HAL_DMA_CLEAR_FLAG (hdma, __HAL_DMA_GET_TE_FLAG_INDEX(hdma));
 891              		.loc 1 198 5 discriminator 57 view .LVU206
 892 04a6 02F58062 		add	r2, r2, #1024
 893 04aa 9342     		cmp	r3, r2
 894 04ac 2DD0     		beq	.L125
 198:Drivers/STM32F2xx_HAL_Driver/Src/stm32f2xx_hal_dma_ex.c ****     __HAL_DMA_CLEAR_FLAG (hdma, __HAL_DMA_GET_TE_FLAG_INDEX(hdma));
 895              		.loc 1 198 5 discriminator 59 view .LVU207
 896 04ae A2F58962 		sub	r2, r2, #1096
 897 04b2 9342     		cmp	r3, r2
 898 04b4 2BD0     		beq	.L126
 198:Drivers/STM32F2xx_HAL_Driver/Src/stm32f2xx_hal_dma_ex.c ****     __HAL_DMA_CLEAR_FLAG (hdma, __HAL_DMA_GET_TE_FLAG_INDEX(hdma));
 899              		.loc 1 198 5 discriminator 61 view .LVU208
 900 04b6 02F58062 		add	r2, r2, #1024
 901 04ba 9342     		cmp	r3, r2
 902 04bc 2AD0     		beq	.L127
 198:Drivers/STM32F2xx_HAL_Driver/Src/stm32f2xx_hal_dma_ex.c ****     __HAL_DMA_CLEAR_FLAG (hdma, __HAL_DMA_GET_TE_FLAG_INDEX(hdma));
 903              		.loc 1 198 5 discriminator 63 view .LVU209
 904 04be A2F56872 		sub	r2, r2, #928
 905 04c2 9342     		cmp	r3, r2
 906 04c4 29D0     		beq	.L128
 198:Drivers/STM32F2xx_HAL_Driver/Src/stm32f2xx_hal_dma_ex.c ****     __HAL_DMA_CLEAR_FLAG (hdma, __HAL_DMA_GET_TE_FLAG_INDEX(hdma));
 907              		.loc 1 198 5 discriminator 65 view .LVU210
 908 04c6 02F58062 		add	r2, r2, #1024
 909 04ca 9342     		cmp	r3, r2
 910 04cc 28D0     		beq	.L129
 198:Drivers/STM32F2xx_HAL_Driver/Src/stm32f2xx_hal_dma_ex.c ****     __HAL_DMA_CLEAR_FLAG (hdma, __HAL_DMA_GET_TE_FLAG_INDEX(hdma));
 911              		.loc 1 198 5 discriminator 67 view .LVU211
 912 04ce A2F58962 		sub	r2, r2, #1096
 913 04d2 9342     		cmp	r3, r2
 914 04d4 27D0     		beq	.L130
 198:Drivers/STM32F2xx_HAL_Driver/Src/stm32f2xx_hal_dma_ex.c ****     __HAL_DMA_CLEAR_FLAG (hdma, __HAL_DMA_GET_TE_FLAG_INDEX(hdma));
 915              		.loc 1 198 5 discriminator 69 view .LVU212
 916 04d6 02F58062 		add	r2, r2, #1024
 917 04da 9342     		cmp	r3, r2
 918 04dc 26D0     		beq	.L131
 198:Drivers/STM32F2xx_HAL_Driver/Src/stm32f2xx_hal_dma_ex.c ****     __HAL_DMA_CLEAR_FLAG (hdma, __HAL_DMA_GET_TE_FLAG_INDEX(hdma));
 919              		.loc 1 198 5 discriminator 71 view .LVU213
 920 04de A2F56872 		sub	r2, r2, #928
 921 04e2 9342     		cmp	r3, r2
 922 04e4 25D0     		beq	.L132
 198:Drivers/STM32F2xx_HAL_Driver/Src/stm32f2xx_hal_dma_ex.c ****     __HAL_DMA_CLEAR_FLAG (hdma, __HAL_DMA_GET_TE_FLAG_INDEX(hdma));
 923              		.loc 1 198 5 discriminator 73 view .LVU214
 924 04e6 02F58062 		add	r2, r2, #1024
 925 04ea 9342     		cmp	r3, r2
 926 04ec 02D0     		beq	.L311
 198:Drivers/STM32F2xx_HAL_Driver/Src/stm32f2xx_hal_dma_ex.c ****     __HAL_DMA_CLEAR_FLAG (hdma, __HAL_DMA_GET_TE_FLAG_INDEX(hdma));
 927              		.loc 1 198 5 view .LVU215
ARM GAS  C:\Users\Artem\AppData\Local\Temp\cc9eXbmh.s 			page 26


 928 04ee 4FF08063 		mov	r3, #67108864
 929 04f2 03E0     		b	.L31
 930              	.L311:
 931 04f4 4FF48013 		mov	r3, #1048576
 932 04f8 00E0     		b	.L31
 933              	.L122:
 934 04fa 1023     		movs	r3, #16
 935              	.L31:
 198:Drivers/STM32F2xx_HAL_Driver/Src/stm32f2xx_hal_dma_ex.c ****     __HAL_DMA_CLEAR_FLAG (hdma, __HAL_DMA_GET_TE_FLAG_INDEX(hdma));
 936              		.loc 1 198 5 discriminator 100 view .LVU216
 937 04fc 3A4A     		ldr	r2, .L328+8
 938 04fe 9360     		str	r3, [r2, #8]
 939 0500 64E7     		b	.L29
 940              	.L123:
 198:Drivers/STM32F2xx_HAL_Driver/Src/stm32f2xx_hal_dma_ex.c ****     __HAL_DMA_CLEAR_FLAG (hdma, __HAL_DMA_GET_TE_FLAG_INDEX(hdma));
 941              		.loc 1 198 5 view .LVU217
 942 0502 1023     		movs	r3, #16
 943 0504 FAE7     		b	.L31
 944              	.L124:
 945 0506 1023     		movs	r3, #16
 946 0508 F8E7     		b	.L31
 947              	.L125:
 948 050a 1023     		movs	r3, #16
 949 050c F6E7     		b	.L31
 950              	.L126:
 951 050e 4FF48063 		mov	r3, #1024
 952 0512 F3E7     		b	.L31
 953              	.L127:
 954 0514 4FF48063 		mov	r3, #1024
 955 0518 F0E7     		b	.L31
 956              	.L128:
 957 051a 4FF48063 		mov	r3, #1024
 958 051e EDE7     		b	.L31
 959              	.L129:
 960 0520 4FF48063 		mov	r3, #1024
 961 0524 EAE7     		b	.L31
 962              	.L130:
 963 0526 4FF48013 		mov	r3, #1048576
 964 052a E7E7     		b	.L31
 965              	.L131:
 966 052c 4FF48013 		mov	r3, #1048576
 967 0530 E4E7     		b	.L31
 968              	.L132:
 969 0532 4FF48013 		mov	r3, #1048576
 970 0536 E1E7     		b	.L31
 971              	.L30:
 198:Drivers/STM32F2xx_HAL_Driver/Src/stm32f2xx_hal_dma_ex.c ****     __HAL_DMA_CLEAR_FLAG (hdma, __HAL_DMA_GET_TE_FLAG_INDEX(hdma));
 972              		.loc 1 198 5 discriminator 52 view .LVU218
 973 0538 2E4A     		ldr	r2, .L328+20
 974 053a 9342     		cmp	r3, r2
 975 053c 5FD9     		bls	.L32
 198:Drivers/STM32F2xx_HAL_Driver/Src/stm32f2xx_hal_dma_ex.c ****     __HAL_DMA_CLEAR_FLAG (hdma, __HAL_DMA_GET_TE_FLAG_INDEX(hdma));
 976              		.loc 1 198 5 discriminator 102 view .LVU219
 977 053e 483A     		subs	r2, r2, #72
 978 0540 9342     		cmp	r3, r2
 979 0542 31D0     		beq	.L134
 198:Drivers/STM32F2xx_HAL_Driver/Src/stm32f2xx_hal_dma_ex.c ****     __HAL_DMA_CLEAR_FLAG (hdma, __HAL_DMA_GET_TE_FLAG_INDEX(hdma));
ARM GAS  C:\Users\Artem\AppData\Local\Temp\cc9eXbmh.s 			page 27


 980              		.loc 1 198 5 discriminator 104 view .LVU220
 981 0544 02F58062 		add	r2, r2, #1024
 982 0548 9342     		cmp	r3, r2
 983 054a 31D0     		beq	.L135
 198:Drivers/STM32F2xx_HAL_Driver/Src/stm32f2xx_hal_dma_ex.c ****     __HAL_DMA_CLEAR_FLAG (hdma, __HAL_DMA_GET_TE_FLAG_INDEX(hdma));
 984              		.loc 1 198 5 discriminator 106 view .LVU221
 985 054c A2F56872 		sub	r2, r2, #928
 986 0550 9342     		cmp	r3, r2
 987 0552 2FD0     		beq	.L136
 198:Drivers/STM32F2xx_HAL_Driver/Src/stm32f2xx_hal_dma_ex.c ****     __HAL_DMA_CLEAR_FLAG (hdma, __HAL_DMA_GET_TE_FLAG_INDEX(hdma));
 988              		.loc 1 198 5 discriminator 108 view .LVU222
 989 0554 02F58062 		add	r2, r2, #1024
 990 0558 9342     		cmp	r3, r2
 991 055a 2DD0     		beq	.L137
 198:Drivers/STM32F2xx_HAL_Driver/Src/stm32f2xx_hal_dma_ex.c ****     __HAL_DMA_CLEAR_FLAG (hdma, __HAL_DMA_GET_TE_FLAG_INDEX(hdma));
 992              		.loc 1 198 5 discriminator 110 view .LVU223
 993 055c A2F58962 		sub	r2, r2, #1096
 994 0560 9342     		cmp	r3, r2
 995 0562 2BD0     		beq	.L138
 198:Drivers/STM32F2xx_HAL_Driver/Src/stm32f2xx_hal_dma_ex.c ****     __HAL_DMA_CLEAR_FLAG (hdma, __HAL_DMA_GET_TE_FLAG_INDEX(hdma));
 996              		.loc 1 198 5 discriminator 112 view .LVU224
 997 0564 02F58062 		add	r2, r2, #1024
 998 0568 9342     		cmp	r3, r2
 999 056a 2AD0     		beq	.L139
 198:Drivers/STM32F2xx_HAL_Driver/Src/stm32f2xx_hal_dma_ex.c ****     __HAL_DMA_CLEAR_FLAG (hdma, __HAL_DMA_GET_TE_FLAG_INDEX(hdma));
 1000              		.loc 1 198 5 discriminator 114 view .LVU225
 1001 056c A2F56872 		sub	r2, r2, #928
 1002 0570 9342     		cmp	r3, r2
 1003 0572 29D0     		beq	.L140
 198:Drivers/STM32F2xx_HAL_Driver/Src/stm32f2xx_hal_dma_ex.c ****     __HAL_DMA_CLEAR_FLAG (hdma, __HAL_DMA_GET_TE_FLAG_INDEX(hdma));
 1004              		.loc 1 198 5 discriminator 116 view .LVU226
 1005 0574 02F58062 		add	r2, r2, #1024
 1006 0578 9342     		cmp	r3, r2
 1007 057a 28D0     		beq	.L141
 198:Drivers/STM32F2xx_HAL_Driver/Src/stm32f2xx_hal_dma_ex.c ****     __HAL_DMA_CLEAR_FLAG (hdma, __HAL_DMA_GET_TE_FLAG_INDEX(hdma));
 1008              		.loc 1 198 5 discriminator 118 view .LVU227
 1009 057c A2F58962 		sub	r2, r2, #1096
 1010 0580 9342     		cmp	r3, r2
 1011 0582 27D0     		beq	.L142
 198:Drivers/STM32F2xx_HAL_Driver/Src/stm32f2xx_hal_dma_ex.c ****     __HAL_DMA_CLEAR_FLAG (hdma, __HAL_DMA_GET_TE_FLAG_INDEX(hdma));
 1012              		.loc 1 198 5 discriminator 120 view .LVU228
 1013 0584 02F58062 		add	r2, r2, #1024
 1014 0588 9342     		cmp	r3, r2
 1015 058a 26D0     		beq	.L143
 198:Drivers/STM32F2xx_HAL_Driver/Src/stm32f2xx_hal_dma_ex.c ****     __HAL_DMA_CLEAR_FLAG (hdma, __HAL_DMA_GET_TE_FLAG_INDEX(hdma));
 1016              		.loc 1 198 5 discriminator 122 view .LVU229
 1017 058c A2F56872 		sub	r2, r2, #928
 1018 0590 9342     		cmp	r3, r2
 1019 0592 31D0     		beq	.L144
 198:Drivers/STM32F2xx_HAL_Driver/Src/stm32f2xx_hal_dma_ex.c ****     __HAL_DMA_CLEAR_FLAG (hdma, __HAL_DMA_GET_TE_FLAG_INDEX(hdma));
 1020              		.loc 1 198 5 discriminator 124 view .LVU230
 1021 0594 02F58062 		add	r2, r2, #1024
 1022 0598 9342     		cmp	r3, r2
 1023 059a 02D0     		beq	.L312
 198:Drivers/STM32F2xx_HAL_Driver/Src/stm32f2xx_hal_dma_ex.c ****     __HAL_DMA_CLEAR_FLAG (hdma, __HAL_DMA_GET_TE_FLAG_INDEX(hdma));
 1024              		.loc 1 198 5 view .LVU231
 1025 059c 4FF08063 		mov	r3, #67108864
ARM GAS  C:\Users\Artem\AppData\Local\Temp\cc9eXbmh.s 			page 28


 1026 05a0 03E0     		b	.L33
 1027              	.L312:
 1028 05a2 4FF48013 		mov	r3, #1048576
 1029 05a6 00E0     		b	.L33
 1030              	.L134:
 1031 05a8 1023     		movs	r3, #16
 1032              	.L33:
 198:Drivers/STM32F2xx_HAL_Driver/Src/stm32f2xx_hal_dma_ex.c ****     __HAL_DMA_CLEAR_FLAG (hdma, __HAL_DMA_GET_TE_FLAG_INDEX(hdma));
 1033              		.loc 1 198 5 discriminator 151 view .LVU232
 1034 05aa 0E4A     		ldr	r2, .L328+4
 1035 05ac D360     		str	r3, [r2, #12]
 1036 05ae 0DE7     		b	.L29
 1037              	.L135:
 198:Drivers/STM32F2xx_HAL_Driver/Src/stm32f2xx_hal_dma_ex.c ****     __HAL_DMA_CLEAR_FLAG (hdma, __HAL_DMA_GET_TE_FLAG_INDEX(hdma));
 1038              		.loc 1 198 5 view .LVU233
 1039 05b0 1023     		movs	r3, #16
 1040 05b2 FAE7     		b	.L33
 1041              	.L136:
 1042 05b4 1023     		movs	r3, #16
 1043 05b6 F8E7     		b	.L33
 1044              	.L137:
 1045 05b8 1023     		movs	r3, #16
 1046 05ba F6E7     		b	.L33
 1047              	.L138:
 1048 05bc 4FF48063 		mov	r3, #1024
 1049 05c0 F3E7     		b	.L33
 1050              	.L139:
 1051 05c2 4FF48063 		mov	r3, #1024
 1052 05c6 F0E7     		b	.L33
 1053              	.L140:
 1054 05c8 4FF48063 		mov	r3, #1024
 1055 05cc EDE7     		b	.L33
 1056              	.L141:
 1057 05ce 4FF48063 		mov	r3, #1024
 1058 05d2 EAE7     		b	.L33
 1059              	.L142:
 1060 05d4 4FF48013 		mov	r3, #1048576
 1061 05d8 E7E7     		b	.L33
 1062              	.L143:
 1063 05da 4FF48013 		mov	r3, #1048576
 1064 05de E4E7     		b	.L33
 1065              	.L329:
 1066              		.align	2
 1067              	.L328:
 1068 05e0 10600240 		.word	1073897488
 1069 05e4 00600240 		.word	1073897472
 1070 05e8 00640240 		.word	1073898496
 1071 05ec 58640240 		.word	1073898584
 1072 05f0 B8600240 		.word	1073897656
 1073 05f4 58600240 		.word	1073897560
 1074              	.L144:
 1075 05f8 4FF48013 		mov	r3, #1048576
 1076 05fc D5E7     		b	.L33
 1077              	.L32:
 198:Drivers/STM32F2xx_HAL_Driver/Src/stm32f2xx_hal_dma_ex.c ****     __HAL_DMA_CLEAR_FLAG (hdma, __HAL_DMA_GET_TE_FLAG_INDEX(hdma));
 1078              		.loc 1 198 5 discriminator 103 view .LVU234
 1079 05fe B24A     		ldr	r2, .L330
ARM GAS  C:\Users\Artem\AppData\Local\Temp\cc9eXbmh.s 			page 29


 1080 0600 9342     		cmp	r3, r2
 1081 0602 31D0     		beq	.L146
 198:Drivers/STM32F2xx_HAL_Driver/Src/stm32f2xx_hal_dma_ex.c ****     __HAL_DMA_CLEAR_FLAG (hdma, __HAL_DMA_GET_TE_FLAG_INDEX(hdma));
 1082              		.loc 1 198 5 discriminator 153 view .LVU235
 1083 0604 02F58062 		add	r2, r2, #1024
 1084 0608 9342     		cmp	r3, r2
 1085 060a 31D0     		beq	.L147
 198:Drivers/STM32F2xx_HAL_Driver/Src/stm32f2xx_hal_dma_ex.c ****     __HAL_DMA_CLEAR_FLAG (hdma, __HAL_DMA_GET_TE_FLAG_INDEX(hdma));
 1086              		.loc 1 198 5 discriminator 155 view .LVU236
 1087 060c A2F56872 		sub	r2, r2, #928
 1088 0610 9342     		cmp	r3, r2
 1089 0612 2FD0     		beq	.L148
 198:Drivers/STM32F2xx_HAL_Driver/Src/stm32f2xx_hal_dma_ex.c ****     __HAL_DMA_CLEAR_FLAG (hdma, __HAL_DMA_GET_TE_FLAG_INDEX(hdma));
 1090              		.loc 1 198 5 discriminator 157 view .LVU237
 1091 0614 02F58062 		add	r2, r2, #1024
 1092 0618 9342     		cmp	r3, r2
 1093 061a 2DD0     		beq	.L149
 198:Drivers/STM32F2xx_HAL_Driver/Src/stm32f2xx_hal_dma_ex.c ****     __HAL_DMA_CLEAR_FLAG (hdma, __HAL_DMA_GET_TE_FLAG_INDEX(hdma));
 1094              		.loc 1 198 5 discriminator 159 view .LVU238
 1095 061c A2F58962 		sub	r2, r2, #1096
 1096 0620 9342     		cmp	r3, r2
 1097 0622 2BD0     		beq	.L150
 198:Drivers/STM32F2xx_HAL_Driver/Src/stm32f2xx_hal_dma_ex.c ****     __HAL_DMA_CLEAR_FLAG (hdma, __HAL_DMA_GET_TE_FLAG_INDEX(hdma));
 1098              		.loc 1 198 5 discriminator 161 view .LVU239
 1099 0624 02F58062 		add	r2, r2, #1024
 1100 0628 9342     		cmp	r3, r2
 1101 062a 2AD0     		beq	.L151
 198:Drivers/STM32F2xx_HAL_Driver/Src/stm32f2xx_hal_dma_ex.c ****     __HAL_DMA_CLEAR_FLAG (hdma, __HAL_DMA_GET_TE_FLAG_INDEX(hdma));
 1102              		.loc 1 198 5 discriminator 163 view .LVU240
 1103 062c A2F56872 		sub	r2, r2, #928
 1104 0630 9342     		cmp	r3, r2
 1105 0632 29D0     		beq	.L152
 198:Drivers/STM32F2xx_HAL_Driver/Src/stm32f2xx_hal_dma_ex.c ****     __HAL_DMA_CLEAR_FLAG (hdma, __HAL_DMA_GET_TE_FLAG_INDEX(hdma));
 1106              		.loc 1 198 5 discriminator 165 view .LVU241
 1107 0634 02F58062 		add	r2, r2, #1024
 1108 0638 9342     		cmp	r3, r2
 1109 063a 28D0     		beq	.L153
 198:Drivers/STM32F2xx_HAL_Driver/Src/stm32f2xx_hal_dma_ex.c ****     __HAL_DMA_CLEAR_FLAG (hdma, __HAL_DMA_GET_TE_FLAG_INDEX(hdma));
 1110              		.loc 1 198 5 discriminator 167 view .LVU242
 1111 063c A2F58962 		sub	r2, r2, #1096
 1112 0640 9342     		cmp	r3, r2
 1113 0642 27D0     		beq	.L154
 198:Drivers/STM32F2xx_HAL_Driver/Src/stm32f2xx_hal_dma_ex.c ****     __HAL_DMA_CLEAR_FLAG (hdma, __HAL_DMA_GET_TE_FLAG_INDEX(hdma));
 1114              		.loc 1 198 5 discriminator 169 view .LVU243
 1115 0644 02F58062 		add	r2, r2, #1024
 1116 0648 9342     		cmp	r3, r2
 1117 064a 26D0     		beq	.L155
 198:Drivers/STM32F2xx_HAL_Driver/Src/stm32f2xx_hal_dma_ex.c ****     __HAL_DMA_CLEAR_FLAG (hdma, __HAL_DMA_GET_TE_FLAG_INDEX(hdma));
 1118              		.loc 1 198 5 discriminator 171 view .LVU244
 1119 064c A2F56872 		sub	r2, r2, #928
 1120 0650 9342     		cmp	r3, r2
 1121 0652 25D0     		beq	.L156
 198:Drivers/STM32F2xx_HAL_Driver/Src/stm32f2xx_hal_dma_ex.c ****     __HAL_DMA_CLEAR_FLAG (hdma, __HAL_DMA_GET_TE_FLAG_INDEX(hdma));
 1122              		.loc 1 198 5 discriminator 173 view .LVU245
 1123 0654 02F58062 		add	r2, r2, #1024
 1124 0658 9342     		cmp	r3, r2
 1125 065a 02D0     		beq	.L313
ARM GAS  C:\Users\Artem\AppData\Local\Temp\cc9eXbmh.s 			page 30


 198:Drivers/STM32F2xx_HAL_Driver/Src/stm32f2xx_hal_dma_ex.c ****     __HAL_DMA_CLEAR_FLAG (hdma, __HAL_DMA_GET_TE_FLAG_INDEX(hdma));
 1126              		.loc 1 198 5 view .LVU246
 1127 065c 4FF08063 		mov	r3, #67108864
 1128 0660 03E0     		b	.L34
 1129              	.L313:
 1130 0662 4FF48013 		mov	r3, #1048576
 1131 0666 00E0     		b	.L34
 1132              	.L146:
 1133 0668 1023     		movs	r3, #16
 1134              	.L34:
 198:Drivers/STM32F2xx_HAL_Driver/Src/stm32f2xx_hal_dma_ex.c ****     __HAL_DMA_CLEAR_FLAG (hdma, __HAL_DMA_GET_TE_FLAG_INDEX(hdma));
 1135              		.loc 1 198 5 discriminator 200 view .LVU247
 1136 066a 984A     		ldr	r2, .L330+4
 1137 066c 9360     		str	r3, [r2, #8]
 1138 066e ADE6     		b	.L29
 1139              	.L147:
 198:Drivers/STM32F2xx_HAL_Driver/Src/stm32f2xx_hal_dma_ex.c ****     __HAL_DMA_CLEAR_FLAG (hdma, __HAL_DMA_GET_TE_FLAG_INDEX(hdma));
 1140              		.loc 1 198 5 view .LVU248
 1141 0670 1023     		movs	r3, #16
 1142 0672 FAE7     		b	.L34
 1143              	.L148:
 1144 0674 1023     		movs	r3, #16
 1145 0676 F8E7     		b	.L34
 1146              	.L149:
 1147 0678 1023     		movs	r3, #16
 1148 067a F6E7     		b	.L34
 1149              	.L150:
 1150 067c 4FF48063 		mov	r3, #1024
 1151 0680 F3E7     		b	.L34
 1152              	.L151:
 1153 0682 4FF48063 		mov	r3, #1024
 1154 0686 F0E7     		b	.L34
 1155              	.L152:
 1156 0688 4FF48063 		mov	r3, #1024
 1157 068c EDE7     		b	.L34
 1158              	.L153:
 1159 068e 4FF48063 		mov	r3, #1024
 1160 0692 EAE7     		b	.L34
 1161              	.L154:
 1162 0694 4FF48013 		mov	r3, #1048576
 1163 0698 E7E7     		b	.L34
 1164              	.L155:
 1165 069a 4FF48013 		mov	r3, #1048576
 1166 069e E4E7     		b	.L34
 1167              	.L156:
 1168 06a0 4FF48013 		mov	r3, #1048576
 1169 06a4 E1E7     		b	.L34
 1170              	.L310:
 199:Drivers/STM32F2xx_HAL_Driver/Src/stm32f2xx_hal_dma_ex.c ****     __HAL_DMA_CLEAR_FLAG (hdma, __HAL_DMA_GET_DME_FLAG_INDEX(hdma));
 1171              		.loc 1 199 5 view .LVU249
 1172 06a6 4FF40022 		mov	r2, #524288
 1173 06aa 00E0     		b	.L36
 1174              	.L158:
 1175 06ac 0822     		movs	r2, #8
 1176              	.L36:
 199:Drivers/STM32F2xx_HAL_Driver/Src/stm32f2xx_hal_dma_ex.c ****     __HAL_DMA_CLEAR_FLAG (hdma, __HAL_DMA_GET_DME_FLAG_INDEX(hdma));
 1177              		.loc 1 199 5 discriminator 50 view .LVU250
ARM GAS  C:\Users\Artem\AppData\Local\Temp\cc9eXbmh.s 			page 31


 1178 06ae 884B     		ldr	r3, .L330+8
 1179 06b0 DA60     		str	r2, [r3, #12]
 1180              	.L37:
 200:Drivers/STM32F2xx_HAL_Driver/Src/stm32f2xx_hal_dma_ex.c ****     __HAL_DMA_CLEAR_FLAG (hdma, __HAL_DMA_GET_FE_FLAG_INDEX(hdma));
 1181              		.loc 1 200 5 is_stmt 1 view .LVU251
 1182 06b2 2368     		ldr	r3, [r4]
 1183 06b4 874A     		ldr	r2, .L330+12
 1184 06b6 9342     		cmp	r3, r2
 1185 06b8 40F2CE81 		bls	.L43
 200:Drivers/STM32F2xx_HAL_Driver/Src/stm32f2xx_hal_dma_ex.c ****     __HAL_DMA_CLEAR_FLAG (hdma, __HAL_DMA_GET_FE_FLAG_INDEX(hdma));
 1186              		.loc 1 200 5 is_stmt 0 discriminator 1 view .LVU252
 1187 06bc A2F58962 		sub	r2, r2, #1096
 1188 06c0 9342     		cmp	r3, r2
 1189 06c2 00F06781 		beq	.L206
 200:Drivers/STM32F2xx_HAL_Driver/Src/stm32f2xx_hal_dma_ex.c ****     __HAL_DMA_CLEAR_FLAG (hdma, __HAL_DMA_GET_FE_FLAG_INDEX(hdma));
 1190              		.loc 1 200 5 discriminator 3 view .LVU253
 1191 06c6 02F58062 		add	r2, r2, #1024
 1192 06ca 9342     		cmp	r3, r2
 1193 06cc 00F0A981 		beq	.L207
 200:Drivers/STM32F2xx_HAL_Driver/Src/stm32f2xx_hal_dma_ex.c ****     __HAL_DMA_CLEAR_FLAG (hdma, __HAL_DMA_GET_FE_FLAG_INDEX(hdma));
 1194              		.loc 1 200 5 discriminator 5 view .LVU254
 1195 06d0 A2F56872 		sub	r2, r2, #928
 1196 06d4 9342     		cmp	r3, r2
 1197 06d6 00F0A681 		beq	.L208
 200:Drivers/STM32F2xx_HAL_Driver/Src/stm32f2xx_hal_dma_ex.c ****     __HAL_DMA_CLEAR_FLAG (hdma, __HAL_DMA_GET_FE_FLAG_INDEX(hdma));
 1198              		.loc 1 200 5 discriminator 7 view .LVU255
 1199 06da 02F58062 		add	r2, r2, #1024
 1200 06de 9342     		cmp	r3, r2
 1201 06e0 00F0A381 		beq	.L209
 200:Drivers/STM32F2xx_HAL_Driver/Src/stm32f2xx_hal_dma_ex.c ****     __HAL_DMA_CLEAR_FLAG (hdma, __HAL_DMA_GET_FE_FLAG_INDEX(hdma));
 1202              		.loc 1 200 5 discriminator 9 view .LVU256
 1203 06e4 A2F58962 		sub	r2, r2, #1096
 1204 06e8 9342     		cmp	r3, r2
 1205 06ea 00F0A081 		beq	.L210
 200:Drivers/STM32F2xx_HAL_Driver/Src/stm32f2xx_hal_dma_ex.c ****     __HAL_DMA_CLEAR_FLAG (hdma, __HAL_DMA_GET_FE_FLAG_INDEX(hdma));
 1206              		.loc 1 200 5 discriminator 11 view .LVU257
 1207 06ee 02F58062 		add	r2, r2, #1024
 1208 06f2 9342     		cmp	r3, r2
 1209 06f4 00F09E81 		beq	.L211
 200:Drivers/STM32F2xx_HAL_Driver/Src/stm32f2xx_hal_dma_ex.c ****     __HAL_DMA_CLEAR_FLAG (hdma, __HAL_DMA_GET_FE_FLAG_INDEX(hdma));
 1210              		.loc 1 200 5 discriminator 13 view .LVU258
 1211 06f8 A2F56872 		sub	r2, r2, #928
 1212 06fc 9342     		cmp	r3, r2
 1213 06fe 00F09C81 		beq	.L212
 200:Drivers/STM32F2xx_HAL_Driver/Src/stm32f2xx_hal_dma_ex.c ****     __HAL_DMA_CLEAR_FLAG (hdma, __HAL_DMA_GET_FE_FLAG_INDEX(hdma));
 1214              		.loc 1 200 5 discriminator 15 view .LVU259
 1215 0702 02F58062 		add	r2, r2, #1024
 1216 0706 9342     		cmp	r3, r2
 1217 0708 00F09A81 		beq	.L213
 200:Drivers/STM32F2xx_HAL_Driver/Src/stm32f2xx_hal_dma_ex.c ****     __HAL_DMA_CLEAR_FLAG (hdma, __HAL_DMA_GET_FE_FLAG_INDEX(hdma));
 1218              		.loc 1 200 5 discriminator 17 view .LVU260
 1219 070c A2F58962 		sub	r2, r2, #1096
 1220 0710 9342     		cmp	r3, r2
 1221 0712 00F09881 		beq	.L214
 200:Drivers/STM32F2xx_HAL_Driver/Src/stm32f2xx_hal_dma_ex.c ****     __HAL_DMA_CLEAR_FLAG (hdma, __HAL_DMA_GET_FE_FLAG_INDEX(hdma));
 1222              		.loc 1 200 5 discriminator 19 view .LVU261
 1223 0716 02F58062 		add	r2, r2, #1024
ARM GAS  C:\Users\Artem\AppData\Local\Temp\cc9eXbmh.s 			page 32


 1224 071a 9342     		cmp	r3, r2
 1225 071c 00F09681 		beq	.L215
 200:Drivers/STM32F2xx_HAL_Driver/Src/stm32f2xx_hal_dma_ex.c ****     __HAL_DMA_CLEAR_FLAG (hdma, __HAL_DMA_GET_FE_FLAG_INDEX(hdma));
 1226              		.loc 1 200 5 discriminator 21 view .LVU262
 1227 0720 A2F56872 		sub	r2, r2, #928
 1228 0724 9342     		cmp	r3, r2
 1229 0726 00F09481 		beq	.L216
 200:Drivers/STM32F2xx_HAL_Driver/Src/stm32f2xx_hal_dma_ex.c ****     __HAL_DMA_CLEAR_FLAG (hdma, __HAL_DMA_GET_FE_FLAG_INDEX(hdma));
 1230              		.loc 1 200 5 discriminator 23 view .LVU263
 1231 072a 02F58062 		add	r2, r2, #1024
 1232 072e 9342     		cmp	r3, r2
 1233 0730 00F02D81 		beq	.L314
 200:Drivers/STM32F2xx_HAL_Driver/Src/stm32f2xx_hal_dma_ex.c ****     __HAL_DMA_CLEAR_FLAG (hdma, __HAL_DMA_GET_FE_FLAG_INDEX(hdma));
 1234              		.loc 1 200 5 view .LVU264
 1235 0734 4FF08072 		mov	r2, #16777216
 1236 0738 2DE1     		b	.L44
 1237              	.L159:
 199:Drivers/STM32F2xx_HAL_Driver/Src/stm32f2xx_hal_dma_ex.c ****     __HAL_DMA_CLEAR_FLAG (hdma, __HAL_DMA_GET_DME_FLAG_INDEX(hdma));
 1238              		.loc 1 199 5 view .LVU265
 1239 073a 0822     		movs	r2, #8
 1240 073c B7E7     		b	.L36
 1241              	.L160:
 1242 073e 0822     		movs	r2, #8
 1243 0740 B5E7     		b	.L36
 1244              	.L161:
 1245 0742 0822     		movs	r2, #8
 1246 0744 B3E7     		b	.L36
 1247              	.L162:
 1248 0746 4FF40072 		mov	r2, #512
 1249 074a B0E7     		b	.L36
 1250              	.L163:
 1251 074c 4FF40072 		mov	r2, #512
 1252 0750 ADE7     		b	.L36
 1253              	.L164:
 1254 0752 4FF40072 		mov	r2, #512
 1255 0756 AAE7     		b	.L36
 1256              	.L165:
 1257 0758 4FF40072 		mov	r2, #512
 1258 075c A7E7     		b	.L36
 1259              	.L166:
 1260 075e 4FF40022 		mov	r2, #524288
 1261 0762 A4E7     		b	.L36
 1262              	.L167:
 1263 0764 4FF40022 		mov	r2, #524288
 1264 0768 A1E7     		b	.L36
 1265              	.L168:
 1266 076a 4FF40022 		mov	r2, #524288
 1267 076e 9EE7     		b	.L36
 1268              	.L35:
 199:Drivers/STM32F2xx_HAL_Driver/Src/stm32f2xx_hal_dma_ex.c ****     __HAL_DMA_CLEAR_FLAG (hdma, __HAL_DMA_GET_DME_FLAG_INDEX(hdma));
 1269              		.loc 1 199 5 discriminator 2 view .LVU266
 1270 0770 594A     		ldr	r2, .L330+16
 1271 0772 9342     		cmp	r3, r2
 1272 0774 53D9     		bls	.L38
 199:Drivers/STM32F2xx_HAL_Driver/Src/stm32f2xx_hal_dma_ex.c ****     __HAL_DMA_CLEAR_FLAG (hdma, __HAL_DMA_GET_DME_FLAG_INDEX(hdma));
 1273              		.loc 1 199 5 discriminator 51 view .LVU267
 1274 0776 A83A     		subs	r2, r2, #168
ARM GAS  C:\Users\Artem\AppData\Local\Temp\cc9eXbmh.s 			page 33


 1275 0778 9342     		cmp	r3, r2
 1276 077a 31D0     		beq	.L170
 199:Drivers/STM32F2xx_HAL_Driver/Src/stm32f2xx_hal_dma_ex.c ****     __HAL_DMA_CLEAR_FLAG (hdma, __HAL_DMA_GET_DME_FLAG_INDEX(hdma));
 1277              		.loc 1 199 5 discriminator 53 view .LVU268
 1278 077c 02F58062 		add	r2, r2, #1024
 1279 0780 9342     		cmp	r3, r2
 1280 0782 31D0     		beq	.L171
 199:Drivers/STM32F2xx_HAL_Driver/Src/stm32f2xx_hal_dma_ex.c ****     __HAL_DMA_CLEAR_FLAG (hdma, __HAL_DMA_GET_DME_FLAG_INDEX(hdma));
 1281              		.loc 1 199 5 discriminator 55 view .LVU269
 1282 0784 A2F56872 		sub	r2, r2, #928
 1283 0788 9342     		cmp	r3, r2
 1284 078a 2FD0     		beq	.L172
 199:Drivers/STM32F2xx_HAL_Driver/Src/stm32f2xx_hal_dma_ex.c ****     __HAL_DMA_CLEAR_FLAG (hdma, __HAL_DMA_GET_DME_FLAG_INDEX(hdma));
 1285              		.loc 1 199 5 discriminator 57 view .LVU270
 1286 078c 02F58062 		add	r2, r2, #1024
 1287 0790 9342     		cmp	r3, r2
 1288 0792 2DD0     		beq	.L173
 199:Drivers/STM32F2xx_HAL_Driver/Src/stm32f2xx_hal_dma_ex.c ****     __HAL_DMA_CLEAR_FLAG (hdma, __HAL_DMA_GET_DME_FLAG_INDEX(hdma));
 1289              		.loc 1 199 5 discriminator 59 view .LVU271
 1290 0794 A2F58962 		sub	r2, r2, #1096
 1291 0798 9342     		cmp	r3, r2
 1292 079a 2BD0     		beq	.L174
 199:Drivers/STM32F2xx_HAL_Driver/Src/stm32f2xx_hal_dma_ex.c ****     __HAL_DMA_CLEAR_FLAG (hdma, __HAL_DMA_GET_DME_FLAG_INDEX(hdma));
 1293              		.loc 1 199 5 discriminator 61 view .LVU272
 1294 079c 02F58062 		add	r2, r2, #1024
 1295 07a0 9342     		cmp	r3, r2
 1296 07a2 2AD0     		beq	.L175
 199:Drivers/STM32F2xx_HAL_Driver/Src/stm32f2xx_hal_dma_ex.c ****     __HAL_DMA_CLEAR_FLAG (hdma, __HAL_DMA_GET_DME_FLAG_INDEX(hdma));
 1297              		.loc 1 199 5 discriminator 63 view .LVU273
 1298 07a4 A2F56872 		sub	r2, r2, #928
 1299 07a8 9342     		cmp	r3, r2
 1300 07aa 29D0     		beq	.L176
 199:Drivers/STM32F2xx_HAL_Driver/Src/stm32f2xx_hal_dma_ex.c ****     __HAL_DMA_CLEAR_FLAG (hdma, __HAL_DMA_GET_DME_FLAG_INDEX(hdma));
 1301              		.loc 1 199 5 discriminator 65 view .LVU274
 1302 07ac 02F58062 		add	r2, r2, #1024
 1303 07b0 9342     		cmp	r3, r2
 1304 07b2 28D0     		beq	.L177
 199:Drivers/STM32F2xx_HAL_Driver/Src/stm32f2xx_hal_dma_ex.c ****     __HAL_DMA_CLEAR_FLAG (hdma, __HAL_DMA_GET_DME_FLAG_INDEX(hdma));
 1305              		.loc 1 199 5 discriminator 67 view .LVU275
 1306 07b4 A2F58962 		sub	r2, r2, #1096
 1307 07b8 9342     		cmp	r3, r2
 1308 07ba 27D0     		beq	.L178
 199:Drivers/STM32F2xx_HAL_Driver/Src/stm32f2xx_hal_dma_ex.c ****     __HAL_DMA_CLEAR_FLAG (hdma, __HAL_DMA_GET_DME_FLAG_INDEX(hdma));
 1309              		.loc 1 199 5 discriminator 69 view .LVU276
 1310 07bc 02F58062 		add	r2, r2, #1024
 1311 07c0 9342     		cmp	r3, r2
 1312 07c2 26D0     		beq	.L179
 199:Drivers/STM32F2xx_HAL_Driver/Src/stm32f2xx_hal_dma_ex.c ****     __HAL_DMA_CLEAR_FLAG (hdma, __HAL_DMA_GET_DME_FLAG_INDEX(hdma));
 1313              		.loc 1 199 5 discriminator 71 view .LVU277
 1314 07c4 A2F56872 		sub	r2, r2, #928
 1315 07c8 9342     		cmp	r3, r2
 1316 07ca 25D0     		beq	.L180
 199:Drivers/STM32F2xx_HAL_Driver/Src/stm32f2xx_hal_dma_ex.c ****     __HAL_DMA_CLEAR_FLAG (hdma, __HAL_DMA_GET_DME_FLAG_INDEX(hdma));
 1317              		.loc 1 199 5 discriminator 73 view .LVU278
 1318 07cc 02F58062 		add	r2, r2, #1024
 1319 07d0 9342     		cmp	r3, r2
 1320 07d2 02D0     		beq	.L315
ARM GAS  C:\Users\Artem\AppData\Local\Temp\cc9eXbmh.s 			page 34


 199:Drivers/STM32F2xx_HAL_Driver/Src/stm32f2xx_hal_dma_ex.c ****     __HAL_DMA_CLEAR_FLAG (hdma, __HAL_DMA_GET_DME_FLAG_INDEX(hdma));
 1321              		.loc 1 199 5 view .LVU279
 1322 07d4 4FF00073 		mov	r3, #33554432
 1323 07d8 03E0     		b	.L39
 1324              	.L315:
 1325 07da 4FF40023 		mov	r3, #524288
 1326 07de 00E0     		b	.L39
 1327              	.L170:
 1328 07e0 0823     		movs	r3, #8
 1329              	.L39:
 199:Drivers/STM32F2xx_HAL_Driver/Src/stm32f2xx_hal_dma_ex.c ****     __HAL_DMA_CLEAR_FLAG (hdma, __HAL_DMA_GET_DME_FLAG_INDEX(hdma));
 1330              		.loc 1 199 5 discriminator 100 view .LVU280
 1331 07e2 3B4A     		ldr	r2, .L330+8
 1332 07e4 9360     		str	r3, [r2, #8]
 1333 07e6 64E7     		b	.L37
 1334              	.L171:
 199:Drivers/STM32F2xx_HAL_Driver/Src/stm32f2xx_hal_dma_ex.c ****     __HAL_DMA_CLEAR_FLAG (hdma, __HAL_DMA_GET_DME_FLAG_INDEX(hdma));
 1335              		.loc 1 199 5 view .LVU281
 1336 07e8 0823     		movs	r3, #8
 1337 07ea FAE7     		b	.L39
 1338              	.L172:
 1339 07ec 0823     		movs	r3, #8
 1340 07ee F8E7     		b	.L39
 1341              	.L173:
 1342 07f0 0823     		movs	r3, #8
 1343 07f2 F6E7     		b	.L39
 1344              	.L174:
 1345 07f4 4FF40073 		mov	r3, #512
 1346 07f8 F3E7     		b	.L39
 1347              	.L175:
 1348 07fa 4FF40073 		mov	r3, #512
 1349 07fe F0E7     		b	.L39
 1350              	.L176:
 1351 0800 4FF40073 		mov	r3, #512
 1352 0804 EDE7     		b	.L39
 1353              	.L177:
 1354 0806 4FF40073 		mov	r3, #512
 1355 080a EAE7     		b	.L39
 1356              	.L178:
 1357 080c 4FF40023 		mov	r3, #524288
 1358 0810 E7E7     		b	.L39
 1359              	.L179:
 1360 0812 4FF40023 		mov	r3, #524288
 1361 0816 E4E7     		b	.L39
 1362              	.L180:
 1363 0818 4FF40023 		mov	r3, #524288
 1364 081c E1E7     		b	.L39
 1365              	.L38:
 199:Drivers/STM32F2xx_HAL_Driver/Src/stm32f2xx_hal_dma_ex.c ****     __HAL_DMA_CLEAR_FLAG (hdma, __HAL_DMA_GET_DME_FLAG_INDEX(hdma));
 1366              		.loc 1 199 5 discriminator 52 view .LVU282
 1367 081e 2F4A     		ldr	r2, .L330+20
 1368 0820 9342     		cmp	r3, r2
 1369 0822 60D9     		bls	.L40
 199:Drivers/STM32F2xx_HAL_Driver/Src/stm32f2xx_hal_dma_ex.c ****     __HAL_DMA_CLEAR_FLAG (hdma, __HAL_DMA_GET_DME_FLAG_INDEX(hdma));
 1370              		.loc 1 199 5 discriminator 102 view .LVU283
 1371 0824 483A     		subs	r2, r2, #72
 1372 0826 9342     		cmp	r3, r2
ARM GAS  C:\Users\Artem\AppData\Local\Temp\cc9eXbmh.s 			page 35


 1373 0828 31D0     		beq	.L182
 199:Drivers/STM32F2xx_HAL_Driver/Src/stm32f2xx_hal_dma_ex.c ****     __HAL_DMA_CLEAR_FLAG (hdma, __HAL_DMA_GET_DME_FLAG_INDEX(hdma));
 1374              		.loc 1 199 5 discriminator 104 view .LVU284
 1375 082a 02F58062 		add	r2, r2, #1024
 1376 082e 9342     		cmp	r3, r2
 1377 0830 31D0     		beq	.L183
 199:Drivers/STM32F2xx_HAL_Driver/Src/stm32f2xx_hal_dma_ex.c ****     __HAL_DMA_CLEAR_FLAG (hdma, __HAL_DMA_GET_DME_FLAG_INDEX(hdma));
 1378              		.loc 1 199 5 discriminator 106 view .LVU285
 1379 0832 A2F56872 		sub	r2, r2, #928
 1380 0836 9342     		cmp	r3, r2
 1381 0838 2FD0     		beq	.L184
 199:Drivers/STM32F2xx_HAL_Driver/Src/stm32f2xx_hal_dma_ex.c ****     __HAL_DMA_CLEAR_FLAG (hdma, __HAL_DMA_GET_DME_FLAG_INDEX(hdma));
 1382              		.loc 1 199 5 discriminator 108 view .LVU286
 1383 083a 02F58062 		add	r2, r2, #1024
 1384 083e 9342     		cmp	r3, r2
 1385 0840 2DD0     		beq	.L185
 199:Drivers/STM32F2xx_HAL_Driver/Src/stm32f2xx_hal_dma_ex.c ****     __HAL_DMA_CLEAR_FLAG (hdma, __HAL_DMA_GET_DME_FLAG_INDEX(hdma));
 1386              		.loc 1 199 5 discriminator 110 view .LVU287
 1387 0842 A2F58962 		sub	r2, r2, #1096
 1388 0846 9342     		cmp	r3, r2
 1389 0848 2BD0     		beq	.L186
 199:Drivers/STM32F2xx_HAL_Driver/Src/stm32f2xx_hal_dma_ex.c ****     __HAL_DMA_CLEAR_FLAG (hdma, __HAL_DMA_GET_DME_FLAG_INDEX(hdma));
 1390              		.loc 1 199 5 discriminator 112 view .LVU288
 1391 084a 02F58062 		add	r2, r2, #1024
 1392 084e 9342     		cmp	r3, r2
 1393 0850 2AD0     		beq	.L187
 199:Drivers/STM32F2xx_HAL_Driver/Src/stm32f2xx_hal_dma_ex.c ****     __HAL_DMA_CLEAR_FLAG (hdma, __HAL_DMA_GET_DME_FLAG_INDEX(hdma));
 1394              		.loc 1 199 5 discriminator 114 view .LVU289
 1395 0852 A2F56872 		sub	r2, r2, #928
 1396 0856 9342     		cmp	r3, r2
 1397 0858 29D0     		beq	.L188
 199:Drivers/STM32F2xx_HAL_Driver/Src/stm32f2xx_hal_dma_ex.c ****     __HAL_DMA_CLEAR_FLAG (hdma, __HAL_DMA_GET_DME_FLAG_INDEX(hdma));
 1398              		.loc 1 199 5 discriminator 116 view .LVU290
 1399 085a 02F58062 		add	r2, r2, #1024
 1400 085e 9342     		cmp	r3, r2
 1401 0860 28D0     		beq	.L189
 199:Drivers/STM32F2xx_HAL_Driver/Src/stm32f2xx_hal_dma_ex.c ****     __HAL_DMA_CLEAR_FLAG (hdma, __HAL_DMA_GET_DME_FLAG_INDEX(hdma));
 1402              		.loc 1 199 5 discriminator 118 view .LVU291
 1403 0862 A2F58962 		sub	r2, r2, #1096
 1404 0866 9342     		cmp	r3, r2
 1405 0868 27D0     		beq	.L190
 199:Drivers/STM32F2xx_HAL_Driver/Src/stm32f2xx_hal_dma_ex.c ****     __HAL_DMA_CLEAR_FLAG (hdma, __HAL_DMA_GET_DME_FLAG_INDEX(hdma));
 1406              		.loc 1 199 5 discriminator 120 view .LVU292
 1407 086a 02F58062 		add	r2, r2, #1024
 1408 086e 9342     		cmp	r3, r2
 1409 0870 26D0     		beq	.L191
 199:Drivers/STM32F2xx_HAL_Driver/Src/stm32f2xx_hal_dma_ex.c ****     __HAL_DMA_CLEAR_FLAG (hdma, __HAL_DMA_GET_DME_FLAG_INDEX(hdma));
 1410              		.loc 1 199 5 discriminator 122 view .LVU293
 1411 0872 A2F56872 		sub	r2, r2, #928
 1412 0876 9342     		cmp	r3, r2
 1413 0878 32D0     		beq	.L192
 199:Drivers/STM32F2xx_HAL_Driver/Src/stm32f2xx_hal_dma_ex.c ****     __HAL_DMA_CLEAR_FLAG (hdma, __HAL_DMA_GET_DME_FLAG_INDEX(hdma));
 1414              		.loc 1 199 5 discriminator 124 view .LVU294
 1415 087a 02F58062 		add	r2, r2, #1024
 1416 087e 9342     		cmp	r3, r2
 1417 0880 02D0     		beq	.L316
 199:Drivers/STM32F2xx_HAL_Driver/Src/stm32f2xx_hal_dma_ex.c ****     __HAL_DMA_CLEAR_FLAG (hdma, __HAL_DMA_GET_DME_FLAG_INDEX(hdma));
ARM GAS  C:\Users\Artem\AppData\Local\Temp\cc9eXbmh.s 			page 36


 1418              		.loc 1 199 5 view .LVU295
 1419 0882 4FF00073 		mov	r3, #33554432
 1420 0886 03E0     		b	.L41
 1421              	.L316:
 1422 0888 4FF40023 		mov	r3, #524288
 1423 088c 00E0     		b	.L41
 1424              	.L182:
 1425 088e 0823     		movs	r3, #8
 1426              	.L41:
 199:Drivers/STM32F2xx_HAL_Driver/Src/stm32f2xx_hal_dma_ex.c ****     __HAL_DMA_CLEAR_FLAG (hdma, __HAL_DMA_GET_DME_FLAG_INDEX(hdma));
 1427              		.loc 1 199 5 discriminator 151 view .LVU296
 1428 0890 0E4A     		ldr	r2, .L330+4
 1429 0892 D360     		str	r3, [r2, #12]
 1430 0894 0DE7     		b	.L37
 1431              	.L183:
 199:Drivers/STM32F2xx_HAL_Driver/Src/stm32f2xx_hal_dma_ex.c ****     __HAL_DMA_CLEAR_FLAG (hdma, __HAL_DMA_GET_DME_FLAG_INDEX(hdma));
 1432              		.loc 1 199 5 view .LVU297
 1433 0896 0823     		movs	r3, #8
 1434 0898 FAE7     		b	.L41
 1435              	.L184:
 1436 089a 0823     		movs	r3, #8
 1437 089c F8E7     		b	.L41
 1438              	.L185:
 1439 089e 0823     		movs	r3, #8
 1440 08a0 F6E7     		b	.L41
 1441              	.L186:
 1442 08a2 4FF40073 		mov	r3, #512
 1443 08a6 F3E7     		b	.L41
 1444              	.L187:
 1445 08a8 4FF40073 		mov	r3, #512
 1446 08ac F0E7     		b	.L41
 1447              	.L188:
 1448 08ae 4FF40073 		mov	r3, #512
 1449 08b2 EDE7     		b	.L41
 1450              	.L189:
 1451 08b4 4FF40073 		mov	r3, #512
 1452 08b8 EAE7     		b	.L41
 1453              	.L190:
 1454 08ba 4FF40023 		mov	r3, #524288
 1455 08be E7E7     		b	.L41
 1456              	.L191:
 1457 08c0 4FF40023 		mov	r3, #524288
 1458 08c4 E4E7     		b	.L41
 1459              	.L331:
 1460 08c6 00BF     		.align	2
 1461              	.L330:
 1462 08c8 10600240 		.word	1073897488
 1463 08cc 00600240 		.word	1073897472
 1464 08d0 00640240 		.word	1073898496
 1465 08d4 58640240 		.word	1073898584
 1466 08d8 B8600240 		.word	1073897656
 1467 08dc 58600240 		.word	1073897560
 1468              	.L192:
 1469 08e0 4FF40023 		mov	r3, #524288
 1470 08e4 D4E7     		b	.L41
 1471              	.L40:
 199:Drivers/STM32F2xx_HAL_Driver/Src/stm32f2xx_hal_dma_ex.c ****     __HAL_DMA_CLEAR_FLAG (hdma, __HAL_DMA_GET_DME_FLAG_INDEX(hdma));
ARM GAS  C:\Users\Artem\AppData\Local\Temp\cc9eXbmh.s 			page 37


 1472              		.loc 1 199 5 discriminator 103 view .LVU298
 1473 08e6 B24A     		ldr	r2, .L332
 1474 08e8 9342     		cmp	r3, r2
 1475 08ea 31D0     		beq	.L194
 199:Drivers/STM32F2xx_HAL_Driver/Src/stm32f2xx_hal_dma_ex.c ****     __HAL_DMA_CLEAR_FLAG (hdma, __HAL_DMA_GET_DME_FLAG_INDEX(hdma));
 1476              		.loc 1 199 5 discriminator 153 view .LVU299
 1477 08ec 02F58062 		add	r2, r2, #1024
 1478 08f0 9342     		cmp	r3, r2
 1479 08f2 31D0     		beq	.L195
 199:Drivers/STM32F2xx_HAL_Driver/Src/stm32f2xx_hal_dma_ex.c ****     __HAL_DMA_CLEAR_FLAG (hdma, __HAL_DMA_GET_DME_FLAG_INDEX(hdma));
 1480              		.loc 1 199 5 discriminator 155 view .LVU300
 1481 08f4 A2F56872 		sub	r2, r2, #928
 1482 08f8 9342     		cmp	r3, r2
 1483 08fa 2FD0     		beq	.L196
 199:Drivers/STM32F2xx_HAL_Driver/Src/stm32f2xx_hal_dma_ex.c ****     __HAL_DMA_CLEAR_FLAG (hdma, __HAL_DMA_GET_DME_FLAG_INDEX(hdma));
 1484              		.loc 1 199 5 discriminator 157 view .LVU301
 1485 08fc 02F58062 		add	r2, r2, #1024
 1486 0900 9342     		cmp	r3, r2
 1487 0902 2DD0     		beq	.L197
 199:Drivers/STM32F2xx_HAL_Driver/Src/stm32f2xx_hal_dma_ex.c ****     __HAL_DMA_CLEAR_FLAG (hdma, __HAL_DMA_GET_DME_FLAG_INDEX(hdma));
 1488              		.loc 1 199 5 discriminator 159 view .LVU302
 1489 0904 A2F58962 		sub	r2, r2, #1096
 1490 0908 9342     		cmp	r3, r2
 1491 090a 2BD0     		beq	.L198
 199:Drivers/STM32F2xx_HAL_Driver/Src/stm32f2xx_hal_dma_ex.c ****     __HAL_DMA_CLEAR_FLAG (hdma, __HAL_DMA_GET_DME_FLAG_INDEX(hdma));
 1492              		.loc 1 199 5 discriminator 161 view .LVU303
 1493 090c 02F58062 		add	r2, r2, #1024
 1494 0910 9342     		cmp	r3, r2
 1495 0912 2AD0     		beq	.L199
 199:Drivers/STM32F2xx_HAL_Driver/Src/stm32f2xx_hal_dma_ex.c ****     __HAL_DMA_CLEAR_FLAG (hdma, __HAL_DMA_GET_DME_FLAG_INDEX(hdma));
 1496              		.loc 1 199 5 discriminator 163 view .LVU304
 1497 0914 A2F56872 		sub	r2, r2, #928
 1498 0918 9342     		cmp	r3, r2
 1499 091a 29D0     		beq	.L200
 199:Drivers/STM32F2xx_HAL_Driver/Src/stm32f2xx_hal_dma_ex.c ****     __HAL_DMA_CLEAR_FLAG (hdma, __HAL_DMA_GET_DME_FLAG_INDEX(hdma));
 1500              		.loc 1 199 5 discriminator 165 view .LVU305
 1501 091c 02F58062 		add	r2, r2, #1024
 1502 0920 9342     		cmp	r3, r2
 1503 0922 28D0     		beq	.L201
 199:Drivers/STM32F2xx_HAL_Driver/Src/stm32f2xx_hal_dma_ex.c ****     __HAL_DMA_CLEAR_FLAG (hdma, __HAL_DMA_GET_DME_FLAG_INDEX(hdma));
 1504              		.loc 1 199 5 discriminator 167 view .LVU306
 1505 0924 A2F58962 		sub	r2, r2, #1096
 1506 0928 9342     		cmp	r3, r2
 1507 092a 27D0     		beq	.L202
 199:Drivers/STM32F2xx_HAL_Driver/Src/stm32f2xx_hal_dma_ex.c ****     __HAL_DMA_CLEAR_FLAG (hdma, __HAL_DMA_GET_DME_FLAG_INDEX(hdma));
 1508              		.loc 1 199 5 discriminator 169 view .LVU307
 1509 092c 02F58062 		add	r2, r2, #1024
 1510 0930 9342     		cmp	r3, r2
 1511 0932 26D0     		beq	.L203
 199:Drivers/STM32F2xx_HAL_Driver/Src/stm32f2xx_hal_dma_ex.c ****     __HAL_DMA_CLEAR_FLAG (hdma, __HAL_DMA_GET_DME_FLAG_INDEX(hdma));
 1512              		.loc 1 199 5 discriminator 171 view .LVU308
 1513 0934 A2F56872 		sub	r2, r2, #928
 1514 0938 9342     		cmp	r3, r2
 1515 093a 25D0     		beq	.L204
 199:Drivers/STM32F2xx_HAL_Driver/Src/stm32f2xx_hal_dma_ex.c ****     __HAL_DMA_CLEAR_FLAG (hdma, __HAL_DMA_GET_DME_FLAG_INDEX(hdma));
 1516              		.loc 1 199 5 discriminator 173 view .LVU309
 1517 093c 02F58062 		add	r2, r2, #1024
ARM GAS  C:\Users\Artem\AppData\Local\Temp\cc9eXbmh.s 			page 38


 1518 0940 9342     		cmp	r3, r2
 1519 0942 02D0     		beq	.L317
 199:Drivers/STM32F2xx_HAL_Driver/Src/stm32f2xx_hal_dma_ex.c ****     __HAL_DMA_CLEAR_FLAG (hdma, __HAL_DMA_GET_DME_FLAG_INDEX(hdma));
 1520              		.loc 1 199 5 view .LVU310
 1521 0944 4FF00073 		mov	r3, #33554432
 1522 0948 03E0     		b	.L42
 1523              	.L317:
 1524 094a 4FF40023 		mov	r3, #524288
 1525 094e 00E0     		b	.L42
 1526              	.L194:
 1527 0950 0823     		movs	r3, #8
 1528              	.L42:
 199:Drivers/STM32F2xx_HAL_Driver/Src/stm32f2xx_hal_dma_ex.c ****     __HAL_DMA_CLEAR_FLAG (hdma, __HAL_DMA_GET_DME_FLAG_INDEX(hdma));
 1529              		.loc 1 199 5 discriminator 200 view .LVU311
 1530 0952 984A     		ldr	r2, .L332+4
 1531 0954 9360     		str	r3, [r2, #8]
 1532 0956 ACE6     		b	.L37
 1533              	.L195:
 199:Drivers/STM32F2xx_HAL_Driver/Src/stm32f2xx_hal_dma_ex.c ****     __HAL_DMA_CLEAR_FLAG (hdma, __HAL_DMA_GET_DME_FLAG_INDEX(hdma));
 1534              		.loc 1 199 5 view .LVU312
 1535 0958 0823     		movs	r3, #8
 1536 095a FAE7     		b	.L42
 1537              	.L196:
 1538 095c 0823     		movs	r3, #8
 1539 095e F8E7     		b	.L42
 1540              	.L197:
 1541 0960 0823     		movs	r3, #8
 1542 0962 F6E7     		b	.L42
 1543              	.L198:
 1544 0964 4FF40073 		mov	r3, #512
 1545 0968 F3E7     		b	.L42
 1546              	.L199:
 1547 096a 4FF40073 		mov	r3, #512
 1548 096e F0E7     		b	.L42
 1549              	.L200:
 1550 0970 4FF40073 		mov	r3, #512
 1551 0974 EDE7     		b	.L42
 1552              	.L201:
 1553 0976 4FF40073 		mov	r3, #512
 1554 097a EAE7     		b	.L42
 1555              	.L202:
 1556 097c 4FF40023 		mov	r3, #524288
 1557 0980 E7E7     		b	.L42
 1558              	.L203:
 1559 0982 4FF40023 		mov	r3, #524288
 1560 0986 E4E7     		b	.L42
 1561              	.L204:
 1562 0988 4FF40023 		mov	r3, #524288
 1563 098c E1E7     		b	.L42
 1564              	.L314:
 200:Drivers/STM32F2xx_HAL_Driver/Src/stm32f2xx_hal_dma_ex.c ****     __HAL_DMA_CLEAR_FLAG (hdma, __HAL_DMA_GET_FE_FLAG_INDEX(hdma));
 1565              		.loc 1 200 5 view .LVU313
 1566 098e 4FF48022 		mov	r2, #262144
 1567 0992 00E0     		b	.L44
 1568              	.L206:
 1569 0994 0422     		movs	r2, #4
 1570              	.L44:
ARM GAS  C:\Users\Artem\AppData\Local\Temp\cc9eXbmh.s 			page 39


 200:Drivers/STM32F2xx_HAL_Driver/Src/stm32f2xx_hal_dma_ex.c ****     __HAL_DMA_CLEAR_FLAG (hdma, __HAL_DMA_GET_FE_FLAG_INDEX(hdma));
 1571              		.loc 1 200 5 discriminator 50 view .LVU314
 1572 0996 884B     		ldr	r3, .L332+8
 1573 0998 DA60     		str	r2, [r3, #12]
 1574              	.L45:
 201:Drivers/STM32F2xx_HAL_Driver/Src/stm32f2xx_hal_dma_ex.c **** 
 1575              		.loc 1 201 5 is_stmt 1 view .LVU315
 1576 099a 2368     		ldr	r3, [r4]
 1577 099c 874A     		ldr	r2, .L332+12
 1578 099e 9342     		cmp	r3, r2
 1579 09a0 40F2A181 		bls	.L51
 201:Drivers/STM32F2xx_HAL_Driver/Src/stm32f2xx_hal_dma_ex.c **** 
 1580              		.loc 1 201 5 is_stmt 0 discriminator 1 view .LVU316
 1581 09a4 A2F58962 		sub	r2, r2, #1096
 1582 09a8 9342     		cmp	r3, r2
 1583 09aa 00F06781 		beq	.L254
 201:Drivers/STM32F2xx_HAL_Driver/Src/stm32f2xx_hal_dma_ex.c **** 
 1584              		.loc 1 201 5 discriminator 3 view .LVU317
 1585 09ae 02F58062 		add	r2, r2, #1024
 1586 09b2 9342     		cmp	r3, r2
 1587 09b4 00F08081 		beq	.L255
 201:Drivers/STM32F2xx_HAL_Driver/Src/stm32f2xx_hal_dma_ex.c **** 
 1588              		.loc 1 201 5 discriminator 5 view .LVU318
 1589 09b8 A2F56872 		sub	r2, r2, #928
 1590 09bc 9342     		cmp	r3, r2
 1591 09be 00F07D81 		beq	.L256
 201:Drivers/STM32F2xx_HAL_Driver/Src/stm32f2xx_hal_dma_ex.c **** 
 1592              		.loc 1 201 5 discriminator 7 view .LVU319
 1593 09c2 02F58062 		add	r2, r2, #1024
 1594 09c6 9342     		cmp	r3, r2
 1595 09c8 00F07A81 		beq	.L257
 201:Drivers/STM32F2xx_HAL_Driver/Src/stm32f2xx_hal_dma_ex.c **** 
 1596              		.loc 1 201 5 discriminator 9 view .LVU320
 1597 09cc A2F58962 		sub	r2, r2, #1096
 1598 09d0 9342     		cmp	r3, r2
 1599 09d2 00F07781 		beq	.L258
 201:Drivers/STM32F2xx_HAL_Driver/Src/stm32f2xx_hal_dma_ex.c **** 
 1600              		.loc 1 201 5 discriminator 11 view .LVU321
 1601 09d6 02F58062 		add	r2, r2, #1024
 1602 09da 9342     		cmp	r3, r2
 1603 09dc 00F07481 		beq	.L259
 201:Drivers/STM32F2xx_HAL_Driver/Src/stm32f2xx_hal_dma_ex.c **** 
 1604              		.loc 1 201 5 discriminator 13 view .LVU322
 1605 09e0 A2F56872 		sub	r2, r2, #928
 1606 09e4 9342     		cmp	r3, r2
 1607 09e6 00F07181 		beq	.L260
 201:Drivers/STM32F2xx_HAL_Driver/Src/stm32f2xx_hal_dma_ex.c **** 
 1608              		.loc 1 201 5 discriminator 15 view .LVU323
 1609 09ea 02F58062 		add	r2, r2, #1024
 1610 09ee 9342     		cmp	r3, r2
 1611 09f0 00F06E81 		beq	.L261
 201:Drivers/STM32F2xx_HAL_Driver/Src/stm32f2xx_hal_dma_ex.c **** 
 1612              		.loc 1 201 5 discriminator 17 view .LVU324
 1613 09f4 A2F58962 		sub	r2, r2, #1096
 1614 09f8 9342     		cmp	r3, r2
 1615 09fa 00F06B81 		beq	.L262
 201:Drivers/STM32F2xx_HAL_Driver/Src/stm32f2xx_hal_dma_ex.c **** 
ARM GAS  C:\Users\Artem\AppData\Local\Temp\cc9eXbmh.s 			page 40


 1616              		.loc 1 201 5 discriminator 19 view .LVU325
 1617 09fe 02F58062 		add	r2, r2, #1024
 1618 0a02 9342     		cmp	r3, r2
 1619 0a04 00F06981 		beq	.L263
 201:Drivers/STM32F2xx_HAL_Driver/Src/stm32f2xx_hal_dma_ex.c **** 
 1620              		.loc 1 201 5 discriminator 21 view .LVU326
 1621 0a08 A2F56872 		sub	r2, r2, #928
 1622 0a0c 9342     		cmp	r3, r2
 1623 0a0e 00F06781 		beq	.L264
 201:Drivers/STM32F2xx_HAL_Driver/Src/stm32f2xx_hal_dma_ex.c **** 
 1624              		.loc 1 201 5 discriminator 23 view .LVU327
 1625 0a12 02F58062 		add	r2, r2, #1024
 1626 0a16 9342     		cmp	r3, r2
 1627 0a18 00F02D81 		beq	.L318
 201:Drivers/STM32F2xx_HAL_Driver/Src/stm32f2xx_hal_dma_ex.c **** 
 1628              		.loc 1 201 5 view .LVU328
 1629 0a1c 4FF48002 		mov	r2, #4194304
 1630 0a20 2DE1     		b	.L52
 1631              	.L207:
 200:Drivers/STM32F2xx_HAL_Driver/Src/stm32f2xx_hal_dma_ex.c ****     __HAL_DMA_CLEAR_FLAG (hdma, __HAL_DMA_GET_FE_FLAG_INDEX(hdma));
 1632              		.loc 1 200 5 view .LVU329
 1633 0a22 0422     		movs	r2, #4
 1634 0a24 B7E7     		b	.L44
 1635              	.L208:
 1636 0a26 0422     		movs	r2, #4
 1637 0a28 B5E7     		b	.L44
 1638              	.L209:
 1639 0a2a 0422     		movs	r2, #4
 1640 0a2c B3E7     		b	.L44
 1641              	.L210:
 1642 0a2e 4FF48072 		mov	r2, #256
 1643 0a32 B0E7     		b	.L44
 1644              	.L211:
 1645 0a34 4FF48072 		mov	r2, #256
 1646 0a38 ADE7     		b	.L44
 1647              	.L212:
 1648 0a3a 4FF48072 		mov	r2, #256
 1649 0a3e AAE7     		b	.L44
 1650              	.L213:
 1651 0a40 4FF48072 		mov	r2, #256
 1652 0a44 A7E7     		b	.L44
 1653              	.L214:
 1654 0a46 4FF48022 		mov	r2, #262144
 1655 0a4a A4E7     		b	.L44
 1656              	.L215:
 1657 0a4c 4FF48022 		mov	r2, #262144
 1658 0a50 A1E7     		b	.L44
 1659              	.L216:
 1660 0a52 4FF48022 		mov	r2, #262144
 1661 0a56 9EE7     		b	.L44
 1662              	.L43:
 200:Drivers/STM32F2xx_HAL_Driver/Src/stm32f2xx_hal_dma_ex.c ****     __HAL_DMA_CLEAR_FLAG (hdma, __HAL_DMA_GET_FE_FLAG_INDEX(hdma));
 1663              		.loc 1 200 5 discriminator 2 view .LVU330
 1664 0a58 594A     		ldr	r2, .L332+16
 1665 0a5a 9342     		cmp	r3, r2
 1666 0a5c 53D9     		bls	.L46
 200:Drivers/STM32F2xx_HAL_Driver/Src/stm32f2xx_hal_dma_ex.c ****     __HAL_DMA_CLEAR_FLAG (hdma, __HAL_DMA_GET_FE_FLAG_INDEX(hdma));
ARM GAS  C:\Users\Artem\AppData\Local\Temp\cc9eXbmh.s 			page 41


 1667              		.loc 1 200 5 discriminator 51 view .LVU331
 1668 0a5e A83A     		subs	r2, r2, #168
 1669 0a60 9342     		cmp	r3, r2
 1670 0a62 31D0     		beq	.L218
 200:Drivers/STM32F2xx_HAL_Driver/Src/stm32f2xx_hal_dma_ex.c ****     __HAL_DMA_CLEAR_FLAG (hdma, __HAL_DMA_GET_FE_FLAG_INDEX(hdma));
 1671              		.loc 1 200 5 discriminator 53 view .LVU332
 1672 0a64 02F58062 		add	r2, r2, #1024
 1673 0a68 9342     		cmp	r3, r2
 1674 0a6a 31D0     		beq	.L219
 200:Drivers/STM32F2xx_HAL_Driver/Src/stm32f2xx_hal_dma_ex.c ****     __HAL_DMA_CLEAR_FLAG (hdma, __HAL_DMA_GET_FE_FLAG_INDEX(hdma));
 1675              		.loc 1 200 5 discriminator 55 view .LVU333
 1676 0a6c A2F56872 		sub	r2, r2, #928
 1677 0a70 9342     		cmp	r3, r2
 1678 0a72 2FD0     		beq	.L220
 200:Drivers/STM32F2xx_HAL_Driver/Src/stm32f2xx_hal_dma_ex.c ****     __HAL_DMA_CLEAR_FLAG (hdma, __HAL_DMA_GET_FE_FLAG_INDEX(hdma));
 1679              		.loc 1 200 5 discriminator 57 view .LVU334
 1680 0a74 02F58062 		add	r2, r2, #1024
 1681 0a78 9342     		cmp	r3, r2
 1682 0a7a 2DD0     		beq	.L221
 200:Drivers/STM32F2xx_HAL_Driver/Src/stm32f2xx_hal_dma_ex.c ****     __HAL_DMA_CLEAR_FLAG (hdma, __HAL_DMA_GET_FE_FLAG_INDEX(hdma));
 1683              		.loc 1 200 5 discriminator 59 view .LVU335
 1684 0a7c A2F58962 		sub	r2, r2, #1096
 1685 0a80 9342     		cmp	r3, r2
 1686 0a82 2BD0     		beq	.L222
 200:Drivers/STM32F2xx_HAL_Driver/Src/stm32f2xx_hal_dma_ex.c ****     __HAL_DMA_CLEAR_FLAG (hdma, __HAL_DMA_GET_FE_FLAG_INDEX(hdma));
 1687              		.loc 1 200 5 discriminator 61 view .LVU336
 1688 0a84 02F58062 		add	r2, r2, #1024
 1689 0a88 9342     		cmp	r3, r2
 1690 0a8a 2AD0     		beq	.L223
 200:Drivers/STM32F2xx_HAL_Driver/Src/stm32f2xx_hal_dma_ex.c ****     __HAL_DMA_CLEAR_FLAG (hdma, __HAL_DMA_GET_FE_FLAG_INDEX(hdma));
 1691              		.loc 1 200 5 discriminator 63 view .LVU337
 1692 0a8c A2F56872 		sub	r2, r2, #928
 1693 0a90 9342     		cmp	r3, r2
 1694 0a92 29D0     		beq	.L224
 200:Drivers/STM32F2xx_HAL_Driver/Src/stm32f2xx_hal_dma_ex.c ****     __HAL_DMA_CLEAR_FLAG (hdma, __HAL_DMA_GET_FE_FLAG_INDEX(hdma));
 1695              		.loc 1 200 5 discriminator 65 view .LVU338
 1696 0a94 02F58062 		add	r2, r2, #1024
 1697 0a98 9342     		cmp	r3, r2
 1698 0a9a 28D0     		beq	.L225
 200:Drivers/STM32F2xx_HAL_Driver/Src/stm32f2xx_hal_dma_ex.c ****     __HAL_DMA_CLEAR_FLAG (hdma, __HAL_DMA_GET_FE_FLAG_INDEX(hdma));
 1699              		.loc 1 200 5 discriminator 67 view .LVU339
 1700 0a9c A2F58962 		sub	r2, r2, #1096
 1701 0aa0 9342     		cmp	r3, r2
 1702 0aa2 27D0     		beq	.L226
 200:Drivers/STM32F2xx_HAL_Driver/Src/stm32f2xx_hal_dma_ex.c ****     __HAL_DMA_CLEAR_FLAG (hdma, __HAL_DMA_GET_FE_FLAG_INDEX(hdma));
 1703              		.loc 1 200 5 discriminator 69 view .LVU340
 1704 0aa4 02F58062 		add	r2, r2, #1024
 1705 0aa8 9342     		cmp	r3, r2
 1706 0aaa 26D0     		beq	.L227
 200:Drivers/STM32F2xx_HAL_Driver/Src/stm32f2xx_hal_dma_ex.c ****     __HAL_DMA_CLEAR_FLAG (hdma, __HAL_DMA_GET_FE_FLAG_INDEX(hdma));
 1707              		.loc 1 200 5 discriminator 71 view .LVU341
 1708 0aac A2F56872 		sub	r2, r2, #928
 1709 0ab0 9342     		cmp	r3, r2
 1710 0ab2 25D0     		beq	.L228
 200:Drivers/STM32F2xx_HAL_Driver/Src/stm32f2xx_hal_dma_ex.c ****     __HAL_DMA_CLEAR_FLAG (hdma, __HAL_DMA_GET_FE_FLAG_INDEX(hdma));
 1711              		.loc 1 200 5 discriminator 73 view .LVU342
 1712 0ab4 02F58062 		add	r2, r2, #1024
ARM GAS  C:\Users\Artem\AppData\Local\Temp\cc9eXbmh.s 			page 42


 1713 0ab8 9342     		cmp	r3, r2
 1714 0aba 02D0     		beq	.L319
 200:Drivers/STM32F2xx_HAL_Driver/Src/stm32f2xx_hal_dma_ex.c ****     __HAL_DMA_CLEAR_FLAG (hdma, __HAL_DMA_GET_FE_FLAG_INDEX(hdma));
 1715              		.loc 1 200 5 view .LVU343
 1716 0abc 4FF08073 		mov	r3, #16777216
 1717 0ac0 03E0     		b	.L47
 1718              	.L319:
 1719 0ac2 4FF48023 		mov	r3, #262144
 1720 0ac6 00E0     		b	.L47
 1721              	.L218:
 1722 0ac8 0423     		movs	r3, #4
 1723              	.L47:
 200:Drivers/STM32F2xx_HAL_Driver/Src/stm32f2xx_hal_dma_ex.c ****     __HAL_DMA_CLEAR_FLAG (hdma, __HAL_DMA_GET_FE_FLAG_INDEX(hdma));
 1724              		.loc 1 200 5 discriminator 100 view .LVU344
 1725 0aca 3B4A     		ldr	r2, .L332+8
 1726 0acc 9360     		str	r3, [r2, #8]
 1727 0ace 64E7     		b	.L45
 1728              	.L219:
 200:Drivers/STM32F2xx_HAL_Driver/Src/stm32f2xx_hal_dma_ex.c ****     __HAL_DMA_CLEAR_FLAG (hdma, __HAL_DMA_GET_FE_FLAG_INDEX(hdma));
 1729              		.loc 1 200 5 view .LVU345
 1730 0ad0 0423     		movs	r3, #4
 1731 0ad2 FAE7     		b	.L47
 1732              	.L220:
 1733 0ad4 0423     		movs	r3, #4
 1734 0ad6 F8E7     		b	.L47
 1735              	.L221:
 1736 0ad8 0423     		movs	r3, #4
 1737 0ada F6E7     		b	.L47
 1738              	.L222:
 1739 0adc 4FF48073 		mov	r3, #256
 1740 0ae0 F3E7     		b	.L47
 1741              	.L223:
 1742 0ae2 4FF48073 		mov	r3, #256
 1743 0ae6 F0E7     		b	.L47
 1744              	.L224:
 1745 0ae8 4FF48073 		mov	r3, #256
 1746 0aec EDE7     		b	.L47
 1747              	.L225:
 1748 0aee 4FF48073 		mov	r3, #256
 1749 0af2 EAE7     		b	.L47
 1750              	.L226:
 1751 0af4 4FF48023 		mov	r3, #262144
 1752 0af8 E7E7     		b	.L47
 1753              	.L227:
 1754 0afa 4FF48023 		mov	r3, #262144
 1755 0afe E4E7     		b	.L47
 1756              	.L228:
 1757 0b00 4FF48023 		mov	r3, #262144
 1758 0b04 E1E7     		b	.L47
 1759              	.L46:
 200:Drivers/STM32F2xx_HAL_Driver/Src/stm32f2xx_hal_dma_ex.c ****     __HAL_DMA_CLEAR_FLAG (hdma, __HAL_DMA_GET_FE_FLAG_INDEX(hdma));
 1760              		.loc 1 200 5 discriminator 52 view .LVU346
 1761 0b06 2F4A     		ldr	r2, .L332+20
 1762 0b08 9342     		cmp	r3, r2
 1763 0b0a 60D9     		bls	.L48
 200:Drivers/STM32F2xx_HAL_Driver/Src/stm32f2xx_hal_dma_ex.c ****     __HAL_DMA_CLEAR_FLAG (hdma, __HAL_DMA_GET_FE_FLAG_INDEX(hdma));
 1764              		.loc 1 200 5 discriminator 102 view .LVU347
ARM GAS  C:\Users\Artem\AppData\Local\Temp\cc9eXbmh.s 			page 43


 1765 0b0c 483A     		subs	r2, r2, #72
 1766 0b0e 9342     		cmp	r3, r2
 1767 0b10 31D0     		beq	.L230
 200:Drivers/STM32F2xx_HAL_Driver/Src/stm32f2xx_hal_dma_ex.c ****     __HAL_DMA_CLEAR_FLAG (hdma, __HAL_DMA_GET_FE_FLAG_INDEX(hdma));
 1768              		.loc 1 200 5 discriminator 104 view .LVU348
 1769 0b12 02F58062 		add	r2, r2, #1024
 1770 0b16 9342     		cmp	r3, r2
 1771 0b18 31D0     		beq	.L231
 200:Drivers/STM32F2xx_HAL_Driver/Src/stm32f2xx_hal_dma_ex.c ****     __HAL_DMA_CLEAR_FLAG (hdma, __HAL_DMA_GET_FE_FLAG_INDEX(hdma));
 1772              		.loc 1 200 5 discriminator 106 view .LVU349
 1773 0b1a A2F56872 		sub	r2, r2, #928
 1774 0b1e 9342     		cmp	r3, r2
 1775 0b20 2FD0     		beq	.L232
 200:Drivers/STM32F2xx_HAL_Driver/Src/stm32f2xx_hal_dma_ex.c ****     __HAL_DMA_CLEAR_FLAG (hdma, __HAL_DMA_GET_FE_FLAG_INDEX(hdma));
 1776              		.loc 1 200 5 discriminator 108 view .LVU350
 1777 0b22 02F58062 		add	r2, r2, #1024
 1778 0b26 9342     		cmp	r3, r2
 1779 0b28 2DD0     		beq	.L233
 200:Drivers/STM32F2xx_HAL_Driver/Src/stm32f2xx_hal_dma_ex.c ****     __HAL_DMA_CLEAR_FLAG (hdma, __HAL_DMA_GET_FE_FLAG_INDEX(hdma));
 1780              		.loc 1 200 5 discriminator 110 view .LVU351
 1781 0b2a A2F58962 		sub	r2, r2, #1096
 1782 0b2e 9342     		cmp	r3, r2
 1783 0b30 2BD0     		beq	.L234
 200:Drivers/STM32F2xx_HAL_Driver/Src/stm32f2xx_hal_dma_ex.c ****     __HAL_DMA_CLEAR_FLAG (hdma, __HAL_DMA_GET_FE_FLAG_INDEX(hdma));
 1784              		.loc 1 200 5 discriminator 112 view .LVU352
 1785 0b32 02F58062 		add	r2, r2, #1024
 1786 0b36 9342     		cmp	r3, r2
 1787 0b38 2AD0     		beq	.L235
 200:Drivers/STM32F2xx_HAL_Driver/Src/stm32f2xx_hal_dma_ex.c ****     __HAL_DMA_CLEAR_FLAG (hdma, __HAL_DMA_GET_FE_FLAG_INDEX(hdma));
 1788              		.loc 1 200 5 discriminator 114 view .LVU353
 1789 0b3a A2F56872 		sub	r2, r2, #928
 1790 0b3e 9342     		cmp	r3, r2
 1791 0b40 29D0     		beq	.L236
 200:Drivers/STM32F2xx_HAL_Driver/Src/stm32f2xx_hal_dma_ex.c ****     __HAL_DMA_CLEAR_FLAG (hdma, __HAL_DMA_GET_FE_FLAG_INDEX(hdma));
 1792              		.loc 1 200 5 discriminator 116 view .LVU354
 1793 0b42 02F58062 		add	r2, r2, #1024
 1794 0b46 9342     		cmp	r3, r2
 1795 0b48 28D0     		beq	.L237
 200:Drivers/STM32F2xx_HAL_Driver/Src/stm32f2xx_hal_dma_ex.c ****     __HAL_DMA_CLEAR_FLAG (hdma, __HAL_DMA_GET_FE_FLAG_INDEX(hdma));
 1796              		.loc 1 200 5 discriminator 118 view .LVU355
 1797 0b4a A2F58962 		sub	r2, r2, #1096
 1798 0b4e 9342     		cmp	r3, r2
 1799 0b50 27D0     		beq	.L238
 200:Drivers/STM32F2xx_HAL_Driver/Src/stm32f2xx_hal_dma_ex.c ****     __HAL_DMA_CLEAR_FLAG (hdma, __HAL_DMA_GET_FE_FLAG_INDEX(hdma));
 1800              		.loc 1 200 5 discriminator 120 view .LVU356
 1801 0b52 02F58062 		add	r2, r2, #1024
 1802 0b56 9342     		cmp	r3, r2
 1803 0b58 26D0     		beq	.L239
 200:Drivers/STM32F2xx_HAL_Driver/Src/stm32f2xx_hal_dma_ex.c ****     __HAL_DMA_CLEAR_FLAG (hdma, __HAL_DMA_GET_FE_FLAG_INDEX(hdma));
 1804              		.loc 1 200 5 discriminator 122 view .LVU357
 1805 0b5a A2F56872 		sub	r2, r2, #928
 1806 0b5e 9342     		cmp	r3, r2
 1807 0b60 32D0     		beq	.L240
 200:Drivers/STM32F2xx_HAL_Driver/Src/stm32f2xx_hal_dma_ex.c ****     __HAL_DMA_CLEAR_FLAG (hdma, __HAL_DMA_GET_FE_FLAG_INDEX(hdma));
 1808              		.loc 1 200 5 discriminator 124 view .LVU358
 1809 0b62 02F58062 		add	r2, r2, #1024
 1810 0b66 9342     		cmp	r3, r2
ARM GAS  C:\Users\Artem\AppData\Local\Temp\cc9eXbmh.s 			page 44


 1811 0b68 02D0     		beq	.L320
 200:Drivers/STM32F2xx_HAL_Driver/Src/stm32f2xx_hal_dma_ex.c ****     __HAL_DMA_CLEAR_FLAG (hdma, __HAL_DMA_GET_FE_FLAG_INDEX(hdma));
 1812              		.loc 1 200 5 view .LVU359
 1813 0b6a 4FF08073 		mov	r3, #16777216
 1814 0b6e 03E0     		b	.L49
 1815              	.L320:
 1816 0b70 4FF48023 		mov	r3, #262144
 1817 0b74 00E0     		b	.L49
 1818              	.L230:
 1819 0b76 0423     		movs	r3, #4
 1820              	.L49:
 200:Drivers/STM32F2xx_HAL_Driver/Src/stm32f2xx_hal_dma_ex.c ****     __HAL_DMA_CLEAR_FLAG (hdma, __HAL_DMA_GET_FE_FLAG_INDEX(hdma));
 1821              		.loc 1 200 5 discriminator 151 view .LVU360
 1822 0b78 0E4A     		ldr	r2, .L332+4
 1823 0b7a D360     		str	r3, [r2, #12]
 1824 0b7c 0DE7     		b	.L45
 1825              	.L231:
 200:Drivers/STM32F2xx_HAL_Driver/Src/stm32f2xx_hal_dma_ex.c ****     __HAL_DMA_CLEAR_FLAG (hdma, __HAL_DMA_GET_FE_FLAG_INDEX(hdma));
 1826              		.loc 1 200 5 view .LVU361
 1827 0b7e 0423     		movs	r3, #4
 1828 0b80 FAE7     		b	.L49
 1829              	.L232:
 1830 0b82 0423     		movs	r3, #4
 1831 0b84 F8E7     		b	.L49
 1832              	.L233:
 1833 0b86 0423     		movs	r3, #4
 1834 0b88 F6E7     		b	.L49
 1835              	.L234:
 1836 0b8a 4FF48073 		mov	r3, #256
 1837 0b8e F3E7     		b	.L49
 1838              	.L235:
 1839 0b90 4FF48073 		mov	r3, #256
 1840 0b94 F0E7     		b	.L49
 1841              	.L236:
 1842 0b96 4FF48073 		mov	r3, #256
 1843 0b9a EDE7     		b	.L49
 1844              	.L237:
 1845 0b9c 4FF48073 		mov	r3, #256
 1846 0ba0 EAE7     		b	.L49
 1847              	.L238:
 1848 0ba2 4FF48023 		mov	r3, #262144
 1849 0ba6 E7E7     		b	.L49
 1850              	.L239:
 1851 0ba8 4FF48023 		mov	r3, #262144
 1852 0bac E4E7     		b	.L49
 1853              	.L333:
 1854 0bae 00BF     		.align	2
 1855              	.L332:
 1856 0bb0 10600240 		.word	1073897488
 1857 0bb4 00600240 		.word	1073897472
 1858 0bb8 00640240 		.word	1073898496
 1859 0bbc 58640240 		.word	1073898584
 1860 0bc0 B8600240 		.word	1073897656
 1861 0bc4 58600240 		.word	1073897560
 1862              	.L240:
 1863 0bc8 4FF48023 		mov	r3, #262144
 1864 0bcc D4E7     		b	.L49
ARM GAS  C:\Users\Artem\AppData\Local\Temp\cc9eXbmh.s 			page 45


 1865              	.L48:
 200:Drivers/STM32F2xx_HAL_Driver/Src/stm32f2xx_hal_dma_ex.c ****     __HAL_DMA_CLEAR_FLAG (hdma, __HAL_DMA_GET_FE_FLAG_INDEX(hdma));
 1866              		.loc 1 200 5 discriminator 103 view .LVU362
 1867 0bce 994A     		ldr	r2, .L334
 1868 0bd0 9342     		cmp	r3, r2
 1869 0bd2 31D0     		beq	.L242
 200:Drivers/STM32F2xx_HAL_Driver/Src/stm32f2xx_hal_dma_ex.c ****     __HAL_DMA_CLEAR_FLAG (hdma, __HAL_DMA_GET_FE_FLAG_INDEX(hdma));
 1870              		.loc 1 200 5 discriminator 153 view .LVU363
 1871 0bd4 02F58062 		add	r2, r2, #1024
 1872 0bd8 9342     		cmp	r3, r2
 1873 0bda 31D0     		beq	.L243
 200:Drivers/STM32F2xx_HAL_Driver/Src/stm32f2xx_hal_dma_ex.c ****     __HAL_DMA_CLEAR_FLAG (hdma, __HAL_DMA_GET_FE_FLAG_INDEX(hdma));
 1874              		.loc 1 200 5 discriminator 155 view .LVU364
 1875 0bdc A2F56872 		sub	r2, r2, #928
 1876 0be0 9342     		cmp	r3, r2
 1877 0be2 2FD0     		beq	.L244
 200:Drivers/STM32F2xx_HAL_Driver/Src/stm32f2xx_hal_dma_ex.c ****     __HAL_DMA_CLEAR_FLAG (hdma, __HAL_DMA_GET_FE_FLAG_INDEX(hdma));
 1878              		.loc 1 200 5 discriminator 157 view .LVU365
 1879 0be4 02F58062 		add	r2, r2, #1024
 1880 0be8 9342     		cmp	r3, r2
 1881 0bea 2DD0     		beq	.L245
 200:Drivers/STM32F2xx_HAL_Driver/Src/stm32f2xx_hal_dma_ex.c ****     __HAL_DMA_CLEAR_FLAG (hdma, __HAL_DMA_GET_FE_FLAG_INDEX(hdma));
 1882              		.loc 1 200 5 discriminator 159 view .LVU366
 1883 0bec A2F58962 		sub	r2, r2, #1096
 1884 0bf0 9342     		cmp	r3, r2
 1885 0bf2 2BD0     		beq	.L246
 200:Drivers/STM32F2xx_HAL_Driver/Src/stm32f2xx_hal_dma_ex.c ****     __HAL_DMA_CLEAR_FLAG (hdma, __HAL_DMA_GET_FE_FLAG_INDEX(hdma));
 1886              		.loc 1 200 5 discriminator 161 view .LVU367
 1887 0bf4 02F58062 		add	r2, r2, #1024
 1888 0bf8 9342     		cmp	r3, r2
 1889 0bfa 2AD0     		beq	.L247
 200:Drivers/STM32F2xx_HAL_Driver/Src/stm32f2xx_hal_dma_ex.c ****     __HAL_DMA_CLEAR_FLAG (hdma, __HAL_DMA_GET_FE_FLAG_INDEX(hdma));
 1890              		.loc 1 200 5 discriminator 163 view .LVU368
 1891 0bfc A2F56872 		sub	r2, r2, #928
 1892 0c00 9342     		cmp	r3, r2
 1893 0c02 29D0     		beq	.L248
 200:Drivers/STM32F2xx_HAL_Driver/Src/stm32f2xx_hal_dma_ex.c ****     __HAL_DMA_CLEAR_FLAG (hdma, __HAL_DMA_GET_FE_FLAG_INDEX(hdma));
 1894              		.loc 1 200 5 discriminator 165 view .LVU369
 1895 0c04 02F58062 		add	r2, r2, #1024
 1896 0c08 9342     		cmp	r3, r2
 1897 0c0a 28D0     		beq	.L249
 200:Drivers/STM32F2xx_HAL_Driver/Src/stm32f2xx_hal_dma_ex.c ****     __HAL_DMA_CLEAR_FLAG (hdma, __HAL_DMA_GET_FE_FLAG_INDEX(hdma));
 1898              		.loc 1 200 5 discriminator 167 view .LVU370
 1899 0c0c A2F58962 		sub	r2, r2, #1096
 1900 0c10 9342     		cmp	r3, r2
 1901 0c12 27D0     		beq	.L250
 200:Drivers/STM32F2xx_HAL_Driver/Src/stm32f2xx_hal_dma_ex.c ****     __HAL_DMA_CLEAR_FLAG (hdma, __HAL_DMA_GET_FE_FLAG_INDEX(hdma));
 1902              		.loc 1 200 5 discriminator 169 view .LVU371
 1903 0c14 02F58062 		add	r2, r2, #1024
 1904 0c18 9342     		cmp	r3, r2
 1905 0c1a 26D0     		beq	.L251
 200:Drivers/STM32F2xx_HAL_Driver/Src/stm32f2xx_hal_dma_ex.c ****     __HAL_DMA_CLEAR_FLAG (hdma, __HAL_DMA_GET_FE_FLAG_INDEX(hdma));
 1906              		.loc 1 200 5 discriminator 171 view .LVU372
 1907 0c1c A2F56872 		sub	r2, r2, #928
 1908 0c20 9342     		cmp	r3, r2
 1909 0c22 25D0     		beq	.L252
 200:Drivers/STM32F2xx_HAL_Driver/Src/stm32f2xx_hal_dma_ex.c ****     __HAL_DMA_CLEAR_FLAG (hdma, __HAL_DMA_GET_FE_FLAG_INDEX(hdma));
ARM GAS  C:\Users\Artem\AppData\Local\Temp\cc9eXbmh.s 			page 46


 1910              		.loc 1 200 5 discriminator 173 view .LVU373
 1911 0c24 02F58062 		add	r2, r2, #1024
 1912 0c28 9342     		cmp	r3, r2
 1913 0c2a 02D0     		beq	.L321
 200:Drivers/STM32F2xx_HAL_Driver/Src/stm32f2xx_hal_dma_ex.c ****     __HAL_DMA_CLEAR_FLAG (hdma, __HAL_DMA_GET_FE_FLAG_INDEX(hdma));
 1914              		.loc 1 200 5 view .LVU374
 1915 0c2c 4FF08073 		mov	r3, #16777216
 1916 0c30 03E0     		b	.L50
 1917              	.L321:
 1918 0c32 4FF48023 		mov	r3, #262144
 1919 0c36 00E0     		b	.L50
 1920              	.L242:
 1921 0c38 0423     		movs	r3, #4
 1922              	.L50:
 200:Drivers/STM32F2xx_HAL_Driver/Src/stm32f2xx_hal_dma_ex.c ****     __HAL_DMA_CLEAR_FLAG (hdma, __HAL_DMA_GET_FE_FLAG_INDEX(hdma));
 1923              		.loc 1 200 5 discriminator 200 view .LVU375
 1924 0c3a 7F4A     		ldr	r2, .L334+4
 1925 0c3c 9360     		str	r3, [r2, #8]
 1926 0c3e ACE6     		b	.L45
 1927              	.L243:
 200:Drivers/STM32F2xx_HAL_Driver/Src/stm32f2xx_hal_dma_ex.c ****     __HAL_DMA_CLEAR_FLAG (hdma, __HAL_DMA_GET_FE_FLAG_INDEX(hdma));
 1928              		.loc 1 200 5 view .LVU376
 1929 0c40 0423     		movs	r3, #4
 1930 0c42 FAE7     		b	.L50
 1931              	.L244:
 1932 0c44 0423     		movs	r3, #4
 1933 0c46 F8E7     		b	.L50
 1934              	.L245:
 1935 0c48 0423     		movs	r3, #4
 1936 0c4a F6E7     		b	.L50
 1937              	.L246:
 1938 0c4c 4FF48073 		mov	r3, #256
 1939 0c50 F3E7     		b	.L50
 1940              	.L247:
 1941 0c52 4FF48073 		mov	r3, #256
 1942 0c56 F0E7     		b	.L50
 1943              	.L248:
 1944 0c58 4FF48073 		mov	r3, #256
 1945 0c5c EDE7     		b	.L50
 1946              	.L249:
 1947 0c5e 4FF48073 		mov	r3, #256
 1948 0c62 EAE7     		b	.L50
 1949              	.L250:
 1950 0c64 4FF48023 		mov	r3, #262144
 1951 0c68 E7E7     		b	.L50
 1952              	.L251:
 1953 0c6a 4FF48023 		mov	r3, #262144
 1954 0c6e E4E7     		b	.L50
 1955              	.L252:
 1956 0c70 4FF48023 		mov	r3, #262144
 1957 0c74 E1E7     		b	.L50
 1958              	.L318:
 201:Drivers/STM32F2xx_HAL_Driver/Src/stm32f2xx_hal_dma_ex.c **** 
 1959              		.loc 1 201 5 view .LVU377
 1960 0c76 4FF48032 		mov	r2, #65536
 1961 0c7a 00E0     		b	.L52
 1962              	.L254:
ARM GAS  C:\Users\Artem\AppData\Local\Temp\cc9eXbmh.s 			page 47


 1963 0c7c 0122     		movs	r2, #1
 1964              	.L52:
 201:Drivers/STM32F2xx_HAL_Driver/Src/stm32f2xx_hal_dma_ex.c **** 
 1965              		.loc 1 201 5 discriminator 50 view .LVU378
 1966 0c7e 6F4B     		ldr	r3, .L334+8
 1967 0c80 DA60     		str	r2, [r3, #12]
 1968              	.L53:
 204:Drivers/STM32F2xx_HAL_Driver/Src/stm32f2xx_hal_dma_ex.c ****     hdma->Instance->FCR |= DMA_IT_FE;
 1969              		.loc 1 204 5 is_stmt 1 view .LVU379
 204:Drivers/STM32F2xx_HAL_Driver/Src/stm32f2xx_hal_dma_ex.c ****     hdma->Instance->FCR |= DMA_IT_FE;
 1970              		.loc 1 204 9 is_stmt 0 view .LVU380
 1971 0c82 2268     		ldr	r2, [r4]
 204:Drivers/STM32F2xx_HAL_Driver/Src/stm32f2xx_hal_dma_ex.c ****     hdma->Instance->FCR |= DMA_IT_FE;
 1972              		.loc 1 204 25 view .LVU381
 1973 0c84 1368     		ldr	r3, [r2]
 1974 0c86 43F01603 		orr	r3, r3, #22
 1975 0c8a 1360     		str	r3, [r2]
 205:Drivers/STM32F2xx_HAL_Driver/Src/stm32f2xx_hal_dma_ex.c ****     
 1976              		.loc 1 205 5 is_stmt 1 view .LVU382
 205:Drivers/STM32F2xx_HAL_Driver/Src/stm32f2xx_hal_dma_ex.c ****     
 1977              		.loc 1 205 9 is_stmt 0 view .LVU383
 1978 0c8c 2268     		ldr	r2, [r4]
 205:Drivers/STM32F2xx_HAL_Driver/Src/stm32f2xx_hal_dma_ex.c ****     
 1979              		.loc 1 205 25 view .LVU384
 1980 0c8e 5369     		ldr	r3, [r2, #20]
 1981 0c90 43F08003 		orr	r3, r3, #128
 1982 0c94 5361     		str	r3, [r2, #20]
 207:Drivers/STM32F2xx_HAL_Driver/Src/stm32f2xx_hal_dma_ex.c ****     {
 1983              		.loc 1 207 5 is_stmt 1 view .LVU385
 207:Drivers/STM32F2xx_HAL_Driver/Src/stm32f2xx_hal_dma_ex.c ****     {
 1984              		.loc 1 207 13 is_stmt 0 view .LVU386
 1985 0c96 236C     		ldr	r3, [r4, #64]
 207:Drivers/STM32F2xx_HAL_Driver/Src/stm32f2xx_hal_dma_ex.c ****     {
 1986              		.loc 1 207 7 view .LVU387
 1987 0c98 002B     		cmp	r3, #0
 1988 0c9a 00F02581 		beq	.L322
 1989              	.L59:
 209:Drivers/STM32F2xx_HAL_Driver/Src/stm32f2xx_hal_dma_ex.c ****     }
 1990              		.loc 1 209 7 is_stmt 1 view .LVU388
 209:Drivers/STM32F2xx_HAL_Driver/Src/stm32f2xx_hal_dma_ex.c ****     }
 1991              		.loc 1 209 11 is_stmt 0 view .LVU389
 1992 0c9e 2268     		ldr	r2, [r4]
 209:Drivers/STM32F2xx_HAL_Driver/Src/stm32f2xx_hal_dma_ex.c ****     }
 1993              		.loc 1 209 27 view .LVU390
 1994 0ca0 1368     		ldr	r3, [r2]
 1995 0ca2 43F00803 		orr	r3, r3, #8
 1996 0ca6 1360     		str	r3, [r2]
 1997              	.L60:
 213:Drivers/STM32F2xx_HAL_Driver/Src/stm32f2xx_hal_dma_ex.c ****   }
 1998              		.loc 1 213 5 is_stmt 1 view .LVU391
 1999 0ca8 2268     		ldr	r2, [r4]
 2000 0caa 1368     		ldr	r3, [r2]
 2001 0cac 43F00103 		orr	r3, r3, #1
 2002 0cb0 1360     		str	r3, [r2]
 157:Drivers/STM32F2xx_HAL_Driver/Src/stm32f2xx_hal_dma_ex.c ****   
 2003              		.loc 1 157 21 is_stmt 0 view .LVU392
 2004 0cb2 0020     		movs	r0, #0
ARM GAS  C:\Users\Artem\AppData\Local\Temp\cc9eXbmh.s 			page 48


 2005 0cb4 FFF7C9B9 		b	.L15
 2006              	.L255:
 201:Drivers/STM32F2xx_HAL_Driver/Src/stm32f2xx_hal_dma_ex.c **** 
 2007              		.loc 1 201 5 view .LVU393
 2008 0cb8 0122     		movs	r2, #1
 2009 0cba E0E7     		b	.L52
 2010              	.L256:
 2011 0cbc 0122     		movs	r2, #1
 2012 0cbe DEE7     		b	.L52
 2013              	.L257:
 2014 0cc0 0122     		movs	r2, #1
 2015 0cc2 DCE7     		b	.L52
 2016              	.L258:
 2017 0cc4 4022     		movs	r2, #64
 2018 0cc6 DAE7     		b	.L52
 2019              	.L259:
 2020 0cc8 4022     		movs	r2, #64
 2021 0cca D8E7     		b	.L52
 2022              	.L260:
 2023 0ccc 4022     		movs	r2, #64
 2024 0cce D6E7     		b	.L52
 2025              	.L261:
 2026 0cd0 4022     		movs	r2, #64
 2027 0cd2 D4E7     		b	.L52
 2028              	.L262:
 2029 0cd4 4FF48032 		mov	r2, #65536
 2030 0cd8 D1E7     		b	.L52
 2031              	.L263:
 2032 0cda 4FF48032 		mov	r2, #65536
 2033 0cde CEE7     		b	.L52
 2034              	.L264:
 2035 0ce0 4FF48032 		mov	r2, #65536
 2036 0ce4 CBE7     		b	.L52
 2037              	.L51:
 201:Drivers/STM32F2xx_HAL_Driver/Src/stm32f2xx_hal_dma_ex.c **** 
 2038              		.loc 1 201 5 discriminator 2 view .LVU394
 2039 0ce6 564A     		ldr	r2, .L334+12
 2040 0ce8 9342     		cmp	r3, r2
 2041 0cea 4FD9     		bls	.L54
 201:Drivers/STM32F2xx_HAL_Driver/Src/stm32f2xx_hal_dma_ex.c **** 
 2042              		.loc 1 201 5 discriminator 51 view .LVU395
 2043 0cec A83A     		subs	r2, r2, #168
 2044 0cee 9342     		cmp	r3, r2
 2045 0cf0 31D0     		beq	.L266
 201:Drivers/STM32F2xx_HAL_Driver/Src/stm32f2xx_hal_dma_ex.c **** 
 2046              		.loc 1 201 5 discriminator 53 view .LVU396
 2047 0cf2 02F58062 		add	r2, r2, #1024
 2048 0cf6 9342     		cmp	r3, r2
 2049 0cf8 31D0     		beq	.L267
 201:Drivers/STM32F2xx_HAL_Driver/Src/stm32f2xx_hal_dma_ex.c **** 
 2050              		.loc 1 201 5 discriminator 55 view .LVU397
 2051 0cfa A2F56872 		sub	r2, r2, #928
 2052 0cfe 9342     		cmp	r3, r2
 2053 0d00 2FD0     		beq	.L268
 201:Drivers/STM32F2xx_HAL_Driver/Src/stm32f2xx_hal_dma_ex.c **** 
 2054              		.loc 1 201 5 discriminator 57 view .LVU398
 2055 0d02 02F58062 		add	r2, r2, #1024
ARM GAS  C:\Users\Artem\AppData\Local\Temp\cc9eXbmh.s 			page 49


 2056 0d06 9342     		cmp	r3, r2
 2057 0d08 2DD0     		beq	.L269
 201:Drivers/STM32F2xx_HAL_Driver/Src/stm32f2xx_hal_dma_ex.c **** 
 2058              		.loc 1 201 5 discriminator 59 view .LVU399
 2059 0d0a A2F58962 		sub	r2, r2, #1096
 2060 0d0e 9342     		cmp	r3, r2
 2061 0d10 2BD0     		beq	.L270
 201:Drivers/STM32F2xx_HAL_Driver/Src/stm32f2xx_hal_dma_ex.c **** 
 2062              		.loc 1 201 5 discriminator 61 view .LVU400
 2063 0d12 02F58062 		add	r2, r2, #1024
 2064 0d16 9342     		cmp	r3, r2
 2065 0d18 29D0     		beq	.L271
 201:Drivers/STM32F2xx_HAL_Driver/Src/stm32f2xx_hal_dma_ex.c **** 
 2066              		.loc 1 201 5 discriminator 63 view .LVU401
 2067 0d1a A2F56872 		sub	r2, r2, #928
 2068 0d1e 9342     		cmp	r3, r2
 2069 0d20 27D0     		beq	.L272
 201:Drivers/STM32F2xx_HAL_Driver/Src/stm32f2xx_hal_dma_ex.c **** 
 2070              		.loc 1 201 5 discriminator 65 view .LVU402
 2071 0d22 02F58062 		add	r2, r2, #1024
 2072 0d26 9342     		cmp	r3, r2
 2073 0d28 25D0     		beq	.L273
 201:Drivers/STM32F2xx_HAL_Driver/Src/stm32f2xx_hal_dma_ex.c **** 
 2074              		.loc 1 201 5 discriminator 67 view .LVU403
 2075 0d2a A2F58962 		sub	r2, r2, #1096
 2076 0d2e 9342     		cmp	r3, r2
 2077 0d30 23D0     		beq	.L274
 201:Drivers/STM32F2xx_HAL_Driver/Src/stm32f2xx_hal_dma_ex.c **** 
 2078              		.loc 1 201 5 discriminator 69 view .LVU404
 2079 0d32 02F58062 		add	r2, r2, #1024
 2080 0d36 9342     		cmp	r3, r2
 2081 0d38 22D0     		beq	.L275
 201:Drivers/STM32F2xx_HAL_Driver/Src/stm32f2xx_hal_dma_ex.c **** 
 2082              		.loc 1 201 5 discriminator 71 view .LVU405
 2083 0d3a A2F56872 		sub	r2, r2, #928
 2084 0d3e 9342     		cmp	r3, r2
 2085 0d40 21D0     		beq	.L276
 201:Drivers/STM32F2xx_HAL_Driver/Src/stm32f2xx_hal_dma_ex.c **** 
 2086              		.loc 1 201 5 discriminator 73 view .LVU406
 2087 0d42 02F58062 		add	r2, r2, #1024
 2088 0d46 9342     		cmp	r3, r2
 2089 0d48 02D0     		beq	.L323
 201:Drivers/STM32F2xx_HAL_Driver/Src/stm32f2xx_hal_dma_ex.c **** 
 2090              		.loc 1 201 5 view .LVU407
 2091 0d4a 4FF48003 		mov	r3, #4194304
 2092 0d4e 03E0     		b	.L55
 2093              	.L323:
 2094 0d50 4FF48033 		mov	r3, #65536
 2095 0d54 00E0     		b	.L55
 2096              	.L266:
 2097 0d56 0123     		movs	r3, #1
 2098              	.L55:
 201:Drivers/STM32F2xx_HAL_Driver/Src/stm32f2xx_hal_dma_ex.c **** 
 2099              		.loc 1 201 5 discriminator 100 view .LVU408
 2100 0d58 384A     		ldr	r2, .L334+8
 2101 0d5a 9360     		str	r3, [r2, #8]
 2102 0d5c 91E7     		b	.L53
ARM GAS  C:\Users\Artem\AppData\Local\Temp\cc9eXbmh.s 			page 50


 2103              	.L267:
 201:Drivers/STM32F2xx_HAL_Driver/Src/stm32f2xx_hal_dma_ex.c **** 
 2104              		.loc 1 201 5 view .LVU409
 2105 0d5e 0123     		movs	r3, #1
 2106 0d60 FAE7     		b	.L55
 2107              	.L268:
 2108 0d62 0123     		movs	r3, #1
 2109 0d64 F8E7     		b	.L55
 2110              	.L269:
 2111 0d66 0123     		movs	r3, #1
 2112 0d68 F6E7     		b	.L55
 2113              	.L270:
 2114 0d6a 4023     		movs	r3, #64
 2115 0d6c F4E7     		b	.L55
 2116              	.L271:
 2117 0d6e 4023     		movs	r3, #64
 2118 0d70 F2E7     		b	.L55
 2119              	.L272:
 2120 0d72 4023     		movs	r3, #64
 2121 0d74 F0E7     		b	.L55
 2122              	.L273:
 2123 0d76 4023     		movs	r3, #64
 2124 0d78 EEE7     		b	.L55
 2125              	.L274:
 2126 0d7a 4FF48033 		mov	r3, #65536
 2127 0d7e EBE7     		b	.L55
 2128              	.L275:
 2129 0d80 4FF48033 		mov	r3, #65536
 2130 0d84 E8E7     		b	.L55
 2131              	.L276:
 2132 0d86 4FF48033 		mov	r3, #65536
 2133 0d8a E5E7     		b	.L55
 2134              	.L54:
 201:Drivers/STM32F2xx_HAL_Driver/Src/stm32f2xx_hal_dma_ex.c **** 
 2135              		.loc 1 201 5 discriminator 52 view .LVU410
 2136 0d8c 2D4A     		ldr	r2, .L334+16
 2137 0d8e 9342     		cmp	r3, r2
 2138 0d90 5AD9     		bls	.L56
 201:Drivers/STM32F2xx_HAL_Driver/Src/stm32f2xx_hal_dma_ex.c **** 
 2139              		.loc 1 201 5 discriminator 102 view .LVU411
 2140 0d92 483A     		subs	r2, r2, #72
 2141 0d94 9342     		cmp	r3, r2
 2142 0d96 31D0     		beq	.L278
 201:Drivers/STM32F2xx_HAL_Driver/Src/stm32f2xx_hal_dma_ex.c **** 
 2143              		.loc 1 201 5 discriminator 104 view .LVU412
 2144 0d98 02F58062 		add	r2, r2, #1024
 2145 0d9c 9342     		cmp	r3, r2
 2146 0d9e 31D0     		beq	.L279
 201:Drivers/STM32F2xx_HAL_Driver/Src/stm32f2xx_hal_dma_ex.c **** 
 2147              		.loc 1 201 5 discriminator 106 view .LVU413
 2148 0da0 A2F56872 		sub	r2, r2, #928
 2149 0da4 9342     		cmp	r3, r2
 2150 0da6 2FD0     		beq	.L280
 201:Drivers/STM32F2xx_HAL_Driver/Src/stm32f2xx_hal_dma_ex.c **** 
 2151              		.loc 1 201 5 discriminator 108 view .LVU414
 2152 0da8 02F58062 		add	r2, r2, #1024
 2153 0dac 9342     		cmp	r3, r2
ARM GAS  C:\Users\Artem\AppData\Local\Temp\cc9eXbmh.s 			page 51


 2154 0dae 2DD0     		beq	.L281
 201:Drivers/STM32F2xx_HAL_Driver/Src/stm32f2xx_hal_dma_ex.c **** 
 2155              		.loc 1 201 5 discriminator 110 view .LVU415
 2156 0db0 A2F58962 		sub	r2, r2, #1096
 2157 0db4 9342     		cmp	r3, r2
 2158 0db6 2BD0     		beq	.L282
 201:Drivers/STM32F2xx_HAL_Driver/Src/stm32f2xx_hal_dma_ex.c **** 
 2159              		.loc 1 201 5 discriminator 112 view .LVU416
 2160 0db8 02F58062 		add	r2, r2, #1024
 2161 0dbc 9342     		cmp	r3, r2
 2162 0dbe 29D0     		beq	.L283
 201:Drivers/STM32F2xx_HAL_Driver/Src/stm32f2xx_hal_dma_ex.c **** 
 2163              		.loc 1 201 5 discriminator 114 view .LVU417
 2164 0dc0 A2F56872 		sub	r2, r2, #928
 2165 0dc4 9342     		cmp	r3, r2
 2166 0dc6 27D0     		beq	.L284
 201:Drivers/STM32F2xx_HAL_Driver/Src/stm32f2xx_hal_dma_ex.c **** 
 2167              		.loc 1 201 5 discriminator 116 view .LVU418
 2168 0dc8 02F58062 		add	r2, r2, #1024
 2169 0dcc 9342     		cmp	r3, r2
 2170 0dce 25D0     		beq	.L285
 201:Drivers/STM32F2xx_HAL_Driver/Src/stm32f2xx_hal_dma_ex.c **** 
 2171              		.loc 1 201 5 discriminator 118 view .LVU419
 2172 0dd0 A2F58962 		sub	r2, r2, #1096
 2173 0dd4 9342     		cmp	r3, r2
 2174 0dd6 23D0     		beq	.L286
 201:Drivers/STM32F2xx_HAL_Driver/Src/stm32f2xx_hal_dma_ex.c **** 
 2175              		.loc 1 201 5 discriminator 120 view .LVU420
 2176 0dd8 02F58062 		add	r2, r2, #1024
 2177 0ddc 9342     		cmp	r3, r2
 2178 0dde 22D0     		beq	.L287
 201:Drivers/STM32F2xx_HAL_Driver/Src/stm32f2xx_hal_dma_ex.c **** 
 2179              		.loc 1 201 5 discriminator 122 view .LVU421
 2180 0de0 A2F56872 		sub	r2, r2, #928
 2181 0de4 9342     		cmp	r3, r2
 2182 0de6 21D0     		beq	.L288
 201:Drivers/STM32F2xx_HAL_Driver/Src/stm32f2xx_hal_dma_ex.c **** 
 2183              		.loc 1 201 5 discriminator 124 view .LVU422
 2184 0de8 02F58062 		add	r2, r2, #1024
 2185 0dec 9342     		cmp	r3, r2
 2186 0dee 02D0     		beq	.L324
 201:Drivers/STM32F2xx_HAL_Driver/Src/stm32f2xx_hal_dma_ex.c **** 
 2187              		.loc 1 201 5 view .LVU423
 2188 0df0 4FF48003 		mov	r3, #4194304
 2189 0df4 03E0     		b	.L57
 2190              	.L324:
 2191 0df6 4FF48033 		mov	r3, #65536
 2192 0dfa 00E0     		b	.L57
 2193              	.L278:
 2194 0dfc 0123     		movs	r3, #1
 2195              	.L57:
 201:Drivers/STM32F2xx_HAL_Driver/Src/stm32f2xx_hal_dma_ex.c **** 
 2196              		.loc 1 201 5 discriminator 151 view .LVU424
 2197 0dfe 0E4A     		ldr	r2, .L334+4
 2198 0e00 D360     		str	r3, [r2, #12]
 2199 0e02 3EE7     		b	.L53
 2200              	.L279:
ARM GAS  C:\Users\Artem\AppData\Local\Temp\cc9eXbmh.s 			page 52


 201:Drivers/STM32F2xx_HAL_Driver/Src/stm32f2xx_hal_dma_ex.c **** 
 2201              		.loc 1 201 5 view .LVU425
 2202 0e04 0123     		movs	r3, #1
 2203 0e06 FAE7     		b	.L57
 2204              	.L280:
 2205 0e08 0123     		movs	r3, #1
 2206 0e0a F8E7     		b	.L57
 2207              	.L281:
 2208 0e0c 0123     		movs	r3, #1
 2209 0e0e F6E7     		b	.L57
 2210              	.L282:
 2211 0e10 4023     		movs	r3, #64
 2212 0e12 F4E7     		b	.L57
 2213              	.L283:
 2214 0e14 4023     		movs	r3, #64
 2215 0e16 F2E7     		b	.L57
 2216              	.L284:
 2217 0e18 4023     		movs	r3, #64
 2218 0e1a F0E7     		b	.L57
 2219              	.L285:
 2220 0e1c 4023     		movs	r3, #64
 2221 0e1e EEE7     		b	.L57
 2222              	.L286:
 2223 0e20 4FF48033 		mov	r3, #65536
 2224 0e24 EBE7     		b	.L57
 2225              	.L287:
 2226 0e26 4FF48033 		mov	r3, #65536
 2227 0e2a E8E7     		b	.L57
 2228              	.L288:
 2229 0e2c 4FF48033 		mov	r3, #65536
 2230 0e30 E5E7     		b	.L57
 2231              	.L335:
 2232 0e32 00BF     		.align	2
 2233              	.L334:
 2234 0e34 10600240 		.word	1073897488
 2235 0e38 00600240 		.word	1073897472
 2236 0e3c 00640240 		.word	1073898496
 2237 0e40 B8600240 		.word	1073897656
 2238 0e44 58600240 		.word	1073897560
 2239              	.L56:
 201:Drivers/STM32F2xx_HAL_Driver/Src/stm32f2xx_hal_dma_ex.c **** 
 2240              		.loc 1 201 5 discriminator 103 view .LVU426
 2241 0e48 2B4A     		ldr	r2, .L336
 2242 0e4a 9342     		cmp	r3, r2
 2243 0e4c 31D0     		beq	.L290
 201:Drivers/STM32F2xx_HAL_Driver/Src/stm32f2xx_hal_dma_ex.c **** 
 2244              		.loc 1 201 5 discriminator 153 view .LVU427
 2245 0e4e 02F58062 		add	r2, r2, #1024
 2246 0e52 9342     		cmp	r3, r2
 2247 0e54 31D0     		beq	.L291
 201:Drivers/STM32F2xx_HAL_Driver/Src/stm32f2xx_hal_dma_ex.c **** 
 2248              		.loc 1 201 5 discriminator 155 view .LVU428
 2249 0e56 A2F56872 		sub	r2, r2, #928
 2250 0e5a 9342     		cmp	r3, r2
 2251 0e5c 2FD0     		beq	.L292
 201:Drivers/STM32F2xx_HAL_Driver/Src/stm32f2xx_hal_dma_ex.c **** 
 2252              		.loc 1 201 5 discriminator 157 view .LVU429
ARM GAS  C:\Users\Artem\AppData\Local\Temp\cc9eXbmh.s 			page 53


 2253 0e5e 02F58062 		add	r2, r2, #1024
 2254 0e62 9342     		cmp	r3, r2
 2255 0e64 2DD0     		beq	.L293
 201:Drivers/STM32F2xx_HAL_Driver/Src/stm32f2xx_hal_dma_ex.c **** 
 2256              		.loc 1 201 5 discriminator 159 view .LVU430
 2257 0e66 A2F58962 		sub	r2, r2, #1096
 2258 0e6a 9342     		cmp	r3, r2
 2259 0e6c 2BD0     		beq	.L294
 201:Drivers/STM32F2xx_HAL_Driver/Src/stm32f2xx_hal_dma_ex.c **** 
 2260              		.loc 1 201 5 discriminator 161 view .LVU431
 2261 0e6e 02F58062 		add	r2, r2, #1024
 2262 0e72 9342     		cmp	r3, r2
 2263 0e74 29D0     		beq	.L295
 201:Drivers/STM32F2xx_HAL_Driver/Src/stm32f2xx_hal_dma_ex.c **** 
 2264              		.loc 1 201 5 discriminator 163 view .LVU432
 2265 0e76 A2F56872 		sub	r2, r2, #928
 2266 0e7a 9342     		cmp	r3, r2
 2267 0e7c 27D0     		beq	.L296
 201:Drivers/STM32F2xx_HAL_Driver/Src/stm32f2xx_hal_dma_ex.c **** 
 2268              		.loc 1 201 5 discriminator 165 view .LVU433
 2269 0e7e 02F58062 		add	r2, r2, #1024
 2270 0e82 9342     		cmp	r3, r2
 2271 0e84 25D0     		beq	.L297
 201:Drivers/STM32F2xx_HAL_Driver/Src/stm32f2xx_hal_dma_ex.c **** 
 2272              		.loc 1 201 5 discriminator 167 view .LVU434
 2273 0e86 A2F58962 		sub	r2, r2, #1096
 2274 0e8a 9342     		cmp	r3, r2
 2275 0e8c 23D0     		beq	.L298
 201:Drivers/STM32F2xx_HAL_Driver/Src/stm32f2xx_hal_dma_ex.c **** 
 2276              		.loc 1 201 5 discriminator 169 view .LVU435
 2277 0e8e 02F58062 		add	r2, r2, #1024
 2278 0e92 9342     		cmp	r3, r2
 2279 0e94 22D0     		beq	.L299
 201:Drivers/STM32F2xx_HAL_Driver/Src/stm32f2xx_hal_dma_ex.c **** 
 2280              		.loc 1 201 5 discriminator 171 view .LVU436
 2281 0e96 A2F56872 		sub	r2, r2, #928
 2282 0e9a 9342     		cmp	r3, r2
 2283 0e9c 21D0     		beq	.L300
 201:Drivers/STM32F2xx_HAL_Driver/Src/stm32f2xx_hal_dma_ex.c **** 
 2284              		.loc 1 201 5 discriminator 173 view .LVU437
 2285 0e9e 02F58062 		add	r2, r2, #1024
 2286 0ea2 9342     		cmp	r3, r2
 2287 0ea4 02D0     		beq	.L325
 201:Drivers/STM32F2xx_HAL_Driver/Src/stm32f2xx_hal_dma_ex.c **** 
 2288              		.loc 1 201 5 view .LVU438
 2289 0ea6 4FF48003 		mov	r3, #4194304
 2290 0eaa 03E0     		b	.L58
 2291              	.L325:
 2292 0eac 4FF48033 		mov	r3, #65536
 2293 0eb0 00E0     		b	.L58
 2294              	.L290:
 2295 0eb2 0123     		movs	r3, #1
 2296              	.L58:
 201:Drivers/STM32F2xx_HAL_Driver/Src/stm32f2xx_hal_dma_ex.c **** 
 2297              		.loc 1 201 5 discriminator 200 view .LVU439
 2298 0eb4 114A     		ldr	r2, .L336+4
 2299 0eb6 9360     		str	r3, [r2, #8]
ARM GAS  C:\Users\Artem\AppData\Local\Temp\cc9eXbmh.s 			page 54


 2300 0eb8 E3E6     		b	.L53
 2301              	.L291:
 201:Drivers/STM32F2xx_HAL_Driver/Src/stm32f2xx_hal_dma_ex.c **** 
 2302              		.loc 1 201 5 view .LVU440
 2303 0eba 0123     		movs	r3, #1
 2304 0ebc FAE7     		b	.L58
 2305              	.L292:
 2306 0ebe 0123     		movs	r3, #1
 2307 0ec0 F8E7     		b	.L58
 2308              	.L293:
 2309 0ec2 0123     		movs	r3, #1
 2310 0ec4 F6E7     		b	.L58
 2311              	.L294:
 2312 0ec6 4023     		movs	r3, #64
 2313 0ec8 F4E7     		b	.L58
 2314              	.L295:
 2315 0eca 4023     		movs	r3, #64
 2316 0ecc F2E7     		b	.L58
 2317              	.L296:
 2318 0ece 4023     		movs	r3, #64
 2319 0ed0 F0E7     		b	.L58
 2320              	.L297:
 2321 0ed2 4023     		movs	r3, #64
 2322 0ed4 EEE7     		b	.L58
 2323              	.L298:
 2324 0ed6 4FF48033 		mov	r3, #65536
 2325 0eda EBE7     		b	.L58
 2326              	.L299:
 2327 0edc 4FF48033 		mov	r3, #65536
 2328 0ee0 E8E7     		b	.L58
 2329              	.L300:
 2330 0ee2 4FF48033 		mov	r3, #65536
 2331 0ee6 E5E7     		b	.L58
 2332              	.L322:
 207:Drivers/STM32F2xx_HAL_Driver/Src/stm32f2xx_hal_dma_ex.c ****     {
 2333              		.loc 1 207 53 discriminator 1 view .LVU441
 2334 0ee8 A36C     		ldr	r3, [r4, #72]
 207:Drivers/STM32F2xx_HAL_Driver/Src/stm32f2xx_hal_dma_ex.c ****     {
 2335              		.loc 1 207 45 discriminator 1 view .LVU442
 2336 0eea 002B     		cmp	r3, #0
 2337 0eec 7FF4D7AE 		bne	.L59
 2338 0ef0 DAE6     		b	.L60
 2339              	.LVL40:
 2340              	.L61:
 177:Drivers/STM32F2xx_HAL_Driver/Src/stm32f2xx_hal_dma_ex.c ****   
 2341              		.loc 1 177 3 view .LVU443
 2342 0ef2 0220     		movs	r0, #2
 2343 0ef4 FFF7A9B8 		b	.L15
 2344              	.L337:
 2345              		.align	2
 2346              	.L336:
 2347 0ef8 10600240 		.word	1073897488
 2348 0efc 00600240 		.word	1073897472
 2349              		.cfi_endproc
 2350              	.LFE73:
 2352              		.section	.text.HAL_DMAEx_ChangeMemory,"ax",%progbits
 2353              		.align	1
ARM GAS  C:\Users\Artem\AppData\Local\Temp\cc9eXbmh.s 			page 55


 2354              		.global	HAL_DMAEx_ChangeMemory
 2355              		.syntax unified
 2356              		.thumb
 2357              		.thumb_func
 2359              	HAL_DMAEx_ChangeMemory:
 2360              	.LVL41:
 2361              	.LFB74:
 241:Drivers/STM32F2xx_HAL_Driver/Src/stm32f2xx_hal_dma_ex.c ****   if(memory == MEMORY0)
 2362              		.loc 1 241 1 is_stmt 1 view -0
 2363              		.cfi_startproc
 2364              		@ args = 0, pretend = 0, frame = 0
 2365              		@ frame_needed = 0, uses_anonymous_args = 0
 2366              		@ link register save eliminated.
 242:Drivers/STM32F2xx_HAL_Driver/Src/stm32f2xx_hal_dma_ex.c ****   {
 2367              		.loc 1 242 3 view .LVU445
 242:Drivers/STM32F2xx_HAL_Driver/Src/stm32f2xx_hal_dma_ex.c ****   {
 2368              		.loc 1 242 5 is_stmt 0 view .LVU446
 2369 0000 1AB9     		cbnz	r2, .L339
 245:Drivers/STM32F2xx_HAL_Driver/Src/stm32f2xx_hal_dma_ex.c ****   }
 2370              		.loc 1 245 5 is_stmt 1 view .LVU447
 245:Drivers/STM32F2xx_HAL_Driver/Src/stm32f2xx_hal_dma_ex.c ****   }
 2371              		.loc 1 245 9 is_stmt 0 view .LVU448
 2372 0002 0368     		ldr	r3, [r0]
 245:Drivers/STM32F2xx_HAL_Driver/Src/stm32f2xx_hal_dma_ex.c ****   }
 2373              		.loc 1 245 26 view .LVU449
 2374 0004 D960     		str	r1, [r3, #12]
 2375              	.L340:
 253:Drivers/STM32F2xx_HAL_Driver/Src/stm32f2xx_hal_dma_ex.c **** }
 2376              		.loc 1 253 3 is_stmt 1 view .LVU450
 254:Drivers/STM32F2xx_HAL_Driver/Src/stm32f2xx_hal_dma_ex.c **** 
 2377              		.loc 1 254 1 is_stmt 0 view .LVU451
 2378 0006 0020     		movs	r0, #0
 2379              	.LVL42:
 254:Drivers/STM32F2xx_HAL_Driver/Src/stm32f2xx_hal_dma_ex.c **** 
 2380              		.loc 1 254 1 view .LVU452
 2381 0008 7047     		bx	lr
 2382              	.LVL43:
 2383              	.L339:
 250:Drivers/STM32F2xx_HAL_Driver/Src/stm32f2xx_hal_dma_ex.c ****   }
 2384              		.loc 1 250 5 is_stmt 1 view .LVU453
 250:Drivers/STM32F2xx_HAL_Driver/Src/stm32f2xx_hal_dma_ex.c ****   }
 2385              		.loc 1 250 9 is_stmt 0 view .LVU454
 2386 000a 0368     		ldr	r3, [r0]
 250:Drivers/STM32F2xx_HAL_Driver/Src/stm32f2xx_hal_dma_ex.c ****   }
 2387              		.loc 1 250 26 view .LVU455
 2388 000c 1961     		str	r1, [r3, #16]
 2389 000e FAE7     		b	.L340
 2390              		.cfi_endproc
 2391              	.LFE74:
 2393              		.text
 2394              	.Letext0:
 2395              		.file 2 "c:\\toolchain\\gcc-arm-none-eabi-10.3-2021.10\\arm-none-eabi\\include\\machine\\_default_
 2396              		.file 3 "c:\\toolchain\\gcc-arm-none-eabi-10.3-2021.10\\arm-none-eabi\\include\\sys\\_stdint.h"
 2397              		.file 4 "Drivers/CMSIS/Device/ST/STM32F2xx/Include/stm32f207xx.h"
 2398              		.file 5 "Drivers/STM32F2xx_HAL_Driver/Inc/stm32f2xx_hal_def.h"
 2399              		.file 6 "Drivers/STM32F2xx_HAL_Driver/Inc/stm32f2xx_hal_dma.h"
 2400              		.file 7 "Drivers/STM32F2xx_HAL_Driver/Inc/stm32f2xx_hal_dma_ex.h"
ARM GAS  C:\Users\Artem\AppData\Local\Temp\cc9eXbmh.s 			page 56


ARM GAS  C:\Users\Artem\AppData\Local\Temp\cc9eXbmh.s 			page 57

